ARM GAS  C:\Users\Sam\AppData\Local\Temp\ccXcTbKI.s 			page 1


   1              		.cpu cortex-m0
   2              		.fpu softvfp
   3              		.eabi_attribute 20, 1
   4              		.eabi_attribute 21, 1
   5              		.eabi_attribute 23, 3
   6              		.eabi_attribute 24, 1
   7              		.eabi_attribute 25, 1
   8              		.eabi_attribute 26, 1
   9              		.eabi_attribute 30, 6
  10              		.eabi_attribute 34, 0
  11              		.eabi_attribute 18, 4
  12              		.code	16
  13              		.file	"main.c"
  14              		.text
  15              	.Ltext0:
  16              		.cfi_sections	.debug_frame
  17              		.comm	devAddr,1,1
  18              		.comm	buffer,22,4
  19              		.section	.rodata
  20              		.align	2
  21              	.LC0:
  22 0000 4D505536 		.ascii	"MPU6050 connection successful\012\015\000"
  22      30353020 
  22      636F6E6E 
  22      65637469 
  22      6F6E2073 
  23              		.align	2
  24              	.LC2:
  25 0020 4D505536 		.ascii	"MPU6050 connection failed\012\012\015\000"
  25      30353020 
  25      636F6E6E 
  25      65637469 
  25      6F6E2066 
  26 003d 000000   		.align	2
  27              	.LC4:
  28 0040 52617720 		.ascii	"Raw values from gyroscope..\012\015\000"
  28      76616C75 
  28      65732066 
  28      726F6D20 
  28      6779726F 
  29 005e 0000     		.align	2
  30              	.LC6:
  31 0060 41583A25 		.ascii	"AX:%d, AY:%d, AZ:%d || GX:%d, GY:%d, GZ:%d,\011\000"
  31      642C2041 
  31      593A2564 
  31      2C20415A 
  31      3A256420 
  32 008d 000000   		.align	2
  33              	.LC8:
  34 0090 0A0D00   		.ascii	"\012\015\000"
  35 0093 00       		.section	.text.main,"ax",%progbits
  36              		.align	2
  37              		.global	main
  38              		.code	16
  39              		.thumb_func
  40              		.type	main, %function
  41              	main:
ARM GAS  C:\Users\Sam\AppData\Local\Temp\ccXcTbKI.s 			page 2


  42              	.LFB33:
  43              		.file 1 ".\\main.c"
   1:.\main.c      **** /* ========================================
   2:.\main.c      ****  *
   3:.\main.c      ****  * Copyright Samuel Walsh, 2014
   4:.\main.c      ****  * All Rights Reserved
   5:.\main.c      ****  * UNPUBLISHED, LICENSED SOFTWARE.
   6:.\main.c      ****  *
   7:.\main.c      ****  * CONFIDENTIAL AND PROPRIETARY INFORMATION
   8:.\main.c      ****  * WHICH IS THE PROPERTY OF Samuel Walsh.
   9:.\main.c      ****  *
  10:.\main.c      ****  * ========================================
  11:.\main.c      **** */
  12:.\main.c      **** #include <project.h>
  13:.\main.c      **** #include <mpu6050.h>
  14:.\main.c      **** #include <stdio.h>
  15:.\main.c      **** 
  16:.\main.c      **** int main()
  17:.\main.c      **** {
  44              		.loc 1 17 0
  45              		.cfi_startproc
  46 0000 F0B5     		push	{r4, r5, r6, r7, lr}
  47              	.LCFI0:
  48              		.cfi_def_cfa_offset 20
  49              		.cfi_offset 4, -20
  50              		.cfi_offset 5, -16
  51              		.cfi_offset 6, -12
  52              		.cfi_offset 7, -8
  53              		.cfi_offset 14, -4
  54 0002 97B0     		sub	sp, sp, #92
  55              	.LCFI1:
  56              		.cfi_def_cfa_offset 112
  57 0004 04AF     		add	r7, sp, #16
  58              	.LCFI2:
  59              		.cfi_def_cfa 7, 96
  18:.\main.c      ****     char buf[50]; //just to hold text values in for writing to UART
  19:.\main.c      ****     
  20:.\main.c      **** 	int16_t ax, ay, az, i;
  21:.\main.c      **** 	int16_t gx, gy, gz;
  22:.\main.c      ****     
  23:.\main.c      **** 	I2C_MPU6050_Start();
  60              		.loc 1 23 0
  61 0006 FFF7FEFF 		bl	I2C_MPU6050_Start
  24:.\main.c      **** 	SERIAL_Start();
  62              		.loc 1 24 0
  63 000a FFF7FEFF 		bl	SERIAL_Start
  25:.\main.c      **** 	
  26:.\main.c      ****     CyGlobalIntEnable;
  64              		.loc 1 26 0
  65              	@ 26 ".\main.c" 1
  66 000e 62B6     		CPSIE   i
  67              	@ 0 "" 2
  27:.\main.c      **** 
  28:.\main.c      **** 	MPU6050_init();
  68              		.loc 1 28 0
  69              		.code	16
  70 0010 FFF7FEFF 		bl	MPU6050_init
ARM GAS  C:\Users\Sam\AppData\Local\Temp\ccXcTbKI.s 			page 3


  29:.\main.c      **** 	MPU6050_initialize();
  71              		.loc 1 29 0
  72 0014 FFF7FEFF 		bl	MPU6050_initialize
  30:.\main.c      **** 	SERIAL_UartPutString(MPU6050_testConnection() ? "MPU6050 connection successful\n\r" : "MPU6050 con
  73              		.loc 1 30 0
  74 0018 FFF7FEFF 		bl	MPU6050_testConnection
  75 001c 031C     		mov	r3, r0
  76 001e 002B     		cmp	r3, #0
  77 0020 01D0     		beq	.L2
  78              		.loc 1 30 0 is_stmt 0 discriminator 1
  79 0022 274B     		ldr	r3, .L5
  80 0024 00E0     		b	.L3
  81              	.L2:
  82              		.loc 1 30 0 discriminator 2
  83 0026 274B     		ldr	r3, .L5+4
  84              	.L3:
  85              		.loc 1 30 0 discriminator 3
  86 0028 181C     		mov	r0, r3
  87 002a FFF7FEFF 		bl	SERIAL_UartPutString
  31:.\main.c      ****     
  32:.\main.c      ****     //Read the first 10 values
  33:.\main.c      ****     SERIAL_UartPutString("Raw values from gyroscope..\n\r");
  88              		.loc 1 33 0 is_stmt 1 discriminator 3
  89 002e 264B     		ldr	r3, .L5+8
  90 0030 181C     		mov	r0, r3
  91 0032 FFF7FEFF 		bl	SERIAL_UartPutString
  92              	.L4:
  34:.\main.c      ****         
  35:.\main.c      ****     while(1)
  36:.\main.c      ****     {
  37:.\main.c      ****       MPU6050_getMotion6(&ax, &ay, &az, &gx, &gy, &gz);
  93              		.loc 1 37 0 discriminator 1
  94 0036 381C     		mov	r0, r7
  95 0038 1230     		add	r0, r0, #18
  96 003a 391C     		mov	r1, r7
  97 003c 1031     		add	r1, r1, #16
  98 003e 3A1C     		mov	r2, r7
  99 0040 0E32     		add	r2, r2, #14
 100 0042 3B1C     		mov	r3, r7
 101 0044 0C33     		add	r3, r3, #12
 102 0046 3C1C     		mov	r4, r7
 103 0048 0A34     		add	r4, r4, #10
 104 004a 0094     		str	r4, [sp]
 105 004c 3C1C     		mov	r4, r7
 106 004e 0834     		add	r4, r4, #8
 107 0050 0194     		str	r4, [sp, #4]
 108 0052 FFF7FEFF 		bl	MPU6050_getMotion6
  38:.\main.c      ****       
  39:.\main.c      ****       sprintf(buf, "AX:%d, AY:%d, AZ:%d || GX:%d, GY:%d, GZ:%d,\t", ax,ay,az,gx,gy,gz);
 109              		.loc 1 39 0 discriminator 1
 110 0056 3B1C     		mov	r3, r7
 111 0058 1233     		add	r3, r3, #18
 112 005a 1B88     		ldrh	r3, [r3]
 113 005c 1AB2     		sxth	r2, r3
 114 005e 3B1C     		mov	r3, r7
 115 0060 1033     		add	r3, r3, #16
 116 0062 1B88     		ldrh	r3, [r3]
ARM GAS  C:\Users\Sam\AppData\Local\Temp\ccXcTbKI.s 			page 4


 117 0064 18B2     		sxth	r0, r3
 118 0066 7860     		str	r0, [r7, #4]
 119 0068 391C     		mov	r1, r7
 120 006a 0E31     		add	r1, r1, #14
 121 006c 0988     		ldrh	r1, [r1]
 122 006e 0BB2     		sxth	r3, r1
 123 0070 9C46     		mov	ip, r3
 124 0072 391C     		mov	r1, r7
 125 0074 0C31     		add	r1, r1, #12
 126 0076 0988     		ldrh	r1, [r1]
 127 0078 0EB2     		sxth	r6, r1
 128 007a 391C     		mov	r1, r7
 129 007c 0A31     		add	r1, r1, #10
 130 007e 0988     		ldrh	r1, [r1]
 131 0080 0DB2     		sxth	r5, r1
 132 0082 391C     		mov	r1, r7
 133 0084 0831     		add	r1, r1, #8
 134 0086 0988     		ldrh	r1, [r1]
 135 0088 0CB2     		sxth	r4, r1
 136 008a 381C     		mov	r0, r7
 137 008c 1430     		add	r0, r0, #20
 138 008e 0F49     		ldr	r1, .L5+12
 139 0090 6346     		mov	r3, ip
 140 0092 0093     		str	r3, [sp]
 141 0094 0196     		str	r6, [sp, #4]
 142 0096 0295     		str	r5, [sp, #8]
 143 0098 0394     		str	r4, [sp, #12]
 144 009a 7B68     		ldr	r3, [r7, #4]
 145 009c FFF7FEFF 		bl	sprintf
  40:.\main.c      ****       SERIAL_UartPutString(buf);
 146              		.loc 1 40 0 discriminator 1
 147 00a0 3B1C     		mov	r3, r7
 148 00a2 1433     		add	r3, r3, #20
 149 00a4 181C     		mov	r0, r3
 150 00a6 FFF7FEFF 		bl	SERIAL_UartPutString
  41:.\main.c      ****       SERIAL_UartPutString("\n\r");
 151              		.loc 1 41 0 discriminator 1
 152 00aa 094B     		ldr	r3, .L5+16
 153 00ac 181C     		mov	r0, r3
 154 00ae FFF7FEFF 		bl	SERIAL_UartPutString
  42:.\main.c      ****       CyDelay(300);
 155              		.loc 1 42 0 discriminator 1
 156 00b2 9623     		mov	r3, #150
 157 00b4 5B00     		lsl	r3, r3, #1
 158 00b6 181C     		mov	r0, r3
 159 00b8 FFF7FEFF 		bl	CyDelay
  43:.\main.c      ****     }
 160              		.loc 1 43 0 discriminator 1
 161 00bc BBE7     		b	.L4
 162              	.L6:
 163 00be C046     		.align	2
 164              	.L5:
 165 00c0 00000000 		.word	.LC0
 166 00c4 20000000 		.word	.LC2
 167 00c8 40000000 		.word	.LC4
 168 00cc 60000000 		.word	.LC6
 169 00d0 90000000 		.word	.LC8
ARM GAS  C:\Users\Sam\AppData\Local\Temp\ccXcTbKI.s 			page 5


 170              		.cfi_endproc
 171              	.LFE33:
 172              		.size	main, .-main
 173              		.text
 174              	.Letext0:
 175              		.file 2 "c:\\program files (x86)\\cypress\\psoc creator\\3.0\\psoc creator\\import\\gnu_cs\\arm\\4
 176              		.file 3 "./mpu6050.h"