ARM GAS  C:\Users\Sam\AppData\Local\Temp\ccy50R99.s 			page 1


   1              		.cpu cortex-m0
   2              		.fpu softvfp
   3              		.eabi_attribute 20, 1
   4              		.eabi_attribute 21, 1
   5              		.eabi_attribute 23, 3
   6              		.eabi_attribute 24, 1
   7              		.eabi_attribute 25, 1
   8              		.eabi_attribute 26, 1
   9              		.eabi_attribute 30, 6
  10              		.eabi_attribute 34, 0
  11              		.eabi_attribute 18, 4
  12              		.code	16
  13              		.file	"I2C_MPU6050_PM.c"
  14              		.text
  15              	.Ltext0:
  16              		.cfi_sections	.debug_frame
  17              		.global	I2C_MPU6050_backup
  18              		.bss
  19              		.align	2
  20              		.type	I2C_MPU6050_backup, %object
  21              		.size	I2C_MPU6050_backup, 1
  22              	I2C_MPU6050_backup:
  23 0000 00       		.space	1
  24 0001 000000   		.section	.text.I2C_MPU6050_Sleep,"ax",%progbits
  25              		.align	2
  26              		.global	I2C_MPU6050_Sleep
  27              		.code	16
  28              		.thumb_func
  29              		.type	I2C_MPU6050_Sleep, %function
  30              	I2C_MPU6050_Sleep:
  31              	.LFB0:
  32              		.file 1 ".\\Generated_Source\\PSoC4\\I2C_MPU6050_PM.c"
   1:.\Generated_Source\PSoC4/I2C_MPU6050_PM.c **** /*******************************************************************************
   2:.\Generated_Source\PSoC4/I2C_MPU6050_PM.c **** * File Name: I2C_MPU6050_PM.c
   3:.\Generated_Source\PSoC4/I2C_MPU6050_PM.c **** * Version 1.20
   4:.\Generated_Source\PSoC4/I2C_MPU6050_PM.c **** *
   5:.\Generated_Source\PSoC4/I2C_MPU6050_PM.c **** * Description:
   6:.\Generated_Source\PSoC4/I2C_MPU6050_PM.c **** *  This file provides the source code to the Power Management support for
   7:.\Generated_Source\PSoC4/I2C_MPU6050_PM.c **** *  the SCB Component.
   8:.\Generated_Source\PSoC4/I2C_MPU6050_PM.c **** *
   9:.\Generated_Source\PSoC4/I2C_MPU6050_PM.c **** * Note:
  10:.\Generated_Source\PSoC4/I2C_MPU6050_PM.c **** *
  11:.\Generated_Source\PSoC4/I2C_MPU6050_PM.c **** ********************************************************************************
  12:.\Generated_Source\PSoC4/I2C_MPU6050_PM.c **** * Copyright 2013-2014, Cypress Semiconductor Corporation.  All rights reserved.
  13:.\Generated_Source\PSoC4/I2C_MPU6050_PM.c **** * You may use this file only in accordance with the license, terms, conditions,
  14:.\Generated_Source\PSoC4/I2C_MPU6050_PM.c **** * disclaimers, and limitations in the end user license agreement accompanying
  15:.\Generated_Source\PSoC4/I2C_MPU6050_PM.c **** * the software package with which this file was provided.
  16:.\Generated_Source\PSoC4/I2C_MPU6050_PM.c **** *******************************************************************************/
  17:.\Generated_Source\PSoC4/I2C_MPU6050_PM.c **** 
  18:.\Generated_Source\PSoC4/I2C_MPU6050_PM.c **** #include "I2C_MPU6050.h"
  19:.\Generated_Source\PSoC4/I2C_MPU6050_PM.c **** #include "I2C_MPU6050_PVT.h"
  20:.\Generated_Source\PSoC4/I2C_MPU6050_PM.c **** 
  21:.\Generated_Source\PSoC4/I2C_MPU6050_PM.c **** #if(I2C_MPU6050_SCB_MODE_I2C_INC)
  22:.\Generated_Source\PSoC4/I2C_MPU6050_PM.c ****     #include "I2C_MPU6050_I2C_PVT.h"
  23:.\Generated_Source\PSoC4/I2C_MPU6050_PM.c **** #endif /* (I2C_MPU6050_SCB_MODE_I2C_INC) */
  24:.\Generated_Source\PSoC4/I2C_MPU6050_PM.c **** 
  25:.\Generated_Source\PSoC4/I2C_MPU6050_PM.c **** #if(I2C_MPU6050_SCB_MODE_EZI2C_INC)
ARM GAS  C:\Users\Sam\AppData\Local\Temp\ccy50R99.s 			page 2


  26:.\Generated_Source\PSoC4/I2C_MPU6050_PM.c ****     #include "I2C_MPU6050_EZI2C_PVT.h"
  27:.\Generated_Source\PSoC4/I2C_MPU6050_PM.c **** #endif /* (I2C_MPU6050_SCB_MODE_EZI2C_INC) */
  28:.\Generated_Source\PSoC4/I2C_MPU6050_PM.c **** 
  29:.\Generated_Source\PSoC4/I2C_MPU6050_PM.c **** #if(I2C_MPU6050_SCB_MODE_SPI_INC || I2C_MPU6050_SCB_MODE_UART_INC)
  30:.\Generated_Source\PSoC4/I2C_MPU6050_PM.c ****     #include "I2C_MPU6050_SPI_UART_PVT.h"
  31:.\Generated_Source\PSoC4/I2C_MPU6050_PM.c **** #endif /* (I2C_MPU6050_SCB_MODE_SPI_INC || I2C_MPU6050_SCB_MODE_UART_INC) */
  32:.\Generated_Source\PSoC4/I2C_MPU6050_PM.c **** 
  33:.\Generated_Source\PSoC4/I2C_MPU6050_PM.c **** 
  34:.\Generated_Source\PSoC4/I2C_MPU6050_PM.c **** /***************************************
  35:.\Generated_Source\PSoC4/I2C_MPU6050_PM.c **** *   Backup Structure declaration
  36:.\Generated_Source\PSoC4/I2C_MPU6050_PM.c **** ***************************************/
  37:.\Generated_Source\PSoC4/I2C_MPU6050_PM.c **** 
  38:.\Generated_Source\PSoC4/I2C_MPU6050_PM.c **** #if(I2C_MPU6050_SCB_MODE_UNCONFIG_CONST_CFG || \
  39:.\Generated_Source\PSoC4/I2C_MPU6050_PM.c ****    (I2C_MPU6050_SCB_MODE_I2C_CONST_CFG   && (!I2C_MPU6050_I2C_WAKE_ENABLE_CONST))   || \
  40:.\Generated_Source\PSoC4/I2C_MPU6050_PM.c ****    (I2C_MPU6050_SCB_MODE_EZI2C_CONST_CFG && (!I2C_MPU6050_EZI2C_WAKE_ENABLE_CONST)) || \
  41:.\Generated_Source\PSoC4/I2C_MPU6050_PM.c ****    (I2C_MPU6050_SCB_MODE_SPI_CONST_CFG   && (!I2C_MPU6050_SPI_WAKE_ENABLE_CONST))   || \
  42:.\Generated_Source\PSoC4/I2C_MPU6050_PM.c ****    (I2C_MPU6050_SCB_MODE_UART_CONST_CFG  && (!I2C_MPU6050_UART_WAKE_ENABLE_CONST)))
  43:.\Generated_Source\PSoC4/I2C_MPU6050_PM.c **** 
  44:.\Generated_Source\PSoC4/I2C_MPU6050_PM.c ****     I2C_MPU6050_BACKUP_STRUCT I2C_MPU6050_backup =
  45:.\Generated_Source\PSoC4/I2C_MPU6050_PM.c ****     {
  46:.\Generated_Source\PSoC4/I2C_MPU6050_PM.c ****         0u, /* enableState */
  47:.\Generated_Source\PSoC4/I2C_MPU6050_PM.c ****     };
  48:.\Generated_Source\PSoC4/I2C_MPU6050_PM.c **** #endif
  49:.\Generated_Source\PSoC4/I2C_MPU6050_PM.c **** 
  50:.\Generated_Source\PSoC4/I2C_MPU6050_PM.c **** 
  51:.\Generated_Source\PSoC4/I2C_MPU6050_PM.c **** /*******************************************************************************
  52:.\Generated_Source\PSoC4/I2C_MPU6050_PM.c **** * Function Name: I2C_MPU6050_Sleep
  53:.\Generated_Source\PSoC4/I2C_MPU6050_PM.c **** ********************************************************************************
  54:.\Generated_Source\PSoC4/I2C_MPU6050_PM.c **** *
  55:.\Generated_Source\PSoC4/I2C_MPU6050_PM.c **** * Summary:
  56:.\Generated_Source\PSoC4/I2C_MPU6050_PM.c **** *  Prepares the component to enter Deep Sleep.
  57:.\Generated_Source\PSoC4/I2C_MPU6050_PM.c **** *  The “Enable wakeup from Sleep Mode” selection has an influence on
  58:.\Generated_Source\PSoC4/I2C_MPU6050_PM.c **** *  this function implementation.
  59:.\Generated_Source\PSoC4/I2C_MPU6050_PM.c **** *
  60:.\Generated_Source\PSoC4/I2C_MPU6050_PM.c **** * Parameters:
  61:.\Generated_Source\PSoC4/I2C_MPU6050_PM.c **** *  None
  62:.\Generated_Source\PSoC4/I2C_MPU6050_PM.c **** *
  63:.\Generated_Source\PSoC4/I2C_MPU6050_PM.c **** * Return:
  64:.\Generated_Source\PSoC4/I2C_MPU6050_PM.c **** *  None
  65:.\Generated_Source\PSoC4/I2C_MPU6050_PM.c **** *
  66:.\Generated_Source\PSoC4/I2C_MPU6050_PM.c **** *******************************************************************************/
  67:.\Generated_Source\PSoC4/I2C_MPU6050_PM.c **** void I2C_MPU6050_Sleep(void)
  68:.\Generated_Source\PSoC4/I2C_MPU6050_PM.c **** {
  33              		.loc 1 68 0
  34              		.cfi_startproc
  35 0000 80B5     		push	{r7, lr}
  36              	.LCFI0:
  37              		.cfi_def_cfa_offset 8
  38              		.cfi_offset 7, -8
  39              		.cfi_offset 14, -4
  40 0002 00AF     		add	r7, sp, #0
  41              	.LCFI1:
  42              		.cfi_def_cfa_register 7
  69:.\Generated_Source\PSoC4/I2C_MPU6050_PM.c **** #if(I2C_MPU6050_SCB_MODE_UNCONFIG_CONST_CFG)
  70:.\Generated_Source\PSoC4/I2C_MPU6050_PM.c **** 
  71:.\Generated_Source\PSoC4/I2C_MPU6050_PM.c ****     if(I2C_MPU6050_SCB_WAKE_ENABLE_CHECK)
  72:.\Generated_Source\PSoC4/I2C_MPU6050_PM.c ****     {
ARM GAS  C:\Users\Sam\AppData\Local\Temp\ccy50R99.s 			page 3


  73:.\Generated_Source\PSoC4/I2C_MPU6050_PM.c ****         if(I2C_MPU6050_SCB_MODE_I2C_RUNTM_CFG)
  74:.\Generated_Source\PSoC4/I2C_MPU6050_PM.c ****         {
  75:.\Generated_Source\PSoC4/I2C_MPU6050_PM.c ****             I2C_MPU6050_I2CSaveConfig();
  76:.\Generated_Source\PSoC4/I2C_MPU6050_PM.c ****         }
  77:.\Generated_Source\PSoC4/I2C_MPU6050_PM.c ****         else if(I2C_MPU6050_SCB_MODE_EZI2C_RUNTM_CFG)
  78:.\Generated_Source\PSoC4/I2C_MPU6050_PM.c ****         {
  79:.\Generated_Source\PSoC4/I2C_MPU6050_PM.c ****             I2C_MPU6050_EzI2CSaveConfig();
  80:.\Generated_Source\PSoC4/I2C_MPU6050_PM.c ****         }
  81:.\Generated_Source\PSoC4/I2C_MPU6050_PM.c ****     #if(!I2C_MPU6050_CY_SCBIP_V1_I2C_ONLY)
  82:.\Generated_Source\PSoC4/I2C_MPU6050_PM.c ****         else if(I2C_MPU6050_SCB_MODE_SPI_RUNTM_CFG)
  83:.\Generated_Source\PSoC4/I2C_MPU6050_PM.c ****         {
  84:.\Generated_Source\PSoC4/I2C_MPU6050_PM.c ****             I2C_MPU6050_SpiSaveConfig();
  85:.\Generated_Source\PSoC4/I2C_MPU6050_PM.c ****         }
  86:.\Generated_Source\PSoC4/I2C_MPU6050_PM.c ****         else if(I2C_MPU6050_SCB_MODE_UART_RUNTM_CFG)
  87:.\Generated_Source\PSoC4/I2C_MPU6050_PM.c ****         {
  88:.\Generated_Source\PSoC4/I2C_MPU6050_PM.c ****             I2C_MPU6050_UartSaveConfig();
  89:.\Generated_Source\PSoC4/I2C_MPU6050_PM.c ****         }
  90:.\Generated_Source\PSoC4/I2C_MPU6050_PM.c ****     #endif /* (!I2C_MPU6050_CY_SCBIP_V1_I2C_ONLY) */
  91:.\Generated_Source\PSoC4/I2C_MPU6050_PM.c ****         else
  92:.\Generated_Source\PSoC4/I2C_MPU6050_PM.c ****         {
  93:.\Generated_Source\PSoC4/I2C_MPU6050_PM.c ****             /* Unknown mode: do nothing */
  94:.\Generated_Source\PSoC4/I2C_MPU6050_PM.c ****         }
  95:.\Generated_Source\PSoC4/I2C_MPU6050_PM.c ****     }
  96:.\Generated_Source\PSoC4/I2C_MPU6050_PM.c ****     else
  97:.\Generated_Source\PSoC4/I2C_MPU6050_PM.c ****     {
  98:.\Generated_Source\PSoC4/I2C_MPU6050_PM.c ****         I2C_MPU6050_backup.enableState = (uint8) I2C_MPU6050_GET_CTRL_ENABLED;
  99:.\Generated_Source\PSoC4/I2C_MPU6050_PM.c **** 
 100:.\Generated_Source\PSoC4/I2C_MPU6050_PM.c ****         if(0u != I2C_MPU6050_backup.enableState)
 101:.\Generated_Source\PSoC4/I2C_MPU6050_PM.c ****         {
 102:.\Generated_Source\PSoC4/I2C_MPU6050_PM.c ****             I2C_MPU6050_Stop();
 103:.\Generated_Source\PSoC4/I2C_MPU6050_PM.c ****         }
 104:.\Generated_Source\PSoC4/I2C_MPU6050_PM.c ****     }
 105:.\Generated_Source\PSoC4/I2C_MPU6050_PM.c **** 
 106:.\Generated_Source\PSoC4/I2C_MPU6050_PM.c **** #else
 107:.\Generated_Source\PSoC4/I2C_MPU6050_PM.c **** 
 108:.\Generated_Source\PSoC4/I2C_MPU6050_PM.c ****     #if (I2C_MPU6050_SCB_MODE_I2C_CONST_CFG && I2C_MPU6050_I2C_WAKE_ENABLE_CONST)
 109:.\Generated_Source\PSoC4/I2C_MPU6050_PM.c ****         I2C_MPU6050_I2CSaveConfig();
 110:.\Generated_Source\PSoC4/I2C_MPU6050_PM.c **** 
 111:.\Generated_Source\PSoC4/I2C_MPU6050_PM.c ****     #elif (I2C_MPU6050_SCB_MODE_EZI2C_CONST_CFG && I2C_MPU6050_EZI2C_WAKE_ENABLE_CONST)
 112:.\Generated_Source\PSoC4/I2C_MPU6050_PM.c ****         I2C_MPU6050_EzI2CSaveConfig();
 113:.\Generated_Source\PSoC4/I2C_MPU6050_PM.c **** 
 114:.\Generated_Source\PSoC4/I2C_MPU6050_PM.c ****     #elif (I2C_MPU6050_SCB_MODE_SPI_CONST_CFG && I2C_MPU6050_SPI_WAKE_ENABLE_CONST)
 115:.\Generated_Source\PSoC4/I2C_MPU6050_PM.c ****         I2C_MPU6050_SpiSaveConfig();
 116:.\Generated_Source\PSoC4/I2C_MPU6050_PM.c **** 
 117:.\Generated_Source\PSoC4/I2C_MPU6050_PM.c ****     #elif (I2C_MPU6050_SCB_MODE_UART_CONST_CFG && I2C_MPU6050_UART_WAKE_ENABLE_CONST)
 118:.\Generated_Source\PSoC4/I2C_MPU6050_PM.c ****         I2C_MPU6050_UartSaveConfig();
 119:.\Generated_Source\PSoC4/I2C_MPU6050_PM.c **** 
 120:.\Generated_Source\PSoC4/I2C_MPU6050_PM.c ****     #else
 121:.\Generated_Source\PSoC4/I2C_MPU6050_PM.c **** 
 122:.\Generated_Source\PSoC4/I2C_MPU6050_PM.c ****         I2C_MPU6050_backup.enableState = (uint8) I2C_MPU6050_GET_CTRL_ENABLED;
  43              		.loc 1 122 0
  44 0004 074B     		ldr	r3, .L3
  45 0006 1B68     		ldr	r3, [r3]
  46 0008 DB0F     		lsr	r3, r3, #31
  47 000a DBB2     		uxtb	r3, r3
  48 000c 1A1C     		mov	r2, r3
  49 000e 064B     		ldr	r3, .L3+4
ARM GAS  C:\Users\Sam\AppData\Local\Temp\ccy50R99.s 			page 4


  50 0010 1A70     		strb	r2, [r3]
 123:.\Generated_Source\PSoC4/I2C_MPU6050_PM.c **** 
 124:.\Generated_Source\PSoC4/I2C_MPU6050_PM.c ****         if(0u != I2C_MPU6050_backup.enableState)
  51              		.loc 1 124 0
  52 0012 054B     		ldr	r3, .L3+4
  53 0014 1B78     		ldrb	r3, [r3]
  54 0016 002B     		cmp	r3, #0
  55 0018 01D0     		beq	.L1
 125:.\Generated_Source\PSoC4/I2C_MPU6050_PM.c ****         {
 126:.\Generated_Source\PSoC4/I2C_MPU6050_PM.c ****             I2C_MPU6050_Stop();
  56              		.loc 1 126 0
  57 001a FFF7FEFF 		bl	I2C_MPU6050_Stop
  58              	.L1:
 127:.\Generated_Source\PSoC4/I2C_MPU6050_PM.c ****         }
 128:.\Generated_Source\PSoC4/I2C_MPU6050_PM.c **** 
 129:.\Generated_Source\PSoC4/I2C_MPU6050_PM.c ****     #endif /* defined (I2C_MPU6050_SCB_MODE_I2C_CONST_CFG) && (I2C_MPU6050_I2C_WAKE_ENABLE_CONST) *
 130:.\Generated_Source\PSoC4/I2C_MPU6050_PM.c **** 
 131:.\Generated_Source\PSoC4/I2C_MPU6050_PM.c **** #endif /* (I2C_MPU6050_SCB_MODE_UNCONFIG_CONST_CFG) */
 132:.\Generated_Source\PSoC4/I2C_MPU6050_PM.c **** }
  59              		.loc 1 132 0
  60 001e BD46     		mov	sp, r7
  61              		@ sp needed for prologue
  62 0020 80BD     		pop	{r7, pc}
  63              	.L4:
  64 0022 C046     		.align	2
  65              	.L3:
  66 0024 00000740 		.word	1074200576
  67 0028 00000000 		.word	I2C_MPU6050_backup
  68              		.cfi_endproc
  69              	.LFE0:
  70              		.size	I2C_MPU6050_Sleep, .-I2C_MPU6050_Sleep
  71              		.section	.text.I2C_MPU6050_Wakeup,"ax",%progbits
  72              		.align	2
  73              		.global	I2C_MPU6050_Wakeup
  74              		.code	16
  75              		.thumb_func
  76              		.type	I2C_MPU6050_Wakeup, %function
  77              	I2C_MPU6050_Wakeup:
  78              	.LFB1:
 133:.\Generated_Source\PSoC4/I2C_MPU6050_PM.c **** 
 134:.\Generated_Source\PSoC4/I2C_MPU6050_PM.c **** 
 135:.\Generated_Source\PSoC4/I2C_MPU6050_PM.c **** /*******************************************************************************
 136:.\Generated_Source\PSoC4/I2C_MPU6050_PM.c **** * Function Name: I2C_MPU6050_Wakeup
 137:.\Generated_Source\PSoC4/I2C_MPU6050_PM.c **** ********************************************************************************
 138:.\Generated_Source\PSoC4/I2C_MPU6050_PM.c **** *
 139:.\Generated_Source\PSoC4/I2C_MPU6050_PM.c **** * Summary:
 140:.\Generated_Source\PSoC4/I2C_MPU6050_PM.c **** *  Prepares the component for the Active mode operation after exiting Deep Sleep.
 141:.\Generated_Source\PSoC4/I2C_MPU6050_PM.c **** *  The “Enable wakeup from Sleep Mode” option has an influence on this function
 142:.\Generated_Source\PSoC4/I2C_MPU6050_PM.c **** *  implementation.
 143:.\Generated_Source\PSoC4/I2C_MPU6050_PM.c **** *  This function should not be called after exiting Sleep.
 144:.\Generated_Source\PSoC4/I2C_MPU6050_PM.c **** *
 145:.\Generated_Source\PSoC4/I2C_MPU6050_PM.c **** * Parameters:
 146:.\Generated_Source\PSoC4/I2C_MPU6050_PM.c **** *  None
 147:.\Generated_Source\PSoC4/I2C_MPU6050_PM.c **** *
 148:.\Generated_Source\PSoC4/I2C_MPU6050_PM.c **** * Return:
 149:.\Generated_Source\PSoC4/I2C_MPU6050_PM.c **** *  None
 150:.\Generated_Source\PSoC4/I2C_MPU6050_PM.c **** *
ARM GAS  C:\Users\Sam\AppData\Local\Temp\ccy50R99.s 			page 5


 151:.\Generated_Source\PSoC4/I2C_MPU6050_PM.c **** *******************************************************************************/
 152:.\Generated_Source\PSoC4/I2C_MPU6050_PM.c **** void I2C_MPU6050_Wakeup(void)
 153:.\Generated_Source\PSoC4/I2C_MPU6050_PM.c **** {
  79              		.loc 1 153 0
  80              		.cfi_startproc
  81 0000 80B5     		push	{r7, lr}
  82              	.LCFI2:
  83              		.cfi_def_cfa_offset 8
  84              		.cfi_offset 7, -8
  85              		.cfi_offset 14, -4
  86 0002 00AF     		add	r7, sp, #0
  87              	.LCFI3:
  88              		.cfi_def_cfa_register 7
 154:.\Generated_Source\PSoC4/I2C_MPU6050_PM.c **** #if(I2C_MPU6050_SCB_MODE_UNCONFIG_CONST_CFG)
 155:.\Generated_Source\PSoC4/I2C_MPU6050_PM.c **** 
 156:.\Generated_Source\PSoC4/I2C_MPU6050_PM.c ****     if(I2C_MPU6050_SCB_WAKE_ENABLE_CHECK)
 157:.\Generated_Source\PSoC4/I2C_MPU6050_PM.c ****     {
 158:.\Generated_Source\PSoC4/I2C_MPU6050_PM.c ****         if(I2C_MPU6050_SCB_MODE_I2C_RUNTM_CFG)
 159:.\Generated_Source\PSoC4/I2C_MPU6050_PM.c ****         {
 160:.\Generated_Source\PSoC4/I2C_MPU6050_PM.c ****             I2C_MPU6050_I2CRestoreConfig();
 161:.\Generated_Source\PSoC4/I2C_MPU6050_PM.c ****         }
 162:.\Generated_Source\PSoC4/I2C_MPU6050_PM.c ****         else if(I2C_MPU6050_SCB_MODE_EZI2C_RUNTM_CFG)
 163:.\Generated_Source\PSoC4/I2C_MPU6050_PM.c ****         {
 164:.\Generated_Source\PSoC4/I2C_MPU6050_PM.c ****             I2C_MPU6050_EzI2CRestoreConfig();
 165:.\Generated_Source\PSoC4/I2C_MPU6050_PM.c ****         }
 166:.\Generated_Source\PSoC4/I2C_MPU6050_PM.c ****     #if(!I2C_MPU6050_CY_SCBIP_V1_I2C_ONLY)
 167:.\Generated_Source\PSoC4/I2C_MPU6050_PM.c ****         else if(I2C_MPU6050_SCB_MODE_SPI_RUNTM_CFG)
 168:.\Generated_Source\PSoC4/I2C_MPU6050_PM.c ****         {
 169:.\Generated_Source\PSoC4/I2C_MPU6050_PM.c ****             I2C_MPU6050_SpiRestoreConfig();
 170:.\Generated_Source\PSoC4/I2C_MPU6050_PM.c ****         }
 171:.\Generated_Source\PSoC4/I2C_MPU6050_PM.c ****         else if(I2C_MPU6050_SCB_MODE_UART_RUNTM_CFG)
 172:.\Generated_Source\PSoC4/I2C_MPU6050_PM.c ****         {
 173:.\Generated_Source\PSoC4/I2C_MPU6050_PM.c ****             I2C_MPU6050_UartRestoreConfig();
 174:.\Generated_Source\PSoC4/I2C_MPU6050_PM.c ****         }
 175:.\Generated_Source\PSoC4/I2C_MPU6050_PM.c ****     #endif /* (!I2C_MPU6050_CY_SCBIP_V1_I2C_ONLY) */
 176:.\Generated_Source\PSoC4/I2C_MPU6050_PM.c ****         else
 177:.\Generated_Source\PSoC4/I2C_MPU6050_PM.c ****         {
 178:.\Generated_Source\PSoC4/I2C_MPU6050_PM.c ****             /* Unknown mode: do nothing */
 179:.\Generated_Source\PSoC4/I2C_MPU6050_PM.c ****         }
 180:.\Generated_Source\PSoC4/I2C_MPU6050_PM.c ****     }
 181:.\Generated_Source\PSoC4/I2C_MPU6050_PM.c ****     else
 182:.\Generated_Source\PSoC4/I2C_MPU6050_PM.c ****     {
 183:.\Generated_Source\PSoC4/I2C_MPU6050_PM.c ****         if(0u != I2C_MPU6050_backup.enableState)
 184:.\Generated_Source\PSoC4/I2C_MPU6050_PM.c ****         {
 185:.\Generated_Source\PSoC4/I2C_MPU6050_PM.c ****             I2C_MPU6050_Enable();
 186:.\Generated_Source\PSoC4/I2C_MPU6050_PM.c ****         }
 187:.\Generated_Source\PSoC4/I2C_MPU6050_PM.c ****     }
 188:.\Generated_Source\PSoC4/I2C_MPU6050_PM.c **** 
 189:.\Generated_Source\PSoC4/I2C_MPU6050_PM.c **** #else
 190:.\Generated_Source\PSoC4/I2C_MPU6050_PM.c **** 
 191:.\Generated_Source\PSoC4/I2C_MPU6050_PM.c ****     #if (I2C_MPU6050_SCB_MODE_I2C_CONST_CFG  && I2C_MPU6050_I2C_WAKE_ENABLE_CONST)
 192:.\Generated_Source\PSoC4/I2C_MPU6050_PM.c ****         I2C_MPU6050_I2CRestoreConfig();
 193:.\Generated_Source\PSoC4/I2C_MPU6050_PM.c **** 
 194:.\Generated_Source\PSoC4/I2C_MPU6050_PM.c ****     #elif (I2C_MPU6050_SCB_MODE_EZI2C_CONST_CFG && I2C_MPU6050_EZI2C_WAKE_ENABLE_CONST)
 195:.\Generated_Source\PSoC4/I2C_MPU6050_PM.c ****         I2C_MPU6050_EzI2CRestoreConfig();
 196:.\Generated_Source\PSoC4/I2C_MPU6050_PM.c **** 
 197:.\Generated_Source\PSoC4/I2C_MPU6050_PM.c ****     #elif (I2C_MPU6050_SCB_MODE_SPI_CONST_CFG && I2C_MPU6050_SPI_WAKE_ENABLE_CONST)
ARM GAS  C:\Users\Sam\AppData\Local\Temp\ccy50R99.s 			page 6


 198:.\Generated_Source\PSoC4/I2C_MPU6050_PM.c ****         I2C_MPU6050_SpiRestoreConfig();
 199:.\Generated_Source\PSoC4/I2C_MPU6050_PM.c **** 
 200:.\Generated_Source\PSoC4/I2C_MPU6050_PM.c ****     #elif (I2C_MPU6050_SCB_MODE_UART_CONST_CFG && I2C_MPU6050_UART_WAKE_ENABLE_CONST)
 201:.\Generated_Source\PSoC4/I2C_MPU6050_PM.c ****         I2C_MPU6050_UartRestoreConfig();
 202:.\Generated_Source\PSoC4/I2C_MPU6050_PM.c **** 
 203:.\Generated_Source\PSoC4/I2C_MPU6050_PM.c ****     #else
 204:.\Generated_Source\PSoC4/I2C_MPU6050_PM.c **** 
 205:.\Generated_Source\PSoC4/I2C_MPU6050_PM.c ****         if(0u != I2C_MPU6050_backup.enableState)
  89              		.loc 1 205 0
  90 0004 034B     		ldr	r3, .L7
  91 0006 1B78     		ldrb	r3, [r3]
  92 0008 002B     		cmp	r3, #0
  93 000a 01D0     		beq	.L5
 206:.\Generated_Source\PSoC4/I2C_MPU6050_PM.c ****         {
 207:.\Generated_Source\PSoC4/I2C_MPU6050_PM.c ****             I2C_MPU6050_Enable();
  94              		.loc 1 207 0
  95 000c FFF7FEFF 		bl	I2C_MPU6050_Enable
  96              	.L5:
 208:.\Generated_Source\PSoC4/I2C_MPU6050_PM.c ****         }
 209:.\Generated_Source\PSoC4/I2C_MPU6050_PM.c **** 
 210:.\Generated_Source\PSoC4/I2C_MPU6050_PM.c ****     #endif /* (I2C_MPU6050_I2C_WAKE_ENABLE_CONST) */
 211:.\Generated_Source\PSoC4/I2C_MPU6050_PM.c **** 
 212:.\Generated_Source\PSoC4/I2C_MPU6050_PM.c **** #endif /* (I2C_MPU6050_SCB_MODE_UNCONFIG_CONST_CFG) */
 213:.\Generated_Source\PSoC4/I2C_MPU6050_PM.c **** }
  97              		.loc 1 213 0
  98 0010 BD46     		mov	sp, r7
  99              		@ sp needed for prologue
 100 0012 80BD     		pop	{r7, pc}
 101              	.L8:
 102              		.align	2
 103              	.L7:
 104 0014 00000000 		.word	I2C_MPU6050_backup
 105              		.cfi_endproc
 106              	.LFE1:
 107              		.size	I2C_MPU6050_Wakeup, .-I2C_MPU6050_Wakeup
 108              		.text
 109              	.Letext0:
 110              		.file 2 "./Generated_Source/PSoC4/cytypes.h"
 111              		.file 3 ".\\Generated_Source\\PSoC4\\I2C_MPU6050.h"