ARM GAS  C:\Users\Sam\AppData\Local\Temp\ccvA4cr3.s 			page 1


   1              		.cpu cortex-m0
   2              		.fpu softvfp
   3              		.eabi_attribute 20, 1
   4              		.eabi_attribute 21, 1
   5              		.eabi_attribute 23, 3
   6              		.eabi_attribute 24, 1
   7              		.eabi_attribute 25, 1
   8              		.eabi_attribute 26, 1
   9              		.eabi_attribute 30, 6
  10              		.eabi_attribute 34, 0
  11              		.eabi_attribute 18, 4
  12              		.code	16
  13              		.file	"I2C_MPU6050_I2C.c"
  14              		.text
  15              	.Ltext0:
  16              		.cfi_sections	.debug_frame
  17              		.comm	I2C_MPU6050_state,1,1
  18              		.section	.text.I2C_MPU6050_I2CInit,"ax",%progbits
  19              		.align	2
  20              		.global	I2C_MPU6050_I2CInit
  21              		.code	16
  22              		.thumb_func
  23              		.type	I2C_MPU6050_I2CInit, %function
  24              	I2C_MPU6050_I2CInit:
  25              	.LFB0:
  26              		.file 1 ".\\Generated_Source\\PSoC4\\I2C_MPU6050_I2C.c"
   1:.\Generated_Source\PSoC4/I2C_MPU6050_I2C.c **** /*******************************************************************************
   2:.\Generated_Source\PSoC4/I2C_MPU6050_I2C.c **** * File Name: I2C_MPU6050_I2C.c
   3:.\Generated_Source\PSoC4/I2C_MPU6050_I2C.c **** * Version 1.20
   4:.\Generated_Source\PSoC4/I2C_MPU6050_I2C.c **** *
   5:.\Generated_Source\PSoC4/I2C_MPU6050_I2C.c **** * Description:
   6:.\Generated_Source\PSoC4/I2C_MPU6050_I2C.c **** *  This file provides the source code to the API for the SCB Component in
   7:.\Generated_Source\PSoC4/I2C_MPU6050_I2C.c **** *  I2C mode.
   8:.\Generated_Source\PSoC4/I2C_MPU6050_I2C.c **** *
   9:.\Generated_Source\PSoC4/I2C_MPU6050_I2C.c **** * Note:
  10:.\Generated_Source\PSoC4/I2C_MPU6050_I2C.c **** *
  11:.\Generated_Source\PSoC4/I2C_MPU6050_I2C.c **** *******************************************************************************
  12:.\Generated_Source\PSoC4/I2C_MPU6050_I2C.c **** * Copyright 2013-2014, Cypress Semiconductor Corporation.  All rights reserved.
  13:.\Generated_Source\PSoC4/I2C_MPU6050_I2C.c **** * You may use this file only in accordance with the license, terms, conditions,
  14:.\Generated_Source\PSoC4/I2C_MPU6050_I2C.c **** * disclaimers, and limitations in the end user license agreement accompanying
  15:.\Generated_Source\PSoC4/I2C_MPU6050_I2C.c **** * the software package with which this file was provided.
  16:.\Generated_Source\PSoC4/I2C_MPU6050_I2C.c **** *******************************************************************************/
  17:.\Generated_Source\PSoC4/I2C_MPU6050_I2C.c **** 
  18:.\Generated_Source\PSoC4/I2C_MPU6050_I2C.c **** #include "I2C_MPU6050_PVT.h"
  19:.\Generated_Source\PSoC4/I2C_MPU6050_I2C.c **** #include "I2C_MPU6050_I2C_PVT.h"
  20:.\Generated_Source\PSoC4/I2C_MPU6050_I2C.c **** 
  21:.\Generated_Source\PSoC4/I2C_MPU6050_I2C.c **** 
  22:.\Generated_Source\PSoC4/I2C_MPU6050_I2C.c **** /***************************************
  23:.\Generated_Source\PSoC4/I2C_MPU6050_I2C.c **** *      I2C Private Vars
  24:.\Generated_Source\PSoC4/I2C_MPU6050_I2C.c **** ***************************************/
  25:.\Generated_Source\PSoC4/I2C_MPU6050_I2C.c **** 
  26:.\Generated_Source\PSoC4/I2C_MPU6050_I2C.c **** volatile uint8 I2C_MPU6050_state;  /* Current state of I2C FSM */
  27:.\Generated_Source\PSoC4/I2C_MPU6050_I2C.c **** 
  28:.\Generated_Source\PSoC4/I2C_MPU6050_I2C.c **** 
  29:.\Generated_Source\PSoC4/I2C_MPU6050_I2C.c **** #if(I2C_MPU6050_SCB_MODE_UNCONFIG_CONST_CFG)
  30:.\Generated_Source\PSoC4/I2C_MPU6050_I2C.c **** 
  31:.\Generated_Source\PSoC4/I2C_MPU6050_I2C.c ****     /***************************************
ARM GAS  C:\Users\Sam\AppData\Local\Temp\ccvA4cr3.s 			page 2


  32:.\Generated_Source\PSoC4/I2C_MPU6050_I2C.c ****     *  Config Structure Initialization
  33:.\Generated_Source\PSoC4/I2C_MPU6050_I2C.c ****     ***************************************/
  34:.\Generated_Source\PSoC4/I2C_MPU6050_I2C.c **** 
  35:.\Generated_Source\PSoC4/I2C_MPU6050_I2C.c ****     /* Constant configuration of I2C */
  36:.\Generated_Source\PSoC4/I2C_MPU6050_I2C.c ****     const I2C_MPU6050_I2C_INIT_STRUCT I2C_MPU6050_configI2C =
  37:.\Generated_Source\PSoC4/I2C_MPU6050_I2C.c ****     {
  38:.\Generated_Source\PSoC4/I2C_MPU6050_I2C.c ****         I2C_MPU6050_I2C_MODE,
  39:.\Generated_Source\PSoC4/I2C_MPU6050_I2C.c ****         I2C_MPU6050_I2C_OVS_FACTOR_LOW,
  40:.\Generated_Source\PSoC4/I2C_MPU6050_I2C.c ****         I2C_MPU6050_I2C_OVS_FACTOR_HIGH,
  41:.\Generated_Source\PSoC4/I2C_MPU6050_I2C.c ****         I2C_MPU6050_I2C_MEDIAN_FILTER_ENABLE,
  42:.\Generated_Source\PSoC4/I2C_MPU6050_I2C.c ****         I2C_MPU6050_I2C_SLAVE_ADDRESS,
  43:.\Generated_Source\PSoC4/I2C_MPU6050_I2C.c ****         I2C_MPU6050_I2C_SLAVE_ADDRESS_MASK,
  44:.\Generated_Source\PSoC4/I2C_MPU6050_I2C.c ****         I2C_MPU6050_I2C_ACCEPT_ADDRESS,
  45:.\Generated_Source\PSoC4/I2C_MPU6050_I2C.c ****         I2C_MPU6050_I2C_WAKE_ENABLE
  46:.\Generated_Source\PSoC4/I2C_MPU6050_I2C.c ****     };
  47:.\Generated_Source\PSoC4/I2C_MPU6050_I2C.c **** 
  48:.\Generated_Source\PSoC4/I2C_MPU6050_I2C.c ****     /*******************************************************************************
  49:.\Generated_Source\PSoC4/I2C_MPU6050_I2C.c ****     * Function Name: I2C_MPU6050_I2CInit
  50:.\Generated_Source\PSoC4/I2C_MPU6050_I2C.c ****     ********************************************************************************
  51:.\Generated_Source\PSoC4/I2C_MPU6050_I2C.c ****     *
  52:.\Generated_Source\PSoC4/I2C_MPU6050_I2C.c ****     * Summary:
  53:.\Generated_Source\PSoC4/I2C_MPU6050_I2C.c ****     *  Configures the SCB for I2C operation.
  54:.\Generated_Source\PSoC4/I2C_MPU6050_I2C.c ****     *
  55:.\Generated_Source\PSoC4/I2C_MPU6050_I2C.c ****     * Parameters:
  56:.\Generated_Source\PSoC4/I2C_MPU6050_I2C.c ****     *  config:  Pointer to a structure that contains the following ordered list of
  57:.\Generated_Source\PSoC4/I2C_MPU6050_I2C.c ****     *           fields. These fields match the selections available in the
  58:.\Generated_Source\PSoC4/I2C_MPU6050_I2C.c ****     *           customizer.
  59:.\Generated_Source\PSoC4/I2C_MPU6050_I2C.c ****     *
  60:.\Generated_Source\PSoC4/I2C_MPU6050_I2C.c ****     * Return:
  61:.\Generated_Source\PSoC4/I2C_MPU6050_I2C.c ****     *  None
  62:.\Generated_Source\PSoC4/I2C_MPU6050_I2C.c ****     *
  63:.\Generated_Source\PSoC4/I2C_MPU6050_I2C.c ****     *******************************************************************************/
  64:.\Generated_Source\PSoC4/I2C_MPU6050_I2C.c ****     void I2C_MPU6050_I2CInit(const I2C_MPU6050_I2C_INIT_STRUCT *config)
  65:.\Generated_Source\PSoC4/I2C_MPU6050_I2C.c ****     {
  66:.\Generated_Source\PSoC4/I2C_MPU6050_I2C.c ****         if(NULL == config)
  67:.\Generated_Source\PSoC4/I2C_MPU6050_I2C.c ****         {
  68:.\Generated_Source\PSoC4/I2C_MPU6050_I2C.c ****             CYASSERT(0u != 0u); /* Halt execution due bad function parameter */
  69:.\Generated_Source\PSoC4/I2C_MPU6050_I2C.c ****         }
  70:.\Generated_Source\PSoC4/I2C_MPU6050_I2C.c ****         else
  71:.\Generated_Source\PSoC4/I2C_MPU6050_I2C.c ****         {
  72:.\Generated_Source\PSoC4/I2C_MPU6050_I2C.c ****             /* Configure pins */
  73:.\Generated_Source\PSoC4/I2C_MPU6050_I2C.c ****             I2C_MPU6050_SetPins(I2C_MPU6050_SCB_MODE_I2C, I2C_MPU6050_DUMMY_PARAM,
  74:.\Generated_Source\PSoC4/I2C_MPU6050_I2C.c ****                                                                     I2C_MPU6050_DUMMY_PARAM);
  75:.\Generated_Source\PSoC4/I2C_MPU6050_I2C.c **** 
  76:.\Generated_Source\PSoC4/I2C_MPU6050_I2C.c ****             /* Store internal configuration */
  77:.\Generated_Source\PSoC4/I2C_MPU6050_I2C.c ****             I2C_MPU6050_scbMode       = (uint8) I2C_MPU6050_SCB_MODE_I2C;
  78:.\Generated_Source\PSoC4/I2C_MPU6050_I2C.c ****             I2C_MPU6050_scbEnableWake = (uint8) config->enableWake;
  79:.\Generated_Source\PSoC4/I2C_MPU6050_I2C.c ****             I2C_MPU6050_scbEnableIntr = (uint8) I2C_MPU6050_SCB_IRQ_INTERNAL;
  80:.\Generated_Source\PSoC4/I2C_MPU6050_I2C.c **** 
  81:.\Generated_Source\PSoC4/I2C_MPU6050_I2C.c ****             I2C_MPU6050_mode          = (uint8) config->mode;
  82:.\Generated_Source\PSoC4/I2C_MPU6050_I2C.c ****             I2C_MPU6050_acceptAddr    = (uint8) config->acceptAddr;
  83:.\Generated_Source\PSoC4/I2C_MPU6050_I2C.c **** 
  84:.\Generated_Source\PSoC4/I2C_MPU6050_I2C.c ****             /* Configure I2C interface */
  85:.\Generated_Source\PSoC4/I2C_MPU6050_I2C.c ****             I2C_MPU6050_CTRL_REG     = I2C_MPU6050_GET_CTRL_ADDR_ACCEPT(config->acceptAddr) |
  86:.\Generated_Source\PSoC4/I2C_MPU6050_I2C.c ****                                             I2C_MPU6050_GET_CTRL_EC_AM_MODE (config->enableWake);
  87:.\Generated_Source\PSoC4/I2C_MPU6050_I2C.c **** 
  88:.\Generated_Source\PSoC4/I2C_MPU6050_I2C.c ****             I2C_MPU6050_I2C_CTRL_REG = I2C_MPU6050_GET_I2C_CTRL_HIGH_PHASE_OVS(config->oversampleHi
ARM GAS  C:\Users\Sam\AppData\Local\Temp\ccvA4cr3.s 			page 3


  89:.\Generated_Source\PSoC4/I2C_MPU6050_I2C.c ****                                             I2C_MPU6050_GET_I2C_CTRL_LOW_PHASE_OVS (config->oversam
  90:.\Generated_Source\PSoC4/I2C_MPU6050_I2C.c ****                                             I2C_MPU6050_GET_I2C_CTRL_SL_MSTR_MODE  (config->mode)  
  91:.\Generated_Source\PSoC4/I2C_MPU6050_I2C.c ****                                             I2C_MPU6050_I2C_CTRL;
  92:.\Generated_Source\PSoC4/I2C_MPU6050_I2C.c **** 
  93:.\Generated_Source\PSoC4/I2C_MPU6050_I2C.c ****         #if(I2C_MPU6050_CY_SCBIP_V0)
  94:.\Generated_Source\PSoC4/I2C_MPU6050_I2C.c ****             /* Adjust SDA filter settings. Ticket ID#150521 */
  95:.\Generated_Source\PSoC4/I2C_MPU6050_I2C.c ****             I2C_MPU6050_SET_I2C_CFG_SDA_FILT_TRIM(I2C_MPU6050_EC_AM_I2C_CFG_SDA_FILT_TRIM);
  96:.\Generated_Source\PSoC4/I2C_MPU6050_I2C.c ****         #endif /* (I2C_MPU6050_CY_SCBIP_V0) */
  97:.\Generated_Source\PSoC4/I2C_MPU6050_I2C.c **** 
  98:.\Generated_Source\PSoC4/I2C_MPU6050_I2C.c ****             /* Configure RX direction */
  99:.\Generated_Source\PSoC4/I2C_MPU6050_I2C.c ****             I2C_MPU6050_RX_CTRL_REG      = I2C_MPU6050_GET_RX_CTRL_MEDIAN(config->enableMedianFilte
 100:.\Generated_Source\PSoC4/I2C_MPU6050_I2C.c ****                                                 I2C_MPU6050_I2C_RX_CTRL;
 101:.\Generated_Source\PSoC4/I2C_MPU6050_I2C.c ****             I2C_MPU6050_RX_FIFO_CTRL_REG = I2C_MPU6050_CLEAR_REG;
 102:.\Generated_Source\PSoC4/I2C_MPU6050_I2C.c **** 
 103:.\Generated_Source\PSoC4/I2C_MPU6050_I2C.c ****             /* Set default address and mask */
 104:.\Generated_Source\PSoC4/I2C_MPU6050_I2C.c ****             I2C_MPU6050_RX_MATCH_REG    = ((I2C_MPU6050_I2C_SLAVE) ?
 105:.\Generated_Source\PSoC4/I2C_MPU6050_I2C.c ****                                                 (I2C_MPU6050_GET_I2C_8BIT_ADDRESS(config->slaveAddr
 106:.\Generated_Source\PSoC4/I2C_MPU6050_I2C.c ****                                                  I2C_MPU6050_GET_RX_MATCH_MASK(config->slaveAddrMas
 107:.\Generated_Source\PSoC4/I2C_MPU6050_I2C.c ****                                                 (I2C_MPU6050_CLEAR_REG));
 108:.\Generated_Source\PSoC4/I2C_MPU6050_I2C.c **** 
 109:.\Generated_Source\PSoC4/I2C_MPU6050_I2C.c **** 
 110:.\Generated_Source\PSoC4/I2C_MPU6050_I2C.c ****             /* Configure TX direction */
 111:.\Generated_Source\PSoC4/I2C_MPU6050_I2C.c ****             I2C_MPU6050_TX_CTRL_REG      = I2C_MPU6050_I2C_TX_CTRL;
 112:.\Generated_Source\PSoC4/I2C_MPU6050_I2C.c ****             I2C_MPU6050_TX_FIFO_CTRL_REG = I2C_MPU6050_CLEAR_REG;
 113:.\Generated_Source\PSoC4/I2C_MPU6050_I2C.c **** 
 114:.\Generated_Source\PSoC4/I2C_MPU6050_I2C.c ****             /* Configure interrupt with I2C handler but do not enable it */
 115:.\Generated_Source\PSoC4/I2C_MPU6050_I2C.c ****             CyIntDisable    (I2C_MPU6050_ISR_NUMBER);
 116:.\Generated_Source\PSoC4/I2C_MPU6050_I2C.c ****             CyIntSetPriority(I2C_MPU6050_ISR_NUMBER, I2C_MPU6050_ISR_PRIORITY);
 117:.\Generated_Source\PSoC4/I2C_MPU6050_I2C.c ****             (void) CyIntSetVector(I2C_MPU6050_ISR_NUMBER, &I2C_MPU6050_I2C_ISR);
 118:.\Generated_Source\PSoC4/I2C_MPU6050_I2C.c **** 
 119:.\Generated_Source\PSoC4/I2C_MPU6050_I2C.c ****             /* Configure interrupt sources */
 120:.\Generated_Source\PSoC4/I2C_MPU6050_I2C.c ****         #if(!I2C_MPU6050_CY_SCBIP_V1_I2C_ONLY)
 121:.\Generated_Source\PSoC4/I2C_MPU6050_I2C.c ****             I2C_MPU6050_INTR_SPI_EC_MASK_REG = I2C_MPU6050_NO_INTR_SOURCES;
 122:.\Generated_Source\PSoC4/I2C_MPU6050_I2C.c ****         #endif /* (!I2C_MPU6050_CY_SCBIP_V1_I2C_ONLY) */
 123:.\Generated_Source\PSoC4/I2C_MPU6050_I2C.c **** 
 124:.\Generated_Source\PSoC4/I2C_MPU6050_I2C.c ****             I2C_MPU6050_INTR_I2C_EC_MASK_REG = I2C_MPU6050_NO_INTR_SOURCES;
 125:.\Generated_Source\PSoC4/I2C_MPU6050_I2C.c ****             I2C_MPU6050_INTR_RX_MASK_REG     = I2C_MPU6050_NO_INTR_SOURCES;
 126:.\Generated_Source\PSoC4/I2C_MPU6050_I2C.c ****             I2C_MPU6050_INTR_TX_MASK_REG     = I2C_MPU6050_NO_INTR_SOURCES;
 127:.\Generated_Source\PSoC4/I2C_MPU6050_I2C.c **** 
 128:.\Generated_Source\PSoC4/I2C_MPU6050_I2C.c ****             I2C_MPU6050_INTR_SLAVE_MASK_REG  = ((I2C_MPU6050_I2C_SLAVE) ?
 129:.\Generated_Source\PSoC4/I2C_MPU6050_I2C.c ****                                                      (I2C_MPU6050_I2C_INTR_SLAVE_MASK) :
 130:.\Generated_Source\PSoC4/I2C_MPU6050_I2C.c ****                                                      (I2C_MPU6050_CLEAR_REG));
 131:.\Generated_Source\PSoC4/I2C_MPU6050_I2C.c **** 
 132:.\Generated_Source\PSoC4/I2C_MPU6050_I2C.c ****             I2C_MPU6050_INTR_MASTER_MASK_REG = ((I2C_MPU6050_I2C_MASTER) ?
 133:.\Generated_Source\PSoC4/I2C_MPU6050_I2C.c ****                                                      (I2C_MPU6050_I2C_INTR_MASTER_MASK) :
 134:.\Generated_Source\PSoC4/I2C_MPU6050_I2C.c ****                                                      (I2C_MPU6050_CLEAR_REG));
 135:.\Generated_Source\PSoC4/I2C_MPU6050_I2C.c **** 
 136:.\Generated_Source\PSoC4/I2C_MPU6050_I2C.c ****             /* Configure global variables */
 137:.\Generated_Source\PSoC4/I2C_MPU6050_I2C.c ****             I2C_MPU6050_state = I2C_MPU6050_I2C_FSM_IDLE;
 138:.\Generated_Source\PSoC4/I2C_MPU6050_I2C.c **** 
 139:.\Generated_Source\PSoC4/I2C_MPU6050_I2C.c ****             /* Internal slave variables */
 140:.\Generated_Source\PSoC4/I2C_MPU6050_I2C.c ****             I2C_MPU6050_slStatus        = 0u;
 141:.\Generated_Source\PSoC4/I2C_MPU6050_I2C.c ****             I2C_MPU6050_slRdBufIndex    = 0u;
 142:.\Generated_Source\PSoC4/I2C_MPU6050_I2C.c ****             I2C_MPU6050_slWrBufIndex    = 0u;
 143:.\Generated_Source\PSoC4/I2C_MPU6050_I2C.c ****             I2C_MPU6050_slOverFlowCount = 0u;
 144:.\Generated_Source\PSoC4/I2C_MPU6050_I2C.c **** 
 145:.\Generated_Source\PSoC4/I2C_MPU6050_I2C.c ****             /* Internal master variables */
ARM GAS  C:\Users\Sam\AppData\Local\Temp\ccvA4cr3.s 			page 4


 146:.\Generated_Source\PSoC4/I2C_MPU6050_I2C.c ****             I2C_MPU6050_mstrStatus     = 0u;
 147:.\Generated_Source\PSoC4/I2C_MPU6050_I2C.c ****             I2C_MPU6050_mstrRdBufIndex = 0u;
 148:.\Generated_Source\PSoC4/I2C_MPU6050_I2C.c ****             I2C_MPU6050_mstrWrBufIndex = 0u;
 149:.\Generated_Source\PSoC4/I2C_MPU6050_I2C.c ****         }
 150:.\Generated_Source\PSoC4/I2C_MPU6050_I2C.c ****     }
 151:.\Generated_Source\PSoC4/I2C_MPU6050_I2C.c **** 
 152:.\Generated_Source\PSoC4/I2C_MPU6050_I2C.c **** #else
 153:.\Generated_Source\PSoC4/I2C_MPU6050_I2C.c **** 
 154:.\Generated_Source\PSoC4/I2C_MPU6050_I2C.c ****     /*******************************************************************************
 155:.\Generated_Source\PSoC4/I2C_MPU6050_I2C.c ****     * Function Name: I2C_MPU6050_I2CInit
 156:.\Generated_Source\PSoC4/I2C_MPU6050_I2C.c ****     ********************************************************************************
 157:.\Generated_Source\PSoC4/I2C_MPU6050_I2C.c ****     *
 158:.\Generated_Source\PSoC4/I2C_MPU6050_I2C.c ****     * Summary:
 159:.\Generated_Source\PSoC4/I2C_MPU6050_I2C.c ****     *  Configures the SCB for the I2C operation.
 160:.\Generated_Source\PSoC4/I2C_MPU6050_I2C.c ****     *
 161:.\Generated_Source\PSoC4/I2C_MPU6050_I2C.c ****     * Parameters:
 162:.\Generated_Source\PSoC4/I2C_MPU6050_I2C.c ****     *  None
 163:.\Generated_Source\PSoC4/I2C_MPU6050_I2C.c ****     *
 164:.\Generated_Source\PSoC4/I2C_MPU6050_I2C.c ****     * Return:
 165:.\Generated_Source\PSoC4/I2C_MPU6050_I2C.c ****     *  None
 166:.\Generated_Source\PSoC4/I2C_MPU6050_I2C.c ****     *
 167:.\Generated_Source\PSoC4/I2C_MPU6050_I2C.c ****     *******************************************************************************/
 168:.\Generated_Source\PSoC4/I2C_MPU6050_I2C.c ****     void I2C_MPU6050_I2CInit(void)
 169:.\Generated_Source\PSoC4/I2C_MPU6050_I2C.c ****     {
  27              		.loc 1 169 0
  28              		.cfi_startproc
  29 0000 80B5     		push	{r7, lr}
  30              	.LCFI0:
  31              		.cfi_def_cfa_offset 8
  32              		.cfi_offset 7, -8
  33              		.cfi_offset 14, -4
  34 0002 00AF     		add	r7, sp, #0
  35              	.LCFI1:
  36              		.cfi_def_cfa_register 7
 170:.\Generated_Source\PSoC4/I2C_MPU6050_I2C.c ****         /* Configure I2C interface */
 171:.\Generated_Source\PSoC4/I2C_MPU6050_I2C.c ****         I2C_MPU6050_CTRL_REG     = I2C_MPU6050_I2C_DEFAULT_CTRL;
  37              		.loc 1 171 0
  38 0004 234B     		ldr	r3, .L2
  39 0006 0022     		mov	r2, #0
  40 0008 1A60     		str	r2, [r3]
 172:.\Generated_Source\PSoC4/I2C_MPU6050_I2C.c ****         I2C_MPU6050_I2C_CTRL_REG = I2C_MPU6050_I2C_DEFAULT_I2C_CTRL;
  41              		.loc 1 172 0
  42 000a 234B     		ldr	r3, .L2+4
  43 000c 234A     		ldr	r2, .L2+8
  44 000e 1A60     		str	r2, [r3]
 173:.\Generated_Source\PSoC4/I2C_MPU6050_I2C.c **** 
 174:.\Generated_Source\PSoC4/I2C_MPU6050_I2C.c ****     #if(I2C_MPU6050_CY_SCBIP_V0)
 175:.\Generated_Source\PSoC4/I2C_MPU6050_I2C.c ****         /* Adjust SDA filter settings. Ticket ID#150521 */
 176:.\Generated_Source\PSoC4/I2C_MPU6050_I2C.c ****         I2C_MPU6050_SET_I2C_CFG_SDA_FILT_TRIM(I2C_MPU6050_EC_AM_I2C_CFG_SDA_FILT_TRIM);
  45              		.loc 1 176 0
  46 0010 234B     		ldr	r3, .L2+12
  47 0012 234A     		ldr	r2, .L2+12
  48 0014 1268     		ldr	r2, [r2]
  49 0016 0C21     		mov	r1, #12
  50 0018 0A43     		orr	r2, r1
  51 001a 1A60     		str	r2, [r3]
 177:.\Generated_Source\PSoC4/I2C_MPU6050_I2C.c ****     #endif /* (I2C_MPU6050_CY_SCBIP_V0) */
ARM GAS  C:\Users\Sam\AppData\Local\Temp\ccvA4cr3.s 			page 5


 178:.\Generated_Source\PSoC4/I2C_MPU6050_I2C.c **** 
 179:.\Generated_Source\PSoC4/I2C_MPU6050_I2C.c ****         /* Configure RX direction */
 180:.\Generated_Source\PSoC4/I2C_MPU6050_I2C.c ****         I2C_MPU6050_RX_CTRL_REG      = I2C_MPU6050_I2C_DEFAULT_RX_CTRL;
  52              		.loc 1 180 0
  53 001c 214B     		ldr	r3, .L2+16
  54 001e 224A     		ldr	r2, .L2+20
  55 0020 1A60     		str	r2, [r3]
 181:.\Generated_Source\PSoC4/I2C_MPU6050_I2C.c ****         I2C_MPU6050_RX_FIFO_CTRL_REG = I2C_MPU6050_I2C_DEFAULT_RX_FIFO_CTRL;
  56              		.loc 1 181 0
  57 0022 224B     		ldr	r3, .L2+24
  58 0024 0022     		mov	r2, #0
  59 0026 1A60     		str	r2, [r3]
 182:.\Generated_Source\PSoC4/I2C_MPU6050_I2C.c **** 
 183:.\Generated_Source\PSoC4/I2C_MPU6050_I2C.c ****         /* Set default address and mask */
 184:.\Generated_Source\PSoC4/I2C_MPU6050_I2C.c ****         I2C_MPU6050_RX_MATCH_REG     = I2C_MPU6050_I2C_DEFAULT_RX_MATCH;
  60              		.loc 1 184 0
  61 0028 214B     		ldr	r3, .L2+28
  62 002a 0022     		mov	r2, #0
  63 002c 1A60     		str	r2, [r3]
 185:.\Generated_Source\PSoC4/I2C_MPU6050_I2C.c **** 
 186:.\Generated_Source\PSoC4/I2C_MPU6050_I2C.c ****         /* Configure TX direction */
 187:.\Generated_Source\PSoC4/I2C_MPU6050_I2C.c ****         I2C_MPU6050_TX_CTRL_REG      = I2C_MPU6050_I2C_DEFAULT_TX_CTRL;
  64              		.loc 1 187 0
  65 002e 214B     		ldr	r3, .L2+32
  66 0030 214A     		ldr	r2, .L2+36
  67 0032 1A60     		str	r2, [r3]
 188:.\Generated_Source\PSoC4/I2C_MPU6050_I2C.c ****         I2C_MPU6050_TX_FIFO_CTRL_REG = I2C_MPU6050_I2C_DEFAULT_TX_FIFO_CTRL;
  68              		.loc 1 188 0
  69 0034 214B     		ldr	r3, .L2+40
  70 0036 0022     		mov	r2, #0
  71 0038 1A60     		str	r2, [r3]
 189:.\Generated_Source\PSoC4/I2C_MPU6050_I2C.c **** 
 190:.\Generated_Source\PSoC4/I2C_MPU6050_I2C.c ****         /* Configure interrupt with I2C handler but do not enable it */
 191:.\Generated_Source\PSoC4/I2C_MPU6050_I2C.c ****         CyIntDisable    (I2C_MPU6050_ISR_NUMBER);
  72              		.loc 1 191 0
  73 003a 0B20     		mov	r0, #11
  74 003c FFF7FEFF 		bl	CyIntDisable
 192:.\Generated_Source\PSoC4/I2C_MPU6050_I2C.c ****         CyIntSetPriority(I2C_MPU6050_ISR_NUMBER, I2C_MPU6050_ISR_PRIORITY);
  75              		.loc 1 192 0
  76 0040 0B20     		mov	r0, #11
  77 0042 0321     		mov	r1, #3
  78 0044 FFF7FEFF 		bl	CyIntSetPriority
 193:.\Generated_Source\PSoC4/I2C_MPU6050_I2C.c ****     #if(!I2C_MPU6050_I2C_EXTERN_INTR_HANDLER)
 194:.\Generated_Source\PSoC4/I2C_MPU6050_I2C.c ****         (void) CyIntSetVector(I2C_MPU6050_ISR_NUMBER, &I2C_MPU6050_I2C_ISR);
  79              		.loc 1 194 0
  80 0048 1D4B     		ldr	r3, .L2+44
  81 004a 0B20     		mov	r0, #11
  82 004c 191C     		mov	r1, r3
  83 004e FFF7FEFF 		bl	CyIntSetVector
 195:.\Generated_Source\PSoC4/I2C_MPU6050_I2C.c ****     #endif /* (I2C_MPU6050_I2C_EXTERN_INTR_HANDLER) */
 196:.\Generated_Source\PSoC4/I2C_MPU6050_I2C.c **** 
 197:.\Generated_Source\PSoC4/I2C_MPU6050_I2C.c ****         /* Configure interrupt sources */
 198:.\Generated_Source\PSoC4/I2C_MPU6050_I2C.c ****     #if(!I2C_MPU6050_CY_SCBIP_V1_I2C_ONLY)
 199:.\Generated_Source\PSoC4/I2C_MPU6050_I2C.c ****         I2C_MPU6050_INTR_SPI_EC_MASK_REG = I2C_MPU6050_I2C_DEFAULT_INTR_SPI_EC_MASK;
  84              		.loc 1 199 0
  85 0052 1C4B     		ldr	r3, .L2+48
  86 0054 0022     		mov	r2, #0
ARM GAS  C:\Users\Sam\AppData\Local\Temp\ccvA4cr3.s 			page 6


  87 0056 1A60     		str	r2, [r3]
 200:.\Generated_Source\PSoC4/I2C_MPU6050_I2C.c ****     #endif /* (!I2C_MPU6050_CY_SCBIP_V1_I2C_ONLY) */
 201:.\Generated_Source\PSoC4/I2C_MPU6050_I2C.c **** 
 202:.\Generated_Source\PSoC4/I2C_MPU6050_I2C.c ****         I2C_MPU6050_INTR_I2C_EC_MASK_REG = I2C_MPU6050_I2C_DEFAULT_INTR_I2C_EC_MASK;
  88              		.loc 1 202 0
  89 0058 1B4B     		ldr	r3, .L2+52
  90 005a 0022     		mov	r2, #0
  91 005c 1A60     		str	r2, [r3]
 203:.\Generated_Source\PSoC4/I2C_MPU6050_I2C.c ****         I2C_MPU6050_INTR_SLAVE_MASK_REG  = I2C_MPU6050_I2C_DEFAULT_INTR_SLAVE_MASK;
  92              		.loc 1 203 0
  93 005e 1B4B     		ldr	r3, .L2+56
  94 0060 0022     		mov	r2, #0
  95 0062 1A60     		str	r2, [r3]
 204:.\Generated_Source\PSoC4/I2C_MPU6050_I2C.c ****         I2C_MPU6050_INTR_MASTER_MASK_REG = I2C_MPU6050_I2C_DEFAULT_INTR_MASTER_MASK;
  96              		.loc 1 204 0
  97 0064 1A4B     		ldr	r3, .L2+60
  98 0066 1B4A     		ldr	r2, .L2+64
  99 0068 1A60     		str	r2, [r3]
 205:.\Generated_Source\PSoC4/I2C_MPU6050_I2C.c ****         I2C_MPU6050_INTR_RX_MASK_REG     = I2C_MPU6050_I2C_DEFAULT_INTR_RX_MASK;
 100              		.loc 1 205 0
 101 006a 1B4B     		ldr	r3, .L2+68
 102 006c 0022     		mov	r2, #0
 103 006e 1A60     		str	r2, [r3]
 206:.\Generated_Source\PSoC4/I2C_MPU6050_I2C.c ****         I2C_MPU6050_INTR_TX_MASK_REG     = I2C_MPU6050_I2C_DEFAULT_INTR_TX_MASK;
 104              		.loc 1 206 0
 105 0070 1A4B     		ldr	r3, .L2+72
 106 0072 0022     		mov	r2, #0
 107 0074 1A60     		str	r2, [r3]
 207:.\Generated_Source\PSoC4/I2C_MPU6050_I2C.c **** 
 208:.\Generated_Source\PSoC4/I2C_MPU6050_I2C.c ****         /* Configure global variables */
 209:.\Generated_Source\PSoC4/I2C_MPU6050_I2C.c ****         I2C_MPU6050_state = I2C_MPU6050_I2C_FSM_IDLE;
 108              		.loc 1 209 0
 109 0076 1A4B     		ldr	r3, .L2+76
 110 0078 1022     		mov	r2, #16
 111 007a 1A70     		strb	r2, [r3]
 210:.\Generated_Source\PSoC4/I2C_MPU6050_I2C.c **** 
 211:.\Generated_Source\PSoC4/I2C_MPU6050_I2C.c ****     #if(I2C_MPU6050_I2C_SLAVE)
 212:.\Generated_Source\PSoC4/I2C_MPU6050_I2C.c ****         /* Internal slave variable */
 213:.\Generated_Source\PSoC4/I2C_MPU6050_I2C.c ****         I2C_MPU6050_slStatus        = 0u;
 214:.\Generated_Source\PSoC4/I2C_MPU6050_I2C.c ****         I2C_MPU6050_slRdBufIndex    = 0u;
 215:.\Generated_Source\PSoC4/I2C_MPU6050_I2C.c ****         I2C_MPU6050_slWrBufIndex    = 0u;
 216:.\Generated_Source\PSoC4/I2C_MPU6050_I2C.c ****         I2C_MPU6050_slOverFlowCount = 0u;
 217:.\Generated_Source\PSoC4/I2C_MPU6050_I2C.c ****     #endif /* (I2C_MPU6050_I2C_SLAVE) */
 218:.\Generated_Source\PSoC4/I2C_MPU6050_I2C.c **** 
 219:.\Generated_Source\PSoC4/I2C_MPU6050_I2C.c ****     #if(I2C_MPU6050_I2C_MASTER)
 220:.\Generated_Source\PSoC4/I2C_MPU6050_I2C.c ****     /* Internal master variable */
 221:.\Generated_Source\PSoC4/I2C_MPU6050_I2C.c ****         I2C_MPU6050_mstrStatus     = 0u;
 112              		.loc 1 221 0
 113 007c 194B     		ldr	r3, .L2+80
 114 007e 0022     		mov	r2, #0
 115 0080 1A80     		strh	r2, [r3]
 222:.\Generated_Source\PSoC4/I2C_MPU6050_I2C.c ****         I2C_MPU6050_mstrRdBufIndex = 0u;
 116              		.loc 1 222 0
 117 0082 194B     		ldr	r3, .L2+84
 118 0084 0022     		mov	r2, #0
 119 0086 1A60     		str	r2, [r3]
 223:.\Generated_Source\PSoC4/I2C_MPU6050_I2C.c ****         I2C_MPU6050_mstrWrBufIndex = 0u;
ARM GAS  C:\Users\Sam\AppData\Local\Temp\ccvA4cr3.s 			page 7


 120              		.loc 1 223 0
 121 0088 184B     		ldr	r3, .L2+88
 122 008a 0022     		mov	r2, #0
 123 008c 1A60     		str	r2, [r3]
 224:.\Generated_Source\PSoC4/I2C_MPU6050_I2C.c ****     #endif /* (I2C_MPU6050_I2C_MASTER) */
 225:.\Generated_Source\PSoC4/I2C_MPU6050_I2C.c ****     }
 124              		.loc 1 225 0
 125 008e BD46     		mov	sp, r7
 126              		@ sp needed for prologue
 127 0090 80BD     		pop	{r7, pc}
 128              	.L3:
 129 0092 C046     		.align	2
 130              	.L2:
 131 0094 00000740 		.word	1074200576
 132 0098 60000740 		.word	1074200672
 133 009c 77080080 		.word	-2147481481
 134 00a0 70000740 		.word	1074200688
 135 00a4 00030740 		.word	1074201344
 136 00a8 07030080 		.word	-2147482873
 137 00ac 04030740 		.word	1074201348
 138 00b0 10030740 		.word	1074201360
 139 00b4 00020740 		.word	1074201088
 140 00b8 07010080 		.word	-2147483385
 141 00bc 04020740 		.word	1074201092
 142 00c0 00000000 		.word	I2C_MPU6050_I2C_ISR
 143 00c4 C80E0740 		.word	1074204360
 144 00c8 880E0740 		.word	1074204296
 145 00cc 480F0740 		.word	1074204488
 146 00d0 080F0740 		.word	1074204424
 147 00d4 13010000 		.word	275
 148 00d8 C80F0740 		.word	1074204616
 149 00dc 880F0740 		.word	1074204552
 150 00e0 00000000 		.word	I2C_MPU6050_state
 151 00e4 00000000 		.word	I2C_MPU6050_mstrStatus
 152 00e8 00000000 		.word	I2C_MPU6050_mstrRdBufIndex
 153 00ec 00000000 		.word	I2C_MPU6050_mstrWrBufIndex
 154              		.cfi_endproc
 155              	.LFE0:
 156              		.size	I2C_MPU6050_I2CInit, .-I2C_MPU6050_I2CInit
 157              		.section	.text.I2C_MPU6050_I2CStop,"ax",%progbits
 158              		.align	2
 159              		.global	I2C_MPU6050_I2CStop
 160              		.code	16
 161              		.thumb_func
 162              		.type	I2C_MPU6050_I2CStop, %function
 163              	I2C_MPU6050_I2CStop:
 164              	.LFB1:
 226:.\Generated_Source\PSoC4/I2C_MPU6050_I2C.c **** #endif /* (I2C_MPU6050_SCB_MODE_UNCONFIG_CONST_CFG) */
 227:.\Generated_Source\PSoC4/I2C_MPU6050_I2C.c **** 
 228:.\Generated_Source\PSoC4/I2C_MPU6050_I2C.c **** 
 229:.\Generated_Source\PSoC4/I2C_MPU6050_I2C.c **** /*******************************************************************************
 230:.\Generated_Source\PSoC4/I2C_MPU6050_I2C.c **** * Function Name: I2C_MPU6050_I2CStop
 231:.\Generated_Source\PSoC4/I2C_MPU6050_I2C.c **** ********************************************************************************
 232:.\Generated_Source\PSoC4/I2C_MPU6050_I2C.c **** *
 233:.\Generated_Source\PSoC4/I2C_MPU6050_I2C.c **** * Summary:
 234:.\Generated_Source\PSoC4/I2C_MPU6050_I2C.c **** *  Resets the I2C FSM into the default state and disables TX interrupt sources.
 235:.\Generated_Source\PSoC4/I2C_MPU6050_I2C.c **** *
ARM GAS  C:\Users\Sam\AppData\Local\Temp\ccvA4cr3.s 			page 8


 236:.\Generated_Source\PSoC4/I2C_MPU6050_I2C.c **** * Parameters:
 237:.\Generated_Source\PSoC4/I2C_MPU6050_I2C.c **** *  None
 238:.\Generated_Source\PSoC4/I2C_MPU6050_I2C.c **** *
 239:.\Generated_Source\PSoC4/I2C_MPU6050_I2C.c **** * Return:
 240:.\Generated_Source\PSoC4/I2C_MPU6050_I2C.c **** *  None
 241:.\Generated_Source\PSoC4/I2C_MPU6050_I2C.c **** *
 242:.\Generated_Source\PSoC4/I2C_MPU6050_I2C.c **** * Global variables:
 243:.\Generated_Source\PSoC4/I2C_MPU6050_I2C.c **** *
 244:.\Generated_Source\PSoC4/I2C_MPU6050_I2C.c **** *
 245:.\Generated_Source\PSoC4/I2C_MPU6050_I2C.c **** *******************************************************************************/
 246:.\Generated_Source\PSoC4/I2C_MPU6050_I2C.c **** void I2C_MPU6050_I2CStop(void)
 247:.\Generated_Source\PSoC4/I2C_MPU6050_I2C.c **** {
 165              		.loc 1 247 0
 166              		.cfi_startproc
 167 0000 80B5     		push	{r7, lr}
 168              	.LCFI2:
 169              		.cfi_def_cfa_offset 8
 170              		.cfi_offset 7, -8
 171              		.cfi_offset 14, -4
 172 0002 00AF     		add	r7, sp, #0
 173              	.LCFI3:
 174              		.cfi_def_cfa_register 7
 248:.\Generated_Source\PSoC4/I2C_MPU6050_I2C.c ****     /* Disable TX interrupt sources in order not to cause a false trigger.
 249:.\Generated_Source\PSoC4/I2C_MPU6050_I2C.c ****     * The incoming transaction will enable an appropriate TX interrupt.
 250:.\Generated_Source\PSoC4/I2C_MPU6050_I2C.c ****     */
 251:.\Generated_Source\PSoC4/I2C_MPU6050_I2C.c ****     I2C_MPU6050_SetTxInterruptMode(I2C_MPU6050_NO_INTR_SOURCES);
 175              		.loc 1 251 0
 176 0004 054B     		ldr	r3, .L5
 177 0006 0022     		mov	r2, #0
 178 0008 1A60     		str	r2, [r3]
 252:.\Generated_Source\PSoC4/I2C_MPU6050_I2C.c **** 
 253:.\Generated_Source\PSoC4/I2C_MPU6050_I2C.c **** #if(I2C_MPU6050_CY_SCBIP_V0)
 254:.\Generated_Source\PSoC4/I2C_MPU6050_I2C.c ****     /* Clear pending interrupt as TX FIFO becomes empty and block does not gate interrupt trigger w
 255:.\Generated_Source\PSoC4/I2C_MPU6050_I2C.c ****     I2C_MPU6050_ClearPendingInt();
 179              		.loc 1 255 0
 180 000a 0B20     		mov	r0, #11
 181 000c FFF7FEFF 		bl	CyIntClearPending
 256:.\Generated_Source\PSoC4/I2C_MPU6050_I2C.c **** #endif /* (I2C_MPU6050_CY_SCBIP_V0) */
 257:.\Generated_Source\PSoC4/I2C_MPU6050_I2C.c **** 
 258:.\Generated_Source\PSoC4/I2C_MPU6050_I2C.c ****     I2C_MPU6050_state = I2C_MPU6050_I2C_FSM_IDLE;
 182              		.loc 1 258 0
 183 0010 034B     		ldr	r3, .L5+4
 184 0012 1022     		mov	r2, #16
 185 0014 1A70     		strb	r2, [r3]
 259:.\Generated_Source\PSoC4/I2C_MPU6050_I2C.c **** }
 186              		.loc 1 259 0
 187 0016 BD46     		mov	sp, r7
 188              		@ sp needed for prologue
 189 0018 80BD     		pop	{r7, pc}
 190              	.L6:
 191 001a C046     		.align	2
 192              	.L5:
 193 001c 880F0740 		.word	1074204552
 194 0020 00000000 		.word	I2C_MPU6050_state
 195              		.cfi_endproc
 196              	.LFE1:
 197              		.size	I2C_MPU6050_I2CStop, .-I2C_MPU6050_I2CStop
ARM GAS  C:\Users\Sam\AppData\Local\Temp\ccvA4cr3.s 			page 9


 198              		.text
 199              	.Letext0:
 200              		.file 2 "./Generated_Source/PSoC4/cytypes.h"
 201              		.file 3 ".\\Generated_Source\\PSoC4\\I2C_MPU6050_I2C_PVT.h"