ARM GAS  C:\Users\Sam\AppData\Local\Temp\cc8VECRN.s 			page 1


   1              		.cpu cortex-m0
   2              		.fpu softvfp
   3              		.eabi_attribute 20, 1
   4              		.eabi_attribute 21, 1
   5              		.eabi_attribute 23, 3
   6              		.eabi_attribute 24, 1
   7              		.eabi_attribute 25, 1
   8              		.eabi_attribute 26, 1
   9              		.eabi_attribute 30, 6
  10              		.eabi_attribute 34, 0
  11              		.eabi_attribute 18, 4
  12              		.code	16
  13              		.file	"interrupts.c"
  14              		.text
  15              	.Ltext0:
  16              		.cfi_sections	.debug_frame
  17              		.section	.text.uartInterrupt,"ax",%progbits
  18              		.align	2
  19              		.global	uartInterrupt
  20              		.code	16
  21              		.thumb_func
  22              		.type	uartInterrupt, %function
  23              	uartInterrupt:
  24              	.LFB33:
  25              		.file 1 ".\\interrupts.c"
   1:.\interrupts.c **** /* ========================================
   2:.\interrupts.c ****  *
   3:.\interrupts.c ****  * Copyright YOUR COMPANY, THE YEAR
   4:.\interrupts.c ****  * All Rights Reserved
   5:.\interrupts.c ****  * UNPUBLISHED, LICENSED SOFTWARE.
   6:.\interrupts.c ****  *
   7:.\interrupts.c ****  * CONFIDENTIAL AND PROPRIETARY INFORMATION
   8:.\interrupts.c ****  * WHICH IS THE PROPERTY OF your company.
   9:.\interrupts.c ****  *
  10:.\interrupts.c ****  * ========================================
  11:.\interrupts.c **** */
  12:.\interrupts.c **** #include <project.h>
  13:.\interrupts.c **** #include <interrupts.h>
  14:.\interrupts.c **** 
  15:.\interrupts.c **** extern uint8 flag;
  16:.\interrupts.c **** 
  17:.\interrupts.c **** CY_ISR(uartInterrupt)
  18:.\interrupts.c **** {
  26              		.loc 1 18 0
  27              		.cfi_startproc
  28 0000 80B5     		push	{r7, lr}
  29              	.LCFI0:
  30              		.cfi_def_cfa_offset 8
  31              		.cfi_offset 7, -8
  32              		.cfi_offset 14, -4
  33 0002 82B0     		sub	sp, sp, #8
  34              	.LCFI1:
  35              		.cfi_def_cfa_offset 16
  36 0004 00AF     		add	r7, sp, #0
  37              	.LCFI2:
  38              		.cfi_def_cfa_register 7
  19:.\interrupts.c ****     uint32 source = 0;
ARM GAS  C:\Users\Sam\AppData\Local\Temp\cc8VECRN.s 			page 2


  39              		.loc 1 19 0
  40 0006 0023     		mov	r3, #0
  41 0008 7B60     		str	r3, [r7, #4]
  20:.\interrupts.c ****     /*  Place your Interrupt code here. */
  21:.\interrupts.c ****     /* `#START UART_RX_ISR_Interrupt` */
  22:.\interrupts.c ****     
  23:.\interrupts.c ****     flag = 1; 
  42              		.loc 1 23 0
  43 000a 064B     		ldr	r3, .L2
  44 000c 0122     		mov	r2, #1
  45 000e 1A70     		strb	r2, [r3]
  24:.\interrupts.c ****     
  25:.\interrupts.c ****     source = UART_GetRxInterruptSourceMasked();
  46              		.loc 1 25 0
  47 0010 054B     		ldr	r3, .L2+4
  48 0012 1B68     		ldr	r3, [r3]
  49 0014 7B60     		str	r3, [r7, #4]
  26:.\interrupts.c ****     UART_ClearRxInterruptSource(source);
  50              		.loc 1 26 0
  51 0016 054B     		ldr	r3, .L2+8
  52 0018 7A68     		ldr	r2, [r7, #4]
  53 001a 1A60     		str	r2, [r3]
  27:.\interrupts.c **** 
  28:.\interrupts.c ****     /* `#END` */
  29:.\interrupts.c **** }
  54              		.loc 1 29 0
  55 001c BD46     		mov	sp, r7
  56 001e 02B0     		add	sp, sp, #8
  57              		@ sp needed for prologue
  58 0020 80BD     		pop	{r7, pc}
  59              	.L3:
  60 0022 C046     		.align	2
  61              	.L2:
  62 0024 00000000 		.word	flag
  63 0028 CC0F0640 		.word	1074139084
  64 002c C00F0640 		.word	1074139072
  65              		.cfi_endproc
  66              	.LFE33:
  67              		.size	uartInterrupt, .-uartInterrupt
  68              		.text
  69              	.Letext0:
  70              		.file 2 "./Generated_Source/PSoC4/cytypes.h"