ARM GAS  C:\Users\Sam\AppData\Local\Temp\ccBzy2Kj.s 			page 1


   1              		.cpu cortex-m0
   2              		.fpu softvfp
   3              		.eabi_attribute 20, 1
   4              		.eabi_attribute 21, 1
   5              		.eabi_attribute 23, 3
   6              		.eabi_attribute 24, 1
   7              		.eabi_attribute 25, 1
   8              		.eabi_attribute 26, 1
   9              		.eabi_attribute 30, 6
  10              		.eabi_attribute 34, 0
  11              		.eabi_attribute 18, 4
  12              		.code	16
  13              		.file	"main.c"
  14              		.text
  15              	.Ltext0:
  16              		.cfi_sections	.debug_frame
  17              		.comm	devAddr,1,1
  18              		.comm	buffer,22,4
  19              		.global	flag
  20              		.bss
  21              		.type	flag, %object
  22              		.size	flag, 1
  23              	flag:
  24 0000 00       		.space	1
  25              		.comm	buf,200,4
  26              		.comm	Abuf,200,4
  27              		.comm	Gbuf,200,4
  28              		.comm	RPbuf,200,4
  29              		.global	i
  30 0001 000000   		.align	2
  31              		.type	i, %object
  32              		.size	i, 4
  33              	i:
  34 0004 00000000 		.space	4
  35              		.comm	CAX,2,2
  36              		.comm	CAY,2,2
  37              		.comm	CAZ,2,2
  38              		.comm	CGX,2,2
  39              		.comm	CGY,2,2
  40              		.comm	CGZ,2,2
  41              		.comm	CT,2,2
  42              		.comm	AXoff,4,4
  43              		.comm	AYoff,4,4
  44              		.comm	AZoff,4,4
  45              		.comm	GXoff,4,4
  46              		.comm	GYoff,4,4
  47              		.comm	GZoff,4,4
  48              		.comm	AX,4,4
  49              		.comm	AY,4,4
  50              		.comm	AZ,4,4
  51              		.comm	GX,4,4
  52              		.comm	GY,4,4
  53              		.comm	GZ,4,4
  54              		.comm	Roll,4,4
  55              		.comm	Pitch,4,4
  56              		.comm	Yaw,4,4
  57              		.section	.rodata
ARM GAS  C:\Users\Sam\AppData\Local\Temp\ccBzy2Kj.s 			page 2


  58              		.align	2
  59              	.LC1:
  60 0000 55415254 		.ascii	"UART Initialised\000"
  60      20496E69 
  60      7469616C 
  60      69736564 
  60      00
  61 0011 000000   		.align	2
  62              	.LC3:
  63 0014 4D505536 		.ascii	"MPU6050 connection successful\012\015\000"
  63      30353020 
  63      636F6E6E 
  63      65637469 
  63      6F6E2073 
  64              		.align	2
  65              	.LC5:
  66 0034 4D505536 		.ascii	"MPU6050 connection failed\012\012\015\000"
  66      30353020 
  66      636F6E6E 
  66      65637469 
  66      6F6E2066 
  67 0051 000000   		.align	2
  68              	.LC7:
  69 0054 53746172 		.ascii	"Starting to calibrate values from sensor..\012\015\000"
  69      74696E67 
  69      20746F20 
  69      63616C69 
  69      62726174 
  70              		.global	__aeabi_i2f
  71              		.global	__aeabi_fsub
  72              		.global	__aeabi_fdiv
  73              		.global	__aeabi_f2d
  74              		.global	__aeabi_ddiv
  75              		.global	__aeabi_d2f
  76              		.global	__aeabi_fmul
  77              		.global	__aeabi_fadd
  78 0081 000000   		.align	2
  79              	.LC31:
  80 0084 25662C25 		.ascii	"%f,%f,%f\011\015\012\000"
  80      662C2566 
  80      090D0A00 
  81              		.align	2
  82              	.LC35:
  83 0090 25662C25 		.ascii	"%f,%f\011\012\015\000"
  83      66090A0D 
  83      00
  84              		.section	.text.main,"ax",%progbits
  85              		.align	2
  86              		.global	main
  87              		.code	16
  88              		.thumb_func
  89              		.type	main, %function
  90              	main:
  91              	.LFB33:
  92              		.file 1 ".\\main.c"
   1:.\main.c      **** /* ========================================
   2:.\main.c      ****  *
ARM GAS  C:\Users\Sam\AppData\Local\Temp\ccBzy2Kj.s 			page 3


   3:.\main.c      ****  * Copyright YOUR COMPANY, THE YEAR
   4:.\main.c      ****  * All Rights Reserved
   5:.\main.c      ****  * UNPUBLISHED, LICENSED SOFTWARE.
   6:.\main.c      ****  *
   7:.\main.c      ****  * CONFIDENTIAL AND PROPRIETARY INFORMATION
   8:.\main.c      ****  * WHICH IS THE PROPERTY OF your company.
   9:.\main.c      ****  *
  10:.\main.c      ****  * ========================================
  11:.\main.c      **** */
  12:.\main.c      **** #include <project.h>
  13:.\main.c      **** #include <interrupts.h>
  14:.\main.c      **** #include <mpu6050.h>
  15:.\main.c      **** #include <stdio.h>
  16:.\main.c      **** #include <math.h>
  17:.\main.c      **** 
  18:.\main.c      **** #define forever 1
  19:.\main.c      **** #define numberOfTests   100
  20:.\main.c      **** 
  21:.\main.c      **** void calibrateOffsets(void);
  22:.\main.c      **** 
  23:.\main.c      **** uint8 flag = 0;
  24:.\main.c      **** 
  25:.\main.c      **** char buf[200];    //general buffer for messages
  26:.\main.c      **** char Abuf[200];   //to hold acceleration value text
  27:.\main.c      **** char Gbuf[200];   //to hold gyroscope value text
  28:.\main.c      **** char RPbuf[200]; //to hold roll,pitch,yaw text
  29:.\main.c      **** 
  30:.\main.c      **** int i = 0; //for loop increment variable
  31:.\main.c      ****    
  32:.\main.c      **** int16_t CAX, CAY, CAZ; //current acceleration values
  33:.\main.c      **** int16_t CGX, CGY, CGZ; //current gyroscope values
  34:.\main.c      **** int16_t CT;            //current temperature
  35:.\main.c      ****    
  36:.\main.c      **** float   AXoff, AYoff, AZoff; //accelerometer offset values
  37:.\main.c      **** float   GXoff, GYoff, GZoff; //gyroscope offset values
  38:.\main.c      **** 
  39:.\main.c      **** float   AX, AY, AZ; //acceleration floats
  40:.\main.c      **** float   GX, GY, GZ; //gyroscope floats
  41:.\main.c      **** 
  42:.\main.c      **** float   Roll,Pitch,Yaw;
  43:.\main.c      **** 
  44:.\main.c      **** int main()
  45:.\main.c      **** {
  93              		.loc 1 45 0
  94              		.cfi_startproc
  95 0000 B0B5     		push	{r4, r5, r7, lr}
  96              	.LCFI0:
  97              		.cfi_def_cfa_offset 16
  98              		.cfi_offset 4, -16
  99              		.cfi_offset 5, -12
 100              		.cfi_offset 7, -8
 101              		.cfi_offset 14, -4
 102 0002 8CB0     		sub	sp, sp, #48
 103              	.LCFI1:
 104              		.cfi_def_cfa_offset 64
 105 0004 04AF     		add	r7, sp, #16
 106              	.LCFI2:
ARM GAS  C:\Users\Sam\AppData\Local\Temp\ccBzy2Kj.s 			page 4


 107              		.cfi_def_cfa 7, 48
  46:.\main.c      ****     /* Place your initialization/startup code here (e.g. MyInst_Start()) */
  47:.\main.c      ****     uint8 volatile ch;  
  48:.\main.c      ****     /* Start the SCB UART */
  49:.\main.c      ****     UART_Start(); 
 108              		.loc 1 49 0
 109 0006 FFF7FEFF 		bl	UART_Start
  50:.\main.c      ****     /* Start the Interrupt */
  51:.\main.c      ****     UART_RX_ISR_StartEx(uartInterrupt);  
 110              		.loc 1 51 0
 111 000a EB4B     		ldr	r3, .L10+16
 112 000c 181C     		mov	r0, r3
 113 000e FFF7FEFF 		bl	UART_RX_ISR_StartEx
  52:.\main.c      ****     /* Transmit string through UART */
  53:.\main.c      ****     UART_UartPutString("UART Initialised");
 114              		.loc 1 53 0
 115 0012 EA4B     		ldr	r3, .L10+20
 116 0014 181C     		mov	r0, r3
 117 0016 FFF7FEFF 		bl	UART_UartPutString
  54:.\main.c      **** 
  55:.\main.c      ****     CyGlobalIntEnable; /* Uncomment this line to enable global interrupts. */
 118              		.loc 1 55 0
 119              	@ 55 ".\main.c" 1
 120 001a 62B6     		CPSIE   i
 121              	@ 0 "" 2
  56:.\main.c      ****     
  57:.\main.c      ****     I2C_MPU6050_Start();
 122              		.loc 1 57 0
 123              		.code	16
 124 001c FFF7FEFF 		bl	I2C_MPU6050_Start
  58:.\main.c      **** 
  59:.\main.c      **** 	MPU6050_init();
 125              		.loc 1 59 0
 126 0020 FFF7FEFF 		bl	MPU6050_init
  60:.\main.c      **** 	MPU6050_initialize();
 127              		.loc 1 60 0
 128 0024 FFF7FEFF 		bl	MPU6050_initialize
  61:.\main.c      **** 	UART_UartPutString(MPU6050_testConnection() ? "MPU6050 connection successful\n\r" : "MPU6050 conne
 129              		.loc 1 61 0
 130 0028 FFF7FEFF 		bl	MPU6050_testConnection
 131 002c 031C     		mov	r3, r0
 132 002e 002B     		cmp	r3, #0
 133 0030 01D0     		beq	.L2
 134              		.loc 1 61 0 is_stmt 0 discriminator 1
 135 0032 E34B     		ldr	r3, .L10+24
 136 0034 00E0     		b	.L3
 137              	.L2:
 138              		.loc 1 61 0 discriminator 2
 139 0036 E34B     		ldr	r3, .L10+28
 140              	.L3:
 141              		.loc 1 61 0 discriminator 3
 142 0038 181C     		mov	r0, r3
 143 003a FFF7FEFF 		bl	UART_UartPutString
  62:.\main.c      ****     
  63:.\main.c      ****     UART_UartPutString("Starting to calibrate values from sensor..\n\r");
 144              		.loc 1 63 0 is_stmt 1 discriminator 3
 145 003e E24B     		ldr	r3, .L10+32
ARM GAS  C:\Users\Sam\AppData\Local\Temp\ccBzy2Kj.s 			page 5


 146 0040 181C     		mov	r0, r3
 147 0042 FFF7FEFF 		bl	UART_UartPutString
  64:.\main.c      ****     calibrateOffsets();
 148              		.loc 1 64 0 discriminator 3
 149 0046 FFF7FEFF 		bl	calibrateOffsets
 150 004a 00E0     		b	.L8
 151              	.L9:
  65:.\main.c      ****     
  66:.\main.c      ****     while(forever)
  67:.\main.c      ****     {         
  68:.\main.c      ****       //Convert values to G's
  69:.\main.c      ****       MPU6050_getMotion6t(&CAY, &CAX, &CAZ, &CGX, &CGY, &CGZ, &CT);
  70:.\main.c      ****       AX = ((float)CAX-AXoff)/16384.00;
  71:.\main.c      ****       AY = ((float)CAY-AYoff)/16384.00; //16384 is just 32768/2 to get our 1G value
  72:.\main.c      ****       AZ = ((float)CAZ-(AZoff-16384))/16384.00; //remove 1G before dividing
  73:.\main.c      ****     
  74:.\main.c      ****       GX = ((float)CGX-GXoff)/131.07; //131.07 is just 32768/250 to get us our 1deg/sec value
  75:.\main.c      ****       GY = ((float)CGY-GYoff)/131.07;
  76:.\main.c      ****       GZ = ((float)CGZ-GZoff)/131.07; 
  77:.\main.c      ****     
  78:.\main.c      ****       //UART_UartPutString(buf);
  79:.\main.c      ****     
  80:.\main.c      ****       Roll  = atan2f(AY, AZ) * 180/M_PI;
  81:.\main.c      ****       Pitch = atan2f(-AX, sqrt(AY*AY + AZ*AZ)) * 180/M_PI;
  82:.\main.c      ****       //Yaw   = atan2f(sqrt(AX*AX + AY*AY),AZ) * 180/M_PI;
  83:.\main.c      ****     
  84:.\main.c      ****       sprintf(Abuf, "%f,%f,%f\t\r\n", AX,AY,AZ);
  85:.\main.c      ****       sprintf(Gbuf, "%f,%f,%f\t\r\n", GX,GY,GZ);
  86:.\main.c      ****       sprintf(RPbuf, "%f,%f\t\n\r", Roll,Pitch);
  87:.\main.c      ****         
  88:.\main.c      ****       if(flag == 1)
  89:.\main.c      ****       {
  90:.\main.c      ****         flag = 0;
  91:.\main.c      ****         ch = UART_UartGetChar();
  92:.\main.c      ****         if(ch == 'a') //asking for acceleration values
  93:.\main.c      ****         {
  94:.\main.c      ****           UART_UartPutString(Abuf);   
  95:.\main.c      ****         }
  96:.\main.c      ****         else if(ch == 'g')//asking for gyroscope values
  97:.\main.c      ****         {
  98:.\main.c      ****           UART_UartPutString(Gbuf);
  99:.\main.c      ****         }
 100:.\main.c      ****         else if(ch == 'r')//asking for roll,pitch values
 101:.\main.c      ****         {
 102:.\main.c      ****           UART_UartPutString(RPbuf);  
 103:.\main.c      ****         }
 104:.\main.c      ****         TX_LED_Write(!TX_LED_Read());  
 105:.\main.c      ****       }
 106:.\main.c      ****         
 107:.\main.c      ****           //CyDelay(500);
 108:.\main.c      ****     }
 152              		.loc 1 108 0
 153 004c C046     		mov	r8, r8
 154              	.L8:
  69:.\main.c      ****       MPU6050_getMotion6t(&CAY, &CAX, &CAZ, &CGX, &CGY, &CGZ, &CT);
 155              		.loc 1 69 0
 156 004e DF48     		ldr	r0, .L10+36
ARM GAS  C:\Users\Sam\AppData\Local\Temp\ccBzy2Kj.s 			page 6


 157 0050 DF49     		ldr	r1, .L10+40
 158 0052 E04A     		ldr	r2, .L10+44
 159 0054 E04B     		ldr	r3, .L10+48
 160 0056 E14C     		ldr	r4, .L10+52
 161 0058 0094     		str	r4, [sp]
 162 005a E14C     		ldr	r4, .L10+56
 163 005c 0194     		str	r4, [sp, #4]
 164 005e E14C     		ldr	r4, .L10+60
 165 0060 0294     		str	r4, [sp, #8]
 166 0062 FFF7FEFF 		bl	MPU6050_getMotion6t
  70:.\main.c      ****       AX = ((float)CAX-AXoff)/16384.00;
 167              		.loc 1 70 0
 168 0066 DA4B     		ldr	r3, .L10+40
 169 0068 1B88     		ldrh	r3, [r3]
 170 006a 1BB2     		sxth	r3, r3
 171 006c 181C     		mov	r0, r3
 172 006e FFF7FEFF 		bl	__aeabi_i2f
 173 0072 021C     		add	r2, r0, #0
 174 0074 DC4B     		ldr	r3, .L10+64
 175 0076 1B68     		ldr	r3, [r3]
 176 0078 101C     		add	r0, r2, #0
 177 007a 191C     		add	r1, r3, #0
 178 007c FFF7FEFF 		bl	__aeabi_fsub
 179 0080 031C     		add	r3, r0, #0
 180 0082 181C     		add	r0, r3, #0
 181 0084 8D21     		mov	r1, #141
 182 0086 C905     		lsl	r1, r1, #23
 183 0088 FFF7FEFF 		bl	__aeabi_fdiv
 184 008c 031C     		add	r3, r0, #0
 185 008e 1A1C     		add	r2, r3, #0
 186 0090 D64B     		ldr	r3, .L10+68
 187 0092 1A60     		str	r2, [r3]
  71:.\main.c      ****       AY = ((float)CAY-AYoff)/16384.00; //16384 is just 32768/2 to get our 1G value
 188              		.loc 1 71 0
 189 0094 CD4B     		ldr	r3, .L10+36
 190 0096 1B88     		ldrh	r3, [r3]
 191 0098 1BB2     		sxth	r3, r3
 192 009a 181C     		mov	r0, r3
 193 009c FFF7FEFF 		bl	__aeabi_i2f
 194 00a0 021C     		add	r2, r0, #0
 195 00a2 D34B     		ldr	r3, .L10+72
 196 00a4 1B68     		ldr	r3, [r3]
 197 00a6 101C     		add	r0, r2, #0
 198 00a8 191C     		add	r1, r3, #0
 199 00aa FFF7FEFF 		bl	__aeabi_fsub
 200 00ae 031C     		add	r3, r0, #0
 201 00b0 181C     		add	r0, r3, #0
 202 00b2 8D21     		mov	r1, #141
 203 00b4 C905     		lsl	r1, r1, #23
 204 00b6 FFF7FEFF 		bl	__aeabi_fdiv
 205 00ba 031C     		add	r3, r0, #0
 206 00bc 1A1C     		add	r2, r3, #0
 207 00be CD4B     		ldr	r3, .L10+76
 208 00c0 1A60     		str	r2, [r3]
  72:.\main.c      ****       AZ = ((float)CAZ-(AZoff-16384))/16384.00; //remove 1G before dividing
 209              		.loc 1 72 0
 210 00c2 C44B     		ldr	r3, .L10+44
ARM GAS  C:\Users\Sam\AppData\Local\Temp\ccBzy2Kj.s 			page 7


 211 00c4 1B88     		ldrh	r3, [r3]
 212 00c6 1BB2     		sxth	r3, r3
 213 00c8 181C     		mov	r0, r3
 214 00ca FFF7FEFF 		bl	__aeabi_i2f
 215 00ce 041C     		add	r4, r0, #0
 216 00d0 C94B     		ldr	r3, .L10+80
 217 00d2 1B68     		ldr	r3, [r3]
 218 00d4 181C     		add	r0, r3, #0
 219 00d6 8D21     		mov	r1, #141
 220 00d8 C905     		lsl	r1, r1, #23
 221 00da FFF7FEFF 		bl	__aeabi_fsub
 222 00de 031C     		add	r3, r0, #0
 223 00e0 201C     		add	r0, r4, #0
 224 00e2 191C     		add	r1, r3, #0
 225 00e4 FFF7FEFF 		bl	__aeabi_fsub
 226 00e8 031C     		add	r3, r0, #0
 227 00ea 181C     		add	r0, r3, #0
 228 00ec 8D21     		mov	r1, #141
 229 00ee C905     		lsl	r1, r1, #23
 230 00f0 FFF7FEFF 		bl	__aeabi_fdiv
 231 00f4 031C     		add	r3, r0, #0
 232 00f6 1A1C     		add	r2, r3, #0
 233 00f8 C04B     		ldr	r3, .L10+84
 234 00fa 1A60     		str	r2, [r3]
  74:.\main.c      ****       GX = ((float)CGX-GXoff)/131.07; //131.07 is just 32768/250 to get us our 1deg/sec value
 235              		.loc 1 74 0
 236 00fc B64B     		ldr	r3, .L10+48
 237 00fe 1B88     		ldrh	r3, [r3]
 238 0100 1BB2     		sxth	r3, r3
 239 0102 181C     		mov	r0, r3
 240 0104 FFF7FEFF 		bl	__aeabi_i2f
 241 0108 021C     		add	r2, r0, #0
 242 010a BD4B     		ldr	r3, .L10+88
 243 010c 1B68     		ldr	r3, [r3]
 244 010e 101C     		add	r0, r2, #0
 245 0110 191C     		add	r1, r3, #0
 246 0112 FFF7FEFF 		bl	__aeabi_fsub
 247 0116 031C     		add	r3, r0, #0
 248 0118 181C     		add	r0, r3, #0
 249 011a FFF7FEFF 		bl	__aeabi_f2d
 250 011e 031C     		mov	r3, r0
 251 0120 0C1C     		mov	r4, r1
 252 0122 181C     		mov	r0, r3
 253 0124 211C     		mov	r1, r4
 254 0126 A14B     		ldr	r3, .L10+4
 255 0128 9F4A     		ldr	r2, .L10
 256 012a FFF7FEFF 		bl	__aeabi_ddiv
 257 012e 031C     		mov	r3, r0
 258 0130 0C1C     		mov	r4, r1
 259 0132 181C     		mov	r0, r3
 260 0134 211C     		mov	r1, r4
 261 0136 FFF7FEFF 		bl	__aeabi_d2f
 262 013a 021C     		add	r2, r0, #0
 263 013c B14B     		ldr	r3, .L10+92
 264 013e 1A60     		str	r2, [r3]
  75:.\main.c      ****       GY = ((float)CGY-GYoff)/131.07;
 265              		.loc 1 75 0
ARM GAS  C:\Users\Sam\AppData\Local\Temp\ccBzy2Kj.s 			page 8


 266 0140 A64B     		ldr	r3, .L10+52
 267 0142 1B88     		ldrh	r3, [r3]
 268 0144 1BB2     		sxth	r3, r3
 269 0146 181C     		mov	r0, r3
 270 0148 FFF7FEFF 		bl	__aeabi_i2f
 271 014c 021C     		add	r2, r0, #0
 272 014e AE4B     		ldr	r3, .L10+96
 273 0150 1B68     		ldr	r3, [r3]
 274 0152 101C     		add	r0, r2, #0
 275 0154 191C     		add	r1, r3, #0
 276 0156 FFF7FEFF 		bl	__aeabi_fsub
 277 015a 031C     		add	r3, r0, #0
 278 015c 181C     		add	r0, r3, #0
 279 015e FFF7FEFF 		bl	__aeabi_f2d
 280 0162 031C     		mov	r3, r0
 281 0164 0C1C     		mov	r4, r1
 282 0166 181C     		mov	r0, r3
 283 0168 211C     		mov	r1, r4
 284 016a 904B     		ldr	r3, .L10+4
 285 016c 8E4A     		ldr	r2, .L10
 286 016e FFF7FEFF 		bl	__aeabi_ddiv
 287 0172 031C     		mov	r3, r0
 288 0174 0C1C     		mov	r4, r1
 289 0176 181C     		mov	r0, r3
 290 0178 211C     		mov	r1, r4
 291 017a FFF7FEFF 		bl	__aeabi_d2f
 292 017e 021C     		add	r2, r0, #0
 293 0180 A24B     		ldr	r3, .L10+100
 294 0182 1A60     		str	r2, [r3]
  76:.\main.c      ****       GZ = ((float)CGZ-GZoff)/131.07; 
 295              		.loc 1 76 0
 296 0184 964B     		ldr	r3, .L10+56
 297 0186 1B88     		ldrh	r3, [r3]
 298 0188 1BB2     		sxth	r3, r3
 299 018a 181C     		mov	r0, r3
 300 018c FFF7FEFF 		bl	__aeabi_i2f
 301 0190 021C     		add	r2, r0, #0
 302 0192 9F4B     		ldr	r3, .L10+104
 303 0194 1B68     		ldr	r3, [r3]
 304 0196 101C     		add	r0, r2, #0
 305 0198 191C     		add	r1, r3, #0
 306 019a FFF7FEFF 		bl	__aeabi_fsub
 307 019e 031C     		add	r3, r0, #0
 308 01a0 181C     		add	r0, r3, #0
 309 01a2 FFF7FEFF 		bl	__aeabi_f2d
 310 01a6 031C     		mov	r3, r0
 311 01a8 0C1C     		mov	r4, r1
 312 01aa 181C     		mov	r0, r3
 313 01ac 211C     		mov	r1, r4
 314 01ae 7F4B     		ldr	r3, .L10+4
 315 01b0 7D4A     		ldr	r2, .L10
 316 01b2 FFF7FEFF 		bl	__aeabi_ddiv
 317 01b6 031C     		mov	r3, r0
 318 01b8 0C1C     		mov	r4, r1
 319 01ba 181C     		mov	r0, r3
 320 01bc 211C     		mov	r1, r4
 321 01be FFF7FEFF 		bl	__aeabi_d2f
ARM GAS  C:\Users\Sam\AppData\Local\Temp\ccBzy2Kj.s 			page 9


 322 01c2 021C     		add	r2, r0, #0
 323 01c4 934B     		ldr	r3, .L10+108
 324 01c6 1A60     		str	r2, [r3]
  80:.\main.c      ****       Roll  = atan2f(AY, AZ) * 180/M_PI;
 325              		.loc 1 80 0
 326 01c8 8A4B     		ldr	r3, .L10+76
 327 01ca 1A68     		ldr	r2, [r3]
 328 01cc 8B4B     		ldr	r3, .L10+84
 329 01ce 1B68     		ldr	r3, [r3]
 330 01d0 101C     		add	r0, r2, #0
 331 01d2 191C     		add	r1, r3, #0
 332 01d4 FFF7FEFF 		bl	atan2f
 333 01d8 031C     		add	r3, r0, #0
 334 01da 181C     		add	r0, r3, #0
 335 01dc 8E49     		ldr	r1, .L10+112
 336 01de FFF7FEFF 		bl	__aeabi_fmul
 337 01e2 031C     		add	r3, r0, #0
 338 01e4 181C     		add	r0, r3, #0
 339 01e6 FFF7FEFF 		bl	__aeabi_f2d
 340 01ea 031C     		mov	r3, r0
 341 01ec 0C1C     		mov	r4, r1
 342 01ee 181C     		mov	r0, r3
 343 01f0 211C     		mov	r1, r4
 344 01f2 6F4A     		ldr	r2, .L10+8
 345 01f4 6F4B     		ldr	r3, .L10+12
 346 01f6 FFF7FEFF 		bl	__aeabi_ddiv
 347 01fa 031C     		mov	r3, r0
 348 01fc 0C1C     		mov	r4, r1
 349 01fe 181C     		mov	r0, r3
 350 0200 211C     		mov	r1, r4
 351 0202 FFF7FEFF 		bl	__aeabi_d2f
 352 0206 021C     		add	r2, r0, #0
 353 0208 844B     		ldr	r3, .L10+116
 354 020a 1A60     		str	r2, [r3]
  81:.\main.c      ****       Pitch = atan2f(-AX, sqrt(AY*AY + AZ*AZ)) * 180/M_PI;
 355              		.loc 1 81 0
 356 020c 774B     		ldr	r3, .L10+68
 357 020e 1B68     		ldr	r3, [r3]
 358 0210 8022     		mov	r2, #128
 359 0212 1206     		lsl	r2, r2, #24
 360 0214 151C     		mov	r5, r2
 361 0216 5D40     		eor	r5, r3
 362 0218 764B     		ldr	r3, .L10+76
 363 021a 1A68     		ldr	r2, [r3]
 364 021c 754B     		ldr	r3, .L10+76
 365 021e 1B68     		ldr	r3, [r3]
 366 0220 101C     		add	r0, r2, #0
 367 0222 191C     		add	r1, r3, #0
 368 0224 FFF7FEFF 		bl	__aeabi_fmul
 369 0228 031C     		add	r3, r0, #0
 370 022a 1C1C     		add	r4, r3, #0
 371 022c 734B     		ldr	r3, .L10+84
 372 022e 1A68     		ldr	r2, [r3]
 373 0230 724B     		ldr	r3, .L10+84
 374 0232 1B68     		ldr	r3, [r3]
 375 0234 101C     		add	r0, r2, #0
 376 0236 191C     		add	r1, r3, #0
ARM GAS  C:\Users\Sam\AppData\Local\Temp\ccBzy2Kj.s 			page 10


 377 0238 FFF7FEFF 		bl	__aeabi_fmul
 378 023c 031C     		add	r3, r0, #0
 379 023e 201C     		add	r0, r4, #0
 380 0240 191C     		add	r1, r3, #0
 381 0242 FFF7FEFF 		bl	__aeabi_fadd
 382 0246 031C     		add	r3, r0, #0
 383 0248 181C     		add	r0, r3, #0
 384 024a FFF7FEFF 		bl	__aeabi_f2d
 385 024e 031C     		mov	r3, r0
 386 0250 0C1C     		mov	r4, r1
 387 0252 181C     		mov	r0, r3
 388 0254 211C     		mov	r1, r4
 389 0256 FFF7FEFF 		bl	sqrt
 390 025a 031C     		mov	r3, r0
 391 025c 0C1C     		mov	r4, r1
 392 025e 181C     		mov	r0, r3
 393 0260 211C     		mov	r1, r4
 394 0262 FFF7FEFF 		bl	__aeabi_d2f
 395 0266 031C     		add	r3, r0, #0
 396 0268 281C     		add	r0, r5, #0
 397 026a 191C     		add	r1, r3, #0
 398 026c FFF7FEFF 		bl	atan2f
 399 0270 031C     		add	r3, r0, #0
 400 0272 181C     		add	r0, r3, #0
 401 0274 6849     		ldr	r1, .L10+112
 402 0276 FFF7FEFF 		bl	__aeabi_fmul
 403 027a 031C     		add	r3, r0, #0
 404 027c 181C     		add	r0, r3, #0
 405 027e FFF7FEFF 		bl	__aeabi_f2d
 406 0282 031C     		mov	r3, r0
 407 0284 0C1C     		mov	r4, r1
 408 0286 181C     		mov	r0, r3
 409 0288 211C     		mov	r1, r4
 410 028a 494A     		ldr	r2, .L10+8
 411 028c 494B     		ldr	r3, .L10+12
 412 028e FFF7FEFF 		bl	__aeabi_ddiv
 413 0292 031C     		mov	r3, r0
 414 0294 0C1C     		mov	r4, r1
 415 0296 181C     		mov	r0, r3
 416 0298 211C     		mov	r1, r4
 417 029a FFF7FEFF 		bl	__aeabi_d2f
 418 029e 021C     		add	r2, r0, #0
 419 02a0 5F4B     		ldr	r3, .L10+120
 420 02a2 1A60     		str	r2, [r3]
  84:.\main.c      ****       sprintf(Abuf, "%f,%f,%f\t\r\n", AX,AY,AZ);
 421              		.loc 1 84 0
 422 02a4 514B     		ldr	r3, .L10+68
 423 02a6 1B68     		ldr	r3, [r3]
 424 02a8 181C     		add	r0, r3, #0
 425 02aa FFF7FEFF 		bl	__aeabi_f2d
 426 02ae 041C     		mov	r4, r0
 427 02b0 0D1C     		mov	r5, r1
 428 02b2 504B     		ldr	r3, .L10+76
 429 02b4 1B68     		ldr	r3, [r3]
 430 02b6 181C     		add	r0, r3, #0
 431 02b8 FFF7FEFF 		bl	__aeabi_f2d
 432 02bc 3861     		str	r0, [r7, #16]
ARM GAS  C:\Users\Sam\AppData\Local\Temp\ccBzy2Kj.s 			page 11


 433 02be 7961     		str	r1, [r7, #20]
 434 02c0 4E4B     		ldr	r3, .L10+84
 435 02c2 1B68     		ldr	r3, [r3]
 436 02c4 181C     		add	r0, r3, #0
 437 02c6 FFF7FEFF 		bl	__aeabi_f2d
 438 02ca 3860     		str	r0, [r7]
 439 02cc 7960     		str	r1, [r7, #4]
 440 02ce 5548     		ldr	r0, .L10+124
 441 02d0 5549     		ldr	r1, .L10+128
 442 02d2 3A69     		ldr	r2, [r7, #16]
 443 02d4 7B69     		ldr	r3, [r7, #20]
 444 02d6 0092     		str	r2, [sp]
 445 02d8 0193     		str	r3, [sp, #4]
 446 02da 3A68     		ldr	r2, [r7]
 447 02dc 7B68     		ldr	r3, [r7, #4]
 448 02de 0292     		str	r2, [sp, #8]
 449 02e0 0393     		str	r3, [sp, #12]
 450 02e2 221C     		mov	r2, r4
 451 02e4 2B1C     		mov	r3, r5
 452 02e6 FFF7FEFF 		bl	sprintf
  85:.\main.c      ****       sprintf(Gbuf, "%f,%f,%f\t\r\n", GX,GY,GZ);
 453              		.loc 1 85 0
 454 02ea 464B     		ldr	r3, .L10+92
 455 02ec 1B68     		ldr	r3, [r3]
 456 02ee 181C     		add	r0, r3, #0
 457 02f0 FFF7FEFF 		bl	__aeabi_f2d
 458 02f4 041C     		mov	r4, r0
 459 02f6 0D1C     		mov	r5, r1
 460 02f8 444B     		ldr	r3, .L10+100
 461 02fa 1B68     		ldr	r3, [r3]
 462 02fc 181C     		add	r0, r3, #0
 463 02fe FFF7FEFF 		bl	__aeabi_f2d
 464 0302 B860     		str	r0, [r7, #8]
 465 0304 F960     		str	r1, [r7, #12]
 466 0306 434B     		ldr	r3, .L10+108
 467 0308 1B68     		ldr	r3, [r3]
 468 030a 181C     		add	r0, r3, #0
 469 030c FFF7FEFF 		bl	__aeabi_f2d
 470 0310 3860     		str	r0, [r7]
 471 0312 7960     		str	r1, [r7, #4]
 472 0314 4548     		ldr	r0, .L10+132
 473 0316 4449     		ldr	r1, .L10+128
 474 0318 BA68     		ldr	r2, [r7, #8]
 475 031a FB68     		ldr	r3, [r7, #12]
 476 031c 0092     		str	r2, [sp]
 477 031e 0193     		str	r3, [sp, #4]
 478 0320 3A68     		ldr	r2, [r7]
 479 0322 7B68     		ldr	r3, [r7, #4]
 480 0324 0292     		str	r2, [sp, #8]
 481 0326 0393     		str	r3, [sp, #12]
 482 0328 221C     		mov	r2, r4
 483 032a 2B1C     		mov	r3, r5
 484 032c FFF7FEFF 		bl	sprintf
  86:.\main.c      ****       sprintf(RPbuf, "%f,%f\t\n\r", Roll,Pitch);
 485              		.loc 1 86 0
 486 0330 3A4B     		ldr	r3, .L10+116
 487 0332 1B68     		ldr	r3, [r3]
ARM GAS  C:\Users\Sam\AppData\Local\Temp\ccBzy2Kj.s 			page 12


 488 0334 181C     		add	r0, r3, #0
 489 0336 FFF7FEFF 		bl	__aeabi_f2d
 490 033a 041C     		mov	r4, r0
 491 033c 0D1C     		mov	r5, r1
 492 033e 384B     		ldr	r3, .L10+120
 493 0340 1B68     		ldr	r3, [r3]
 494 0342 181C     		add	r0, r3, #0
 495 0344 FFF7FEFF 		bl	__aeabi_f2d
 496 0348 021C     		mov	r2, r0
 497 034a 0B1C     		mov	r3, r1
 498 034c 3848     		ldr	r0, .L10+136
 499 034e 3949     		ldr	r1, .L10+140
 500 0350 0092     		str	r2, [sp]
 501 0352 0193     		str	r3, [sp, #4]
 502 0354 221C     		mov	r2, r4
 503 0356 2B1C     		mov	r3, r5
 504 0358 FFF7FEFF 		bl	sprintf
  88:.\main.c      ****       if(flag == 1)
 505              		.loc 1 88 0
 506 035c 364B     		ldr	r3, .L10+144
 507 035e 1B78     		ldrb	r3, [r3]
 508 0360 012B     		cmp	r3, #1
 509 0362 00D0     		beq	.LCB376
 510 0364 72E6     		b	.L9	@long jump
 511              	.LCB376:
  90:.\main.c      ****         flag = 0;
 512              		.loc 1 90 0
 513 0366 344B     		ldr	r3, .L10+144
 514 0368 0022     		mov	r2, #0
 515 036a 1A70     		strb	r2, [r3]
  91:.\main.c      ****         ch = UART_UartGetChar();
 516              		.loc 1 91 0
 517 036c FFF7FEFF 		bl	UART_UartGetChar
 518 0370 031C     		mov	r3, r0
 519 0372 DAB2     		uxtb	r2, r3
 520 0374 3B1C     		mov	r3, r7
 521 0376 1F33     		add	r3, r3, #31
 522 0378 1A70     		strb	r2, [r3]
  92:.\main.c      ****         if(ch == 'a') //asking for acceleration values
 523              		.loc 1 92 0
 524 037a 3B1C     		mov	r3, r7
 525 037c 1F33     		add	r3, r3, #31
 526 037e 1B78     		ldrb	r3, [r3]
 527 0380 DBB2     		uxtb	r3, r3
 528 0382 612B     		cmp	r3, #97
 529 0384 04D1     		bne	.L5
  94:.\main.c      ****           UART_UartPutString(Abuf);   
 530              		.loc 1 94 0
 531 0386 274B     		ldr	r3, .L10+124
 532 0388 181C     		mov	r0, r3
 533 038a FFF7FEFF 		bl	UART_UartPutString
 534 038e 5FE0     		b	.L6
 535              	.L5:
  96:.\main.c      ****         else if(ch == 'g')//asking for gyroscope values
 536              		.loc 1 96 0
 537 0390 3B1C     		mov	r3, r7
 538 0392 1F33     		add	r3, r3, #31
ARM GAS  C:\Users\Sam\AppData\Local\Temp\ccBzy2Kj.s 			page 13


 539 0394 1B78     		ldrb	r3, [r3]
 540 0396 DBB2     		uxtb	r3, r3
 541 0398 672B     		cmp	r3, #103
 542 039a 4FD1     		bne	.L7
  98:.\main.c      ****           UART_UartPutString(Gbuf);
 543              		.loc 1 98 0
 544 039c 234B     		ldr	r3, .L10+132
 545 039e 181C     		mov	r0, r3
 546 03a0 FFF7FEFF 		bl	UART_UartPutString
 547 03a4 54E0     		b	.L6
 548              	.L11:
 549 03a6 C046     		.align	3
 550              	.L10:
 551 03a8 0AD7A370 		.word	1889785610
 552 03ac 3D626040 		.word	1080058429
 553 03b0 182D4454 		.word	1413754136
 554 03b4 FB210940 		.word	1074340347
 555 03b8 00000000 		.word	uartInterrupt
 556 03bc 00000000 		.word	.LC1
 557 03c0 14000000 		.word	.LC3
 558 03c4 34000000 		.word	.LC5
 559 03c8 54000000 		.word	.LC7
 560 03cc 00000000 		.word	CAY
 561 03d0 00000000 		.word	CAX
 562 03d4 00000000 		.word	CAZ
 563 03d8 00000000 		.word	CGX
 564 03dc 00000000 		.word	CGY
 565 03e0 00000000 		.word	CGZ
 566 03e4 00000000 		.word	CT
 567 03e8 00000000 		.word	AXoff
 568 03ec 00000000 		.word	AX
 569 03f0 00000000 		.word	AYoff
 570 03f4 00000000 		.word	AY
 571 03f8 00000000 		.word	AZoff
 572 03fc 00000000 		.word	AZ
 573 0400 00000000 		.word	GXoff
 574 0404 00000000 		.word	GX
 575 0408 00000000 		.word	GYoff
 576 040c 00000000 		.word	GY
 577 0410 00000000 		.word	GZoff
 578 0414 00000000 		.word	GZ
 579 0418 00003443 		.word	1127481344
 580 041c 00000000 		.word	Roll
 581 0420 00000000 		.word	Pitch
 582 0424 00000000 		.word	Abuf
 583 0428 84000000 		.word	.LC31
 584 042c 00000000 		.word	Gbuf
 585 0430 00000000 		.word	RPbuf
 586 0434 90000000 		.word	.LC35
 587 0438 00000000 		.word	flag
 588              	.L7:
 100:.\main.c      ****         else if(ch == 'r')//asking for roll,pitch values
 589              		.loc 1 100 0
 590 043c 3B1C     		mov	r3, r7
 591 043e 1F33     		add	r3, r3, #31
 592 0440 1B78     		ldrb	r3, [r3]
 593 0442 DBB2     		uxtb	r3, r3
ARM GAS  C:\Users\Sam\AppData\Local\Temp\ccBzy2Kj.s 			page 14


 594 0444 722B     		cmp	r3, #114
 595 0446 03D1     		bne	.L6
 102:.\main.c      ****           UART_UartPutString(RPbuf);  
 596              		.loc 1 102 0
 597 0448 064B     		ldr	r3, .L12
 598 044a 181C     		mov	r0, r3
 599 044c FFF7FEFF 		bl	UART_UartPutString
 600              	.L6:
 104:.\main.c      ****         TX_LED_Write(!TX_LED_Read());  
 601              		.loc 1 104 0
 602 0450 FFF7FEFF 		bl	TX_LED_Read
 603 0454 031C     		mov	r3, r0
 604 0456 5A42     		neg	r2, r3
 605 0458 5341     		adc	r3, r3, r2
 606 045a DBB2     		uxtb	r3, r3
 607 045c 181C     		mov	r0, r3
 608 045e FFF7FEFF 		bl	TX_LED_Write
 609              		.loc 1 108 0
 610 0462 F3E5     		b	.L9
 611              	.L13:
 612              		.align	2
 613              	.L12:
 614 0464 00000000 		.word	RPbuf
 615              		.cfi_endproc
 616              	.LFE33:
 617              		.size	main, .-main
 618              		.section	.rodata
 619 0099 000000   		.align	2
 620              	.LC52:
 621 009c 0A546573 		.ascii	"\012Test finished, offset values are shown below\012"
 621      74206669 
 621      6E697368 
 621      65642C20 
 621      6F666673 
 622 00ca 0A0D00   		.ascii	"\012\015\000"
 623              		.global	__aeabi_f2iz
 624 00cd 000000   		.align	2
 625              	.LC55:
 626 00d0 0A0D4158 		.ascii	"\012\015AXoff:%d, AYoff:%d, AZoff:%d || GXoff:%d, G"
 626      6F66663A 
 626      25642C20 
 626      41596F66 
 626      663A2564 
 627 00fd 596F6666 		.ascii	"Yoff:%d, GZoff:%d,\011\012\015\000"
 627      3A25642C 
 627      20475A6F 
 627      66663A25 
 627      642C090A 
 628 0113 00       		.section	.text.calibrateOffsets,"ax",%progbits
 629              		.align	2
 630              		.global	calibrateOffsets
 631              		.code	16
 632              		.thumb_func
 633              		.type	calibrateOffsets, %function
 634              	calibrateOffsets:
 635              	.LFB34:
 109:.\main.c      **** }
ARM GAS  C:\Users\Sam\AppData\Local\Temp\ccBzy2Kj.s 			page 15


 110:.\main.c      **** 
 111:.\main.c      **** void calibrateOffsets(void)
 112:.\main.c      **** {
 636              		.loc 1 112 0
 637              		.cfi_startproc
 638 0000 F0B5     		push	{r4, r5, r6, r7, lr}
 639              	.LCFI3:
 640              		.cfi_def_cfa_offset 20
 641              		.cfi_offset 4, -20
 642              		.cfi_offset 5, -16
 643              		.cfi_offset 6, -12
 644              		.cfi_offset 7, -8
 645              		.cfi_offset 14, -4
 646 0002 4F46     		mov	r7, r9
 647 0004 4646     		mov	r6, r8
 648 0006 C0B4     		push	{r6, r7}
 649              	.LCFI4:
 650              		.cfi_def_cfa_offset 28
 651              		.cfi_offset 8, -28
 652              		.cfi_offset 9, -24
 653 0008 85B0     		sub	sp, sp, #20
 654              	.LCFI5:
 655              		.cfi_def_cfa_offset 48
 656 000a 04AF     		add	r7, sp, #16
 657              	.LCFI6:
 658              		.cfi_def_cfa 7, 32
 113:.\main.c      ****   //Count and average the first n values, defined by numberOfTests above..
 114:.\main.c      ****     for(i=0; i<numberOfTests; i++)
 659              		.loc 1 114 0
 660 000c 7F4B     		ldr	r3, .L17
 661 000e 0022     		mov	r2, #0
 662 0010 1A60     		str	r2, [r3]
 663 0012 79E0     		b	.L15
 664              	.L16:
 115:.\main.c      ****     {  
 116:.\main.c      ****       MPU6050_getMotion6t(&CAX, &CAY, &CAZ, &CGX, &CGY, &CGZ, &CT);
 665              		.loc 1 116 0 discriminator 2
 666 0014 7E48     		ldr	r0, .L17+4
 667 0016 7F49     		ldr	r1, .L17+8
 668 0018 7F4A     		ldr	r2, .L17+12
 669 001a 804B     		ldr	r3, .L17+16
 670 001c 804C     		ldr	r4, .L17+20
 671 001e 0094     		str	r4, [sp]
 672 0020 804C     		ldr	r4, .L17+24
 673 0022 0194     		str	r4, [sp, #4]
 674 0024 804C     		ldr	r4, .L17+28
 675 0026 0294     		str	r4, [sp, #8]
 676 0028 FFF7FEFF 		bl	MPU6050_getMotion6t
 117:.\main.c      ****       AXoff += CAX;
 677              		.loc 1 117 0 discriminator 2
 678 002c 784B     		ldr	r3, .L17+4
 679 002e 1B88     		ldrh	r3, [r3]
 680 0030 1BB2     		sxth	r3, r3
 681 0032 181C     		mov	r0, r3
 682 0034 FFF7FEFF 		bl	__aeabi_i2f
 683 0038 021C     		add	r2, r0, #0
 684 003a 7C4B     		ldr	r3, .L17+32
ARM GAS  C:\Users\Sam\AppData\Local\Temp\ccBzy2Kj.s 			page 16


 685 003c 1B68     		ldr	r3, [r3]
 686 003e 101C     		add	r0, r2, #0
 687 0040 191C     		add	r1, r3, #0
 688 0042 FFF7FEFF 		bl	__aeabi_fadd
 689 0046 031C     		add	r3, r0, #0
 690 0048 1A1C     		add	r2, r3, #0
 691 004a 784B     		ldr	r3, .L17+32
 692 004c 1A60     		str	r2, [r3]
 118:.\main.c      ****       AYoff += CAY;
 693              		.loc 1 118 0 discriminator 2
 694 004e 714B     		ldr	r3, .L17+8
 695 0050 1B88     		ldrh	r3, [r3]
 696 0052 1BB2     		sxth	r3, r3
 697 0054 181C     		mov	r0, r3
 698 0056 FFF7FEFF 		bl	__aeabi_i2f
 699 005a 021C     		add	r2, r0, #0
 700 005c 744B     		ldr	r3, .L17+36
 701 005e 1B68     		ldr	r3, [r3]
 702 0060 101C     		add	r0, r2, #0
 703 0062 191C     		add	r1, r3, #0
 704 0064 FFF7FEFF 		bl	__aeabi_fadd
 705 0068 031C     		add	r3, r0, #0
 706 006a 1A1C     		add	r2, r3, #0
 707 006c 704B     		ldr	r3, .L17+36
 708 006e 1A60     		str	r2, [r3]
 119:.\main.c      ****       AZoff += CAZ;
 709              		.loc 1 119 0 discriminator 2
 710 0070 694B     		ldr	r3, .L17+12
 711 0072 1B88     		ldrh	r3, [r3]
 712 0074 1BB2     		sxth	r3, r3
 713 0076 181C     		mov	r0, r3
 714 0078 FFF7FEFF 		bl	__aeabi_i2f
 715 007c 021C     		add	r2, r0, #0
 716 007e 6D4B     		ldr	r3, .L17+40
 717 0080 1B68     		ldr	r3, [r3]
 718 0082 101C     		add	r0, r2, #0
 719 0084 191C     		add	r1, r3, #0
 720 0086 FFF7FEFF 		bl	__aeabi_fadd
 721 008a 031C     		add	r3, r0, #0
 722 008c 1A1C     		add	r2, r3, #0
 723 008e 694B     		ldr	r3, .L17+40
 724 0090 1A60     		str	r2, [r3]
 120:.\main.c      ****       GXoff += CGX;
 725              		.loc 1 120 0 discriminator 2
 726 0092 624B     		ldr	r3, .L17+16
 727 0094 1B88     		ldrh	r3, [r3]
 728 0096 1BB2     		sxth	r3, r3
 729 0098 181C     		mov	r0, r3
 730 009a FFF7FEFF 		bl	__aeabi_i2f
 731 009e 021C     		add	r2, r0, #0
 732 00a0 654B     		ldr	r3, .L17+44
 733 00a2 1B68     		ldr	r3, [r3]
 734 00a4 101C     		add	r0, r2, #0
 735 00a6 191C     		add	r1, r3, #0
 736 00a8 FFF7FEFF 		bl	__aeabi_fadd
 737 00ac 031C     		add	r3, r0, #0
 738 00ae 1A1C     		add	r2, r3, #0
ARM GAS  C:\Users\Sam\AppData\Local\Temp\ccBzy2Kj.s 			page 17


 739 00b0 614B     		ldr	r3, .L17+44
 740 00b2 1A60     		str	r2, [r3]
 121:.\main.c      ****       GYoff += CGY;
 741              		.loc 1 121 0 discriminator 2
 742 00b4 5A4B     		ldr	r3, .L17+20
 743 00b6 1B88     		ldrh	r3, [r3]
 744 00b8 1BB2     		sxth	r3, r3
 745 00ba 181C     		mov	r0, r3
 746 00bc FFF7FEFF 		bl	__aeabi_i2f
 747 00c0 021C     		add	r2, r0, #0
 748 00c2 5E4B     		ldr	r3, .L17+48
 749 00c4 1B68     		ldr	r3, [r3]
 750 00c6 101C     		add	r0, r2, #0
 751 00c8 191C     		add	r1, r3, #0
 752 00ca FFF7FEFF 		bl	__aeabi_fadd
 753 00ce 031C     		add	r3, r0, #0
 754 00d0 1A1C     		add	r2, r3, #0
 755 00d2 5A4B     		ldr	r3, .L17+48
 756 00d4 1A60     		str	r2, [r3]
 122:.\main.c      ****       GZoff += CGZ;
 757              		.loc 1 122 0 discriminator 2
 758 00d6 534B     		ldr	r3, .L17+24
 759 00d8 1B88     		ldrh	r3, [r3]
 760 00da 1BB2     		sxth	r3, r3
 761 00dc 181C     		mov	r0, r3
 762 00de FFF7FEFF 		bl	__aeabi_i2f
 763 00e2 021C     		add	r2, r0, #0
 764 00e4 564B     		ldr	r3, .L17+52
 765 00e6 1B68     		ldr	r3, [r3]
 766 00e8 101C     		add	r0, r2, #0
 767 00ea 191C     		add	r1, r3, #0
 768 00ec FFF7FEFF 		bl	__aeabi_fadd
 769 00f0 031C     		add	r3, r0, #0
 770 00f2 1A1C     		add	r2, r3, #0
 771 00f4 524B     		ldr	r3, .L17+52
 772 00f6 1A60     		str	r2, [r3]
 123:.\main.c      ****       
 124:.\main.c      ****       //Uncomment these lines to show serial output...
 125:.\main.c      ****       //sprintf(buf, "Test Number: %d \n\r", i);
 126:.\main.c      ****       //SERIAL_UartPutString(buf);
 127:.\main.c      ****       //sprintf(buf, "AX:%d, AY:%d, AZ:%d || GX:%d, GY:%d, GZ:%d,\t", CAX,CAY,CAZ,CGX,CGY,CGZ);
 128:.\main.c      ****       //SERIAL_UartPutString(buf);
 129:.\main.c      ****       //SERIAL_UartPutString("\n\r");
 130:.\main.c      ****       CyDelay(25);
 773              		.loc 1 130 0 discriminator 2
 774 00f8 1920     		mov	r0, #25
 775 00fa FFF7FEFF 		bl	CyDelay
 114:.\main.c      ****     for(i=0; i<numberOfTests; i++)
 776              		.loc 1 114 0 discriminator 2
 777 00fe 434B     		ldr	r3, .L17
 778 0100 1B68     		ldr	r3, [r3]
 779 0102 5A1C     		add	r2, r3, #1
 780 0104 414B     		ldr	r3, .L17
 781 0106 1A60     		str	r2, [r3]
 782              	.L15:
 114:.\main.c      ****     for(i=0; i<numberOfTests; i++)
 783              		.loc 1 114 0 is_stmt 0 discriminator 1
ARM GAS  C:\Users\Sam\AppData\Local\Temp\ccBzy2Kj.s 			page 18


 784 0108 404B     		ldr	r3, .L17
 785 010a 1B68     		ldr	r3, [r3]
 786 010c 632B     		cmp	r3, #99
 787 010e 00DC     		bgt	.LCB623
 788 0110 80E7     		b	.L16	@long jump
 789              	.LCB623:
 131:.\main.c      ****     }
 132:.\main.c      ****     
 133:.\main.c      ****     AXoff = AXoff/numberOfTests;
 790              		.loc 1 133 0 is_stmt 1
 791 0112 464B     		ldr	r3, .L17+32
 792 0114 1B68     		ldr	r3, [r3]
 793 0116 181C     		add	r0, r3, #0
 794 0118 4A49     		ldr	r1, .L17+56
 795 011a FFF7FEFF 		bl	__aeabi_fdiv
 796 011e 031C     		add	r3, r0, #0
 797 0120 1A1C     		add	r2, r3, #0
 798 0122 424B     		ldr	r3, .L17+32
 799 0124 1A60     		str	r2, [r3]
 134:.\main.c      ****     AYoff = AYoff/numberOfTests;
 800              		.loc 1 134 0
 801 0126 424B     		ldr	r3, .L17+36
 802 0128 1B68     		ldr	r3, [r3]
 803 012a 181C     		add	r0, r3, #0
 804 012c 4549     		ldr	r1, .L17+56
 805 012e FFF7FEFF 		bl	__aeabi_fdiv
 806 0132 031C     		add	r3, r0, #0
 807 0134 1A1C     		add	r2, r3, #0
 808 0136 3E4B     		ldr	r3, .L17+36
 809 0138 1A60     		str	r2, [r3]
 135:.\main.c      ****     AZoff = AZoff/numberOfTests;
 810              		.loc 1 135 0
 811 013a 3E4B     		ldr	r3, .L17+40
 812 013c 1B68     		ldr	r3, [r3]
 813 013e 181C     		add	r0, r3, #0
 814 0140 4049     		ldr	r1, .L17+56
 815 0142 FFF7FEFF 		bl	__aeabi_fdiv
 816 0146 031C     		add	r3, r0, #0
 817 0148 1A1C     		add	r2, r3, #0
 818 014a 3A4B     		ldr	r3, .L17+40
 819 014c 1A60     		str	r2, [r3]
 136:.\main.c      ****     GXoff = GXoff/numberOfTests;
 820              		.loc 1 136 0
 821 014e 3A4B     		ldr	r3, .L17+44
 822 0150 1B68     		ldr	r3, [r3]
 823 0152 181C     		add	r0, r3, #0
 824 0154 3B49     		ldr	r1, .L17+56
 825 0156 FFF7FEFF 		bl	__aeabi_fdiv
 826 015a 031C     		add	r3, r0, #0
 827 015c 1A1C     		add	r2, r3, #0
 828 015e 364B     		ldr	r3, .L17+44
 829 0160 1A60     		str	r2, [r3]
 137:.\main.c      ****     GYoff = GYoff/numberOfTests;
 830              		.loc 1 137 0
 831 0162 364B     		ldr	r3, .L17+48
 832 0164 1B68     		ldr	r3, [r3]
 833 0166 181C     		add	r0, r3, #0
ARM GAS  C:\Users\Sam\AppData\Local\Temp\ccBzy2Kj.s 			page 19


 834 0168 3649     		ldr	r1, .L17+56
 835 016a FFF7FEFF 		bl	__aeabi_fdiv
 836 016e 031C     		add	r3, r0, #0
 837 0170 1A1C     		add	r2, r3, #0
 838 0172 324B     		ldr	r3, .L17+48
 839 0174 1A60     		str	r2, [r3]
 138:.\main.c      ****     GZoff = GZoff/numberOfTests;
 840              		.loc 1 138 0
 841 0176 324B     		ldr	r3, .L17+52
 842 0178 1B68     		ldr	r3, [r3]
 843 017a 181C     		add	r0, r3, #0
 844 017c 3149     		ldr	r1, .L17+56
 845 017e FFF7FEFF 		bl	__aeabi_fdiv
 846 0182 031C     		add	r3, r0, #0
 847 0184 1A1C     		add	r2, r3, #0
 848 0186 2E4B     		ldr	r3, .L17+52
 849 0188 1A60     		str	r2, [r3]
 139:.\main.c      ****     
 140:.\main.c      ****     UART_UartPutString("\nTest finished, offset values are shown below\n\n\r");
 850              		.loc 1 140 0
 851 018a 2F4B     		ldr	r3, .L17+60
 852 018c 181C     		mov	r0, r3
 853 018e FFF7FEFF 		bl	UART_UartPutString
 141:.\main.c      ****     sprintf(buf, "\n\rAXoff:%d, AYoff:%d, AZoff:%d || GXoff:%d, GYoff:%d, GZoff:%d,\t\n\r", (int)AX
 854              		.loc 1 141 0
 855 0192 264B     		ldr	r3, .L17+32
 856 0194 1B68     		ldr	r3, [r3]
 857 0196 181C     		add	r0, r3, #0
 858 0198 FFF7FEFF 		bl	__aeabi_f2iz
 859 019c 051C     		mov	r5, r0
 860 019e 244B     		ldr	r3, .L17+36
 861 01a0 1B68     		ldr	r3, [r3]
 862 01a2 181C     		add	r0, r3, #0
 863 01a4 FFF7FEFF 		bl	__aeabi_f2iz
 864 01a8 041C     		mov	r4, r0
 865 01aa 224B     		ldr	r3, .L17+40
 866 01ac 1B68     		ldr	r3, [r3]
 867 01ae 181C     		add	r0, r3, #0
 868 01b0 FFF7FEFF 		bl	__aeabi_f2iz
 869 01b4 8146     		mov	r9, r0
 870 01b6 204B     		ldr	r3, .L17+44
 871 01b8 1B68     		ldr	r3, [r3]
 872 01ba 181C     		add	r0, r3, #0
 873 01bc FFF7FEFF 		bl	__aeabi_f2iz
 874 01c0 8046     		mov	r8, r0
 875 01c2 1E4B     		ldr	r3, .L17+48
 876 01c4 1B68     		ldr	r3, [r3]
 877 01c6 181C     		add	r0, r3, #0
 878 01c8 FFF7FEFF 		bl	__aeabi_f2iz
 879 01cc 061C     		mov	r6, r0
 880 01ce 1C4B     		ldr	r3, .L17+52
 881 01d0 1B68     		ldr	r3, [r3]
 882 01d2 181C     		add	r0, r3, #0
 883 01d4 FFF7FEFF 		bl	__aeabi_f2iz
 884 01d8 011C     		mov	r1, r0
 885 01da 1C4A     		ldr	r2, .L17+64
 886 01dc 1C4B     		ldr	r3, .L17+68
ARM GAS  C:\Users\Sam\AppData\Local\Temp\ccBzy2Kj.s 			page 20


 887 01de 4846     		mov	r0, r9
 888 01e0 0090     		str	r0, [sp]
 889 01e2 4046     		mov	r0, r8
 890 01e4 0190     		str	r0, [sp, #4]
 891 01e6 0296     		str	r6, [sp, #8]
 892 01e8 0391     		str	r1, [sp, #12]
 893 01ea 101C     		mov	r0, r2
 894 01ec 191C     		mov	r1, r3
 895 01ee 2A1C     		mov	r2, r5
 896 01f0 231C     		mov	r3, r4
 897 01f2 FFF7FEFF 		bl	sprintf
 142:.\main.c      ****     UART_UartPutString(buf);  
 898              		.loc 1 142 0
 899 01f6 154B     		ldr	r3, .L17+64
 900 01f8 181C     		mov	r0, r3
 901 01fa FFF7FEFF 		bl	UART_UartPutString
 143:.\main.c      **** }
 902              		.loc 1 143 0
 903 01fe BD46     		mov	sp, r7
 904 0200 01B0     		add	sp, sp, #4
 905              		@ sp needed for prologue
 906 0202 0CBC     		pop	{r2, r3}
 907 0204 9046     		mov	r8, r2
 908 0206 9946     		mov	r9, r3
 909 0208 F0BD     		pop	{r4, r5, r6, r7, pc}
 910              	.L18:
 911 020a C046     		.align	2
 912              	.L17:
 913 020c 00000000 		.word	i
 914 0210 00000000 		.word	CAX
 915 0214 00000000 		.word	CAY
 916 0218 00000000 		.word	CAZ
 917 021c 00000000 		.word	CGX
 918 0220 00000000 		.word	CGY
 919 0224 00000000 		.word	CGZ
 920 0228 00000000 		.word	CT
 921 022c 00000000 		.word	AXoff
 922 0230 00000000 		.word	AYoff
 923 0234 00000000 		.word	AZoff
 924 0238 00000000 		.word	GXoff
 925 023c 00000000 		.word	GYoff
 926 0240 00000000 		.word	GZoff
 927 0244 0000C842 		.word	1120403456
 928 0248 9C000000 		.word	.LC52
 929 024c 00000000 		.word	buf
 930 0250 D0000000 		.word	.LC55
 931              		.cfi_endproc
 932              	.LFE34:
 933              		.size	calibrateOffsets, .-calibrateOffsets
 934              		.text
 935              	.Letext0:
 936              		.file 2 "c:\\program files (x86)\\cypress\\psoc creator\\3.0\\psoc creator\\import\\gnu_cs\\arm\\4
 937              		.file 3 "./Generated_Source/PSoC4/cytypes.h"
 938              		.file 4 "./mpu6050.h"