ARM GAS  C:\Users\Sam\AppData\Local\Temp\cc6NNgiN.s 			page 1


   1              		.cpu cortex-m0
   2              		.fpu softvfp
   3              		.eabi_attribute 20, 1
   4              		.eabi_attribute 21, 1
   5              		.eabi_attribute 23, 3
   6              		.eabi_attribute 24, 1
   7              		.eabi_attribute 25, 1
   8              		.eabi_attribute 26, 1
   9              		.eabi_attribute 30, 6
  10              		.eabi_attribute 34, 0
  11              		.eabi_attribute 18, 4
  12              		.code	16
  13              		.file	"UART_RX_ISR.c"
  14              		.text
  15              	.Ltext0:
  16              		.cfi_sections	.debug_frame
  17              		.section	.text.UART_RX_ISR_Start,"ax",%progbits
  18              		.align	2
  19              		.global	UART_RX_ISR_Start
  20              		.code	16
  21              		.thumb_func
  22              		.type	UART_RX_ISR_Start, %function
  23              	UART_RX_ISR_Start:
  24              	.LFB0:
  25              		.file 1 ".\\Generated_Source\\PSoC4\\UART_RX_ISR.c"
   1:.\Generated_Source\PSoC4/UART_RX_ISR.c **** /*******************************************************************************
   2:.\Generated_Source\PSoC4/UART_RX_ISR.c **** * File Name: UART_RX_ISR.c  
   3:.\Generated_Source\PSoC4/UART_RX_ISR.c **** * Version 1.70
   4:.\Generated_Source\PSoC4/UART_RX_ISR.c **** *
   5:.\Generated_Source\PSoC4/UART_RX_ISR.c **** *  Description:
   6:.\Generated_Source\PSoC4/UART_RX_ISR.c **** *   API for controlling the state of an interrupt.
   7:.\Generated_Source\PSoC4/UART_RX_ISR.c **** *
   8:.\Generated_Source\PSoC4/UART_RX_ISR.c **** *
   9:.\Generated_Source\PSoC4/UART_RX_ISR.c **** *  Note:
  10:.\Generated_Source\PSoC4/UART_RX_ISR.c **** *
  11:.\Generated_Source\PSoC4/UART_RX_ISR.c **** ********************************************************************************
  12:.\Generated_Source\PSoC4/UART_RX_ISR.c **** * Copyright 2008-2012, Cypress Semiconductor Corporation.  All rights reserved.
  13:.\Generated_Source\PSoC4/UART_RX_ISR.c **** * You may use this file only in accordance with the license, terms, conditions, 
  14:.\Generated_Source\PSoC4/UART_RX_ISR.c **** * disclaimers, and limitations in the end user license agreement accompanying 
  15:.\Generated_Source\PSoC4/UART_RX_ISR.c **** * the software package with which this file was provided.
  16:.\Generated_Source\PSoC4/UART_RX_ISR.c **** *******************************************************************************/
  17:.\Generated_Source\PSoC4/UART_RX_ISR.c **** 
  18:.\Generated_Source\PSoC4/UART_RX_ISR.c **** 
  19:.\Generated_Source\PSoC4/UART_RX_ISR.c **** #include <cydevice_trm.h>
  20:.\Generated_Source\PSoC4/UART_RX_ISR.c **** #include <CyLib.h>
  21:.\Generated_Source\PSoC4/UART_RX_ISR.c **** #include <UART_RX_ISR.h>
  22:.\Generated_Source\PSoC4/UART_RX_ISR.c **** 
  23:.\Generated_Source\PSoC4/UART_RX_ISR.c **** #if !defined(UART_RX_ISR__REMOVED) /* Check for removal by optimization */
  24:.\Generated_Source\PSoC4/UART_RX_ISR.c **** 
  25:.\Generated_Source\PSoC4/UART_RX_ISR.c **** /*******************************************************************************
  26:.\Generated_Source\PSoC4/UART_RX_ISR.c **** *  Place your includes, defines and code here 
  27:.\Generated_Source\PSoC4/UART_RX_ISR.c **** ********************************************************************************/
  28:.\Generated_Source\PSoC4/UART_RX_ISR.c **** /* `#START UART_RX_ISR_intc` */
  29:.\Generated_Source\PSoC4/UART_RX_ISR.c ****     #include <UART.h>
  30:.\Generated_Source\PSoC4/UART_RX_ISR.c ****     extern uint8 flag;
  31:.\Generated_Source\PSoC4/UART_RX_ISR.c **** /* `#END` */
  32:.\Generated_Source\PSoC4/UART_RX_ISR.c **** 
ARM GAS  C:\Users\Sam\AppData\Local\Temp\cc6NNgiN.s 			page 2


  33:.\Generated_Source\PSoC4/UART_RX_ISR.c **** extern cyisraddress CyRamVectors[CYINT_IRQ_BASE + CY_NUM_INTERRUPTS];
  34:.\Generated_Source\PSoC4/UART_RX_ISR.c **** 
  35:.\Generated_Source\PSoC4/UART_RX_ISR.c **** /* Declared in startup, used to set unused interrupts to. */
  36:.\Generated_Source\PSoC4/UART_RX_ISR.c **** CY_ISR_PROTO(IntDefaultHandler);
  37:.\Generated_Source\PSoC4/UART_RX_ISR.c **** 
  38:.\Generated_Source\PSoC4/UART_RX_ISR.c **** 
  39:.\Generated_Source\PSoC4/UART_RX_ISR.c **** /*******************************************************************************
  40:.\Generated_Source\PSoC4/UART_RX_ISR.c **** * Function Name: UART_RX_ISR_Start
  41:.\Generated_Source\PSoC4/UART_RX_ISR.c **** ********************************************************************************
  42:.\Generated_Source\PSoC4/UART_RX_ISR.c **** *
  43:.\Generated_Source\PSoC4/UART_RX_ISR.c **** * Summary:
  44:.\Generated_Source\PSoC4/UART_RX_ISR.c **** *  Set up the interrupt and enable it.
  45:.\Generated_Source\PSoC4/UART_RX_ISR.c **** *
  46:.\Generated_Source\PSoC4/UART_RX_ISR.c **** * Parameters:  
  47:.\Generated_Source\PSoC4/UART_RX_ISR.c **** *   None
  48:.\Generated_Source\PSoC4/UART_RX_ISR.c **** *
  49:.\Generated_Source\PSoC4/UART_RX_ISR.c **** * Return:
  50:.\Generated_Source\PSoC4/UART_RX_ISR.c **** *   None
  51:.\Generated_Source\PSoC4/UART_RX_ISR.c **** *
  52:.\Generated_Source\PSoC4/UART_RX_ISR.c **** *******************************************************************************/
  53:.\Generated_Source\PSoC4/UART_RX_ISR.c **** void UART_RX_ISR_Start(void)
  54:.\Generated_Source\PSoC4/UART_RX_ISR.c **** {
  26              		.loc 1 54 0
  27              		.cfi_startproc
  28 0000 80B5     		push	{r7, lr}
  29              	.LCFI0:
  30              		.cfi_def_cfa_offset 8
  31              		.cfi_offset 7, -8
  32              		.cfi_offset 14, -4
  33 0002 00AF     		add	r7, sp, #0
  34              	.LCFI1:
  35              		.cfi_def_cfa_register 7
  55:.\Generated_Source\PSoC4/UART_RX_ISR.c ****     /* For all we know the interrupt is active. */
  56:.\Generated_Source\PSoC4/UART_RX_ISR.c ****     UART_RX_ISR_Disable();
  36              		.loc 1 56 0
  37 0004 FFF7FEFF 		bl	UART_RX_ISR_Disable
  57:.\Generated_Source\PSoC4/UART_RX_ISR.c **** 
  58:.\Generated_Source\PSoC4/UART_RX_ISR.c ****     /* Set the ISR to point to the UART_RX_ISR Interrupt. */
  59:.\Generated_Source\PSoC4/UART_RX_ISR.c ****     UART_RX_ISR_SetVector(&UART_RX_ISR_Interrupt);
  38              		.loc 1 59 0
  39 0008 054B     		ldr	r3, .L2
  40 000a 181C     		mov	r0, r3
  41 000c FFF7FEFF 		bl	UART_RX_ISR_SetVector
  60:.\Generated_Source\PSoC4/UART_RX_ISR.c **** 
  61:.\Generated_Source\PSoC4/UART_RX_ISR.c ****     /* Set the priority. */
  62:.\Generated_Source\PSoC4/UART_RX_ISR.c ****     UART_RX_ISR_SetPriority((uint8)UART_RX_ISR_INTC_PRIOR_NUMBER);
  42              		.loc 1 62 0
  43 0010 0320     		mov	r0, #3
  44 0012 FFF7FEFF 		bl	UART_RX_ISR_SetPriority
  63:.\Generated_Source\PSoC4/UART_RX_ISR.c **** 
  64:.\Generated_Source\PSoC4/UART_RX_ISR.c ****     /* Enable it. */
  65:.\Generated_Source\PSoC4/UART_RX_ISR.c ****     UART_RX_ISR_Enable();
  45              		.loc 1 65 0
  46 0016 FFF7FEFF 		bl	UART_RX_ISR_Enable
  66:.\Generated_Source\PSoC4/UART_RX_ISR.c **** }
  47              		.loc 1 66 0
  48 001a BD46     		mov	sp, r7
ARM GAS  C:\Users\Sam\AppData\Local\Temp\cc6NNgiN.s 			page 3


  49              		@ sp needed for prologue
  50 001c 80BD     		pop	{r7, pc}
  51              	.L3:
  52 001e C046     		.align	2
  53              	.L2:
  54 0020 00000000 		.word	UART_RX_ISR_Interrupt
  55              		.cfi_endproc
  56              	.LFE0:
  57              		.size	UART_RX_ISR_Start, .-UART_RX_ISR_Start
  58              		.section	.text.UART_RX_ISR_StartEx,"ax",%progbits
  59              		.align	2
  60              		.global	UART_RX_ISR_StartEx
  61              		.code	16
  62              		.thumb_func
  63              		.type	UART_RX_ISR_StartEx, %function
  64              	UART_RX_ISR_StartEx:
  65              	.LFB1:
  67:.\Generated_Source\PSoC4/UART_RX_ISR.c **** 
  68:.\Generated_Source\PSoC4/UART_RX_ISR.c **** 
  69:.\Generated_Source\PSoC4/UART_RX_ISR.c **** /*******************************************************************************
  70:.\Generated_Source\PSoC4/UART_RX_ISR.c **** * Function Name: UART_RX_ISR_StartEx
  71:.\Generated_Source\PSoC4/UART_RX_ISR.c **** ********************************************************************************
  72:.\Generated_Source\PSoC4/UART_RX_ISR.c **** *
  73:.\Generated_Source\PSoC4/UART_RX_ISR.c **** * Summary:
  74:.\Generated_Source\PSoC4/UART_RX_ISR.c **** *  Set up the interrupt and enable it.
  75:.\Generated_Source\PSoC4/UART_RX_ISR.c **** *
  76:.\Generated_Source\PSoC4/UART_RX_ISR.c **** * Parameters:  
  77:.\Generated_Source\PSoC4/UART_RX_ISR.c **** *   address: Address of the ISR to set in the interrupt vector table.
  78:.\Generated_Source\PSoC4/UART_RX_ISR.c **** *
  79:.\Generated_Source\PSoC4/UART_RX_ISR.c **** * Return:
  80:.\Generated_Source\PSoC4/UART_RX_ISR.c **** *   None
  81:.\Generated_Source\PSoC4/UART_RX_ISR.c **** *
  82:.\Generated_Source\PSoC4/UART_RX_ISR.c **** *******************************************************************************/
  83:.\Generated_Source\PSoC4/UART_RX_ISR.c **** void UART_RX_ISR_StartEx(cyisraddress address)
  84:.\Generated_Source\PSoC4/UART_RX_ISR.c **** {
  66              		.loc 1 84 0
  67              		.cfi_startproc
  68 0000 80B5     		push	{r7, lr}
  69              	.LCFI2:
  70              		.cfi_def_cfa_offset 8
  71              		.cfi_offset 7, -8
  72              		.cfi_offset 14, -4
  73 0002 82B0     		sub	sp, sp, #8
  74              	.LCFI3:
  75              		.cfi_def_cfa_offset 16
  76 0004 00AF     		add	r7, sp, #0
  77              	.LCFI4:
  78              		.cfi_def_cfa_register 7
  79 0006 7860     		str	r0, [r7, #4]
  85:.\Generated_Source\PSoC4/UART_RX_ISR.c ****     /* For all we know the interrupt is active. */
  86:.\Generated_Source\PSoC4/UART_RX_ISR.c ****     UART_RX_ISR_Disable();
  80              		.loc 1 86 0
  81 0008 FFF7FEFF 		bl	UART_RX_ISR_Disable
  87:.\Generated_Source\PSoC4/UART_RX_ISR.c **** 
  88:.\Generated_Source\PSoC4/UART_RX_ISR.c ****     /* Set the ISR to point to the UART_RX_ISR Interrupt. */
  89:.\Generated_Source\PSoC4/UART_RX_ISR.c ****     UART_RX_ISR_SetVector(address);
  82              		.loc 1 89 0
ARM GAS  C:\Users\Sam\AppData\Local\Temp\cc6NNgiN.s 			page 4


  83 000c 7B68     		ldr	r3, [r7, #4]
  84 000e 181C     		mov	r0, r3
  85 0010 FFF7FEFF 		bl	UART_RX_ISR_SetVector
  90:.\Generated_Source\PSoC4/UART_RX_ISR.c **** 
  91:.\Generated_Source\PSoC4/UART_RX_ISR.c ****     /* Set the priority. */
  92:.\Generated_Source\PSoC4/UART_RX_ISR.c ****     UART_RX_ISR_SetPriority((uint8)UART_RX_ISR_INTC_PRIOR_NUMBER);
  86              		.loc 1 92 0
  87 0014 0320     		mov	r0, #3
  88 0016 FFF7FEFF 		bl	UART_RX_ISR_SetPriority
  93:.\Generated_Source\PSoC4/UART_RX_ISR.c **** 
  94:.\Generated_Source\PSoC4/UART_RX_ISR.c ****     /* Enable it. */
  95:.\Generated_Source\PSoC4/UART_RX_ISR.c ****     UART_RX_ISR_Enable();
  89              		.loc 1 95 0
  90 001a FFF7FEFF 		bl	UART_RX_ISR_Enable
  96:.\Generated_Source\PSoC4/UART_RX_ISR.c **** }
  91              		.loc 1 96 0
  92 001e BD46     		mov	sp, r7
  93 0020 02B0     		add	sp, sp, #8
  94              		@ sp needed for prologue
  95 0022 80BD     		pop	{r7, pc}
  96              		.cfi_endproc
  97              	.LFE1:
  98              		.size	UART_RX_ISR_StartEx, .-UART_RX_ISR_StartEx
  99              		.section	.text.UART_RX_ISR_Stop,"ax",%progbits
 100              		.align	2
 101              		.global	UART_RX_ISR_Stop
 102              		.code	16
 103              		.thumb_func
 104              		.type	UART_RX_ISR_Stop, %function
 105              	UART_RX_ISR_Stop:
 106              	.LFB2:
  97:.\Generated_Source\PSoC4/UART_RX_ISR.c **** 
  98:.\Generated_Source\PSoC4/UART_RX_ISR.c **** 
  99:.\Generated_Source\PSoC4/UART_RX_ISR.c **** /*******************************************************************************
 100:.\Generated_Source\PSoC4/UART_RX_ISR.c **** * Function Name: UART_RX_ISR_Stop
 101:.\Generated_Source\PSoC4/UART_RX_ISR.c **** ********************************************************************************
 102:.\Generated_Source\PSoC4/UART_RX_ISR.c **** *
 103:.\Generated_Source\PSoC4/UART_RX_ISR.c **** * Summary:
 104:.\Generated_Source\PSoC4/UART_RX_ISR.c **** *   Disables and removes the interrupt.
 105:.\Generated_Source\PSoC4/UART_RX_ISR.c **** *
 106:.\Generated_Source\PSoC4/UART_RX_ISR.c **** * Parameters:  
 107:.\Generated_Source\PSoC4/UART_RX_ISR.c **** *
 108:.\Generated_Source\PSoC4/UART_RX_ISR.c **** * Return:
 109:.\Generated_Source\PSoC4/UART_RX_ISR.c **** *   None
 110:.\Generated_Source\PSoC4/UART_RX_ISR.c **** *
 111:.\Generated_Source\PSoC4/UART_RX_ISR.c **** *******************************************************************************/
 112:.\Generated_Source\PSoC4/UART_RX_ISR.c **** void UART_RX_ISR_Stop(void)
 113:.\Generated_Source\PSoC4/UART_RX_ISR.c **** {
 107              		.loc 1 113 0
 108              		.cfi_startproc
 109 0000 80B5     		push	{r7, lr}
 110              	.LCFI5:
 111              		.cfi_def_cfa_offset 8
 112              		.cfi_offset 7, -8
 113              		.cfi_offset 14, -4
 114 0002 00AF     		add	r7, sp, #0
 115              	.LCFI6:
ARM GAS  C:\Users\Sam\AppData\Local\Temp\cc6NNgiN.s 			page 5


 116              		.cfi_def_cfa_register 7
 114:.\Generated_Source\PSoC4/UART_RX_ISR.c ****     /* Disable this interrupt. */
 115:.\Generated_Source\PSoC4/UART_RX_ISR.c ****     UART_RX_ISR_Disable();
 117              		.loc 1 115 0
 118 0004 FFF7FEFF 		bl	UART_RX_ISR_Disable
 116:.\Generated_Source\PSoC4/UART_RX_ISR.c **** 
 117:.\Generated_Source\PSoC4/UART_RX_ISR.c ****     /* Set the ISR to point to the passive one. */
 118:.\Generated_Source\PSoC4/UART_RX_ISR.c ****     UART_RX_ISR_SetVector(&IntDefaultHandler);
 119              		.loc 1 118 0
 120 0008 024B     		ldr	r3, .L6
 121 000a 181C     		mov	r0, r3
 122 000c FFF7FEFF 		bl	UART_RX_ISR_SetVector
 119:.\Generated_Source\PSoC4/UART_RX_ISR.c **** }
 123              		.loc 1 119 0
 124 0010 BD46     		mov	sp, r7
 125              		@ sp needed for prologue
 126 0012 80BD     		pop	{r7, pc}
 127              	.L7:
 128              		.align	2
 129              	.L6:
 130 0014 00000000 		.word	IntDefaultHandler
 131              		.cfi_endproc
 132              	.LFE2:
 133              		.size	UART_RX_ISR_Stop, .-UART_RX_ISR_Stop
 134              		.section	.text.UART_RX_ISR_Interrupt,"ax",%progbits
 135              		.align	2
 136              		.global	UART_RX_ISR_Interrupt
 137              		.code	16
 138              		.thumb_func
 139              		.type	UART_RX_ISR_Interrupt, %function
 140              	UART_RX_ISR_Interrupt:
 141              	.LFB3:
 120:.\Generated_Source\PSoC4/UART_RX_ISR.c **** 
 121:.\Generated_Source\PSoC4/UART_RX_ISR.c **** 
 122:.\Generated_Source\PSoC4/UART_RX_ISR.c **** /*******************************************************************************
 123:.\Generated_Source\PSoC4/UART_RX_ISR.c **** * Function Name: UART_RX_ISR_Interrupt
 124:.\Generated_Source\PSoC4/UART_RX_ISR.c **** ********************************************************************************
 125:.\Generated_Source\PSoC4/UART_RX_ISR.c **** *
 126:.\Generated_Source\PSoC4/UART_RX_ISR.c **** * Summary:
 127:.\Generated_Source\PSoC4/UART_RX_ISR.c **** *   The default Interrupt Service Routine for UART_RX_ISR.
 128:.\Generated_Source\PSoC4/UART_RX_ISR.c **** *
 129:.\Generated_Source\PSoC4/UART_RX_ISR.c **** *   Add custom code between the coments to keep the next version of this file
 130:.\Generated_Source\PSoC4/UART_RX_ISR.c **** *   from over writting your code.
 131:.\Generated_Source\PSoC4/UART_RX_ISR.c **** *
 132:.\Generated_Source\PSoC4/UART_RX_ISR.c **** * Parameters:  
 133:.\Generated_Source\PSoC4/UART_RX_ISR.c **** *   None
 134:.\Generated_Source\PSoC4/UART_RX_ISR.c **** *
 135:.\Generated_Source\PSoC4/UART_RX_ISR.c **** * Return:
 136:.\Generated_Source\PSoC4/UART_RX_ISR.c **** *   None
 137:.\Generated_Source\PSoC4/UART_RX_ISR.c **** *
 138:.\Generated_Source\PSoC4/UART_RX_ISR.c **** *******************************************************************************/
 139:.\Generated_Source\PSoC4/UART_RX_ISR.c **** CY_ISR(UART_RX_ISR_Interrupt)
 140:.\Generated_Source\PSoC4/UART_RX_ISR.c **** {
 142              		.loc 1 140 0
 143              		.cfi_startproc
 144 0000 80B5     		push	{r7, lr}
 145              	.LCFI7:
ARM GAS  C:\Users\Sam\AppData\Local\Temp\cc6NNgiN.s 			page 6


 146              		.cfi_def_cfa_offset 8
 147              		.cfi_offset 7, -8
 148              		.cfi_offset 14, -4
 149 0002 00AF     		add	r7, sp, #0
 150              	.LCFI8:
 151              		.cfi_def_cfa_register 7
 141:.\Generated_Source\PSoC4/UART_RX_ISR.c ****     /*  Place your Interrupt code here. */
 142:.\Generated_Source\PSoC4/UART_RX_ISR.c ****     /* `#START UART_RX_ISR_Interrupt` */
 143:.\Generated_Source\PSoC4/UART_RX_ISR.c ****     
 144:.\Generated_Source\PSoC4/UART_RX_ISR.c ****     //flag = 1; 
 145:.\Generated_Source\PSoC4/UART_RX_ISR.c ****     
 146:.\Generated_Source\PSoC4/UART_RX_ISR.c ****     //source = UART_GetRxInterruptSourceMasked();
 147:.\Generated_Source\PSoC4/UART_RX_ISR.c ****    // UART_ClearRxInterruptSource(source);
 148:.\Generated_Source\PSoC4/UART_RX_ISR.c **** 
 149:.\Generated_Source\PSoC4/UART_RX_ISR.c ****     /* `#END` */
 150:.\Generated_Source\PSoC4/UART_RX_ISR.c **** }
 152              		.loc 1 150 0
 153 0004 BD46     		mov	sp, r7
 154              		@ sp needed for prologue
 155 0006 80BD     		pop	{r7, pc}
 156              		.cfi_endproc
 157              	.LFE3:
 158              		.size	UART_RX_ISR_Interrupt, .-UART_RX_ISR_Interrupt
 159              		.section	.text.UART_RX_ISR_SetVector,"ax",%progbits
 160              		.align	2
 161              		.global	UART_RX_ISR_SetVector
 162              		.code	16
 163              		.thumb_func
 164              		.type	UART_RX_ISR_SetVector, %function
 165              	UART_RX_ISR_SetVector:
 166              	.LFB4:
 151:.\Generated_Source\PSoC4/UART_RX_ISR.c **** 
 152:.\Generated_Source\PSoC4/UART_RX_ISR.c **** 
 153:.\Generated_Source\PSoC4/UART_RX_ISR.c **** /*******************************************************************************
 154:.\Generated_Source\PSoC4/UART_RX_ISR.c **** * Function Name: UART_RX_ISR_SetVector
 155:.\Generated_Source\PSoC4/UART_RX_ISR.c **** ********************************************************************************
 156:.\Generated_Source\PSoC4/UART_RX_ISR.c **** *
 157:.\Generated_Source\PSoC4/UART_RX_ISR.c **** * Summary:
 158:.\Generated_Source\PSoC4/UART_RX_ISR.c **** *   Change the ISR vector for the Interrupt. Note calling UART_RX_ISR_Start
 159:.\Generated_Source\PSoC4/UART_RX_ISR.c **** *   will override any effect this method would have had. To set the vector 
 160:.\Generated_Source\PSoC4/UART_RX_ISR.c **** *   before the component has been started use UART_RX_ISR_StartEx instead.
 161:.\Generated_Source\PSoC4/UART_RX_ISR.c **** *
 162:.\Generated_Source\PSoC4/UART_RX_ISR.c **** * Parameters:
 163:.\Generated_Source\PSoC4/UART_RX_ISR.c **** *   address: Address of the ISR to set in the interrupt vector table.
 164:.\Generated_Source\PSoC4/UART_RX_ISR.c **** *
 165:.\Generated_Source\PSoC4/UART_RX_ISR.c **** * Return:
 166:.\Generated_Source\PSoC4/UART_RX_ISR.c **** *   None
 167:.\Generated_Source\PSoC4/UART_RX_ISR.c **** *
 168:.\Generated_Source\PSoC4/UART_RX_ISR.c **** *******************************************************************************/
 169:.\Generated_Source\PSoC4/UART_RX_ISR.c **** void UART_RX_ISR_SetVector(cyisraddress address)
 170:.\Generated_Source\PSoC4/UART_RX_ISR.c **** {
 167              		.loc 1 170 0
 168              		.cfi_startproc
 169 0000 80B5     		push	{r7, lr}
 170              	.LCFI9:
 171              		.cfi_def_cfa_offset 8
 172              		.cfi_offset 7, -8
ARM GAS  C:\Users\Sam\AppData\Local\Temp\cc6NNgiN.s 			page 7


 173              		.cfi_offset 14, -4
 174 0002 82B0     		sub	sp, sp, #8
 175              	.LCFI10:
 176              		.cfi_def_cfa_offset 16
 177 0004 00AF     		add	r7, sp, #0
 178              	.LCFI11:
 179              		.cfi_def_cfa_register 7
 180 0006 7860     		str	r0, [r7, #4]
 171:.\Generated_Source\PSoC4/UART_RX_ISR.c ****     CyRamVectors[CYINT_IRQ_BASE + UART_RX_ISR__INTC_NUMBER] = address;
 181              		.loc 1 171 0
 182 0008 024B     		ldr	r3, .L10
 183 000a 7A68     		ldr	r2, [r7, #4]
 184 000c 9A66     		str	r2, [r3, #104]
 172:.\Generated_Source\PSoC4/UART_RX_ISR.c **** }
 185              		.loc 1 172 0
 186 000e BD46     		mov	sp, r7
 187 0010 02B0     		add	sp, sp, #8
 188              		@ sp needed for prologue
 189 0012 80BD     		pop	{r7, pc}
 190              	.L11:
 191              		.align	2
 192              	.L10:
 193 0014 00000000 		.word	CyRamVectors
 194              		.cfi_endproc
 195              	.LFE4:
 196              		.size	UART_RX_ISR_SetVector, .-UART_RX_ISR_SetVector
 197              		.section	.text.UART_RX_ISR_GetVector,"ax",%progbits
 198              		.align	2
 199              		.global	UART_RX_ISR_GetVector
 200              		.code	16
 201              		.thumb_func
 202              		.type	UART_RX_ISR_GetVector, %function
 203              	UART_RX_ISR_GetVector:
 204              	.LFB5:
 173:.\Generated_Source\PSoC4/UART_RX_ISR.c **** 
 174:.\Generated_Source\PSoC4/UART_RX_ISR.c **** 
 175:.\Generated_Source\PSoC4/UART_RX_ISR.c **** /*******************************************************************************
 176:.\Generated_Source\PSoC4/UART_RX_ISR.c **** * Function Name: UART_RX_ISR_GetVector
 177:.\Generated_Source\PSoC4/UART_RX_ISR.c **** ********************************************************************************
 178:.\Generated_Source\PSoC4/UART_RX_ISR.c **** *
 179:.\Generated_Source\PSoC4/UART_RX_ISR.c **** * Summary:
 180:.\Generated_Source\PSoC4/UART_RX_ISR.c **** *   Gets the "address" of the current ISR vector for the Interrupt.
 181:.\Generated_Source\PSoC4/UART_RX_ISR.c **** *
 182:.\Generated_Source\PSoC4/UART_RX_ISR.c **** * Parameters:
 183:.\Generated_Source\PSoC4/UART_RX_ISR.c **** *   None
 184:.\Generated_Source\PSoC4/UART_RX_ISR.c **** *
 185:.\Generated_Source\PSoC4/UART_RX_ISR.c **** * Return:
 186:.\Generated_Source\PSoC4/UART_RX_ISR.c **** *   Address of the ISR in the interrupt vector table.
 187:.\Generated_Source\PSoC4/UART_RX_ISR.c **** *
 188:.\Generated_Source\PSoC4/UART_RX_ISR.c **** *******************************************************************************/
 189:.\Generated_Source\PSoC4/UART_RX_ISR.c **** cyisraddress UART_RX_ISR_GetVector(void)
 190:.\Generated_Source\PSoC4/UART_RX_ISR.c **** {
 205              		.loc 1 190 0
 206              		.cfi_startproc
 207 0000 80B5     		push	{r7, lr}
 208              	.LCFI12:
 209              		.cfi_def_cfa_offset 8
ARM GAS  C:\Users\Sam\AppData\Local\Temp\cc6NNgiN.s 			page 8


 210              		.cfi_offset 7, -8
 211              		.cfi_offset 14, -4
 212 0002 00AF     		add	r7, sp, #0
 213              	.LCFI13:
 214              		.cfi_def_cfa_register 7
 191:.\Generated_Source\PSoC4/UART_RX_ISR.c ****     return CyRamVectors[CYINT_IRQ_BASE + UART_RX_ISR__INTC_NUMBER];
 215              		.loc 1 191 0
 216 0004 024B     		ldr	r3, .L14
 217 0006 9B6E     		ldr	r3, [r3, #104]
 192:.\Generated_Source\PSoC4/UART_RX_ISR.c **** }
 218              		.loc 1 192 0
 219 0008 181C     		mov	r0, r3
 220 000a BD46     		mov	sp, r7
 221              		@ sp needed for prologue
 222 000c 80BD     		pop	{r7, pc}
 223              	.L15:
 224 000e C046     		.align	2
 225              	.L14:
 226 0010 00000000 		.word	CyRamVectors
 227              		.cfi_endproc
 228              	.LFE5:
 229              		.size	UART_RX_ISR_GetVector, .-UART_RX_ISR_GetVector
 230              		.section	.text.UART_RX_ISR_SetPriority,"ax",%progbits
 231              		.align	2
 232              		.global	UART_RX_ISR_SetPriority
 233              		.code	16
 234              		.thumb_func
 235              		.type	UART_RX_ISR_SetPriority, %function
 236              	UART_RX_ISR_SetPriority:
 237              	.LFB6:
 193:.\Generated_Source\PSoC4/UART_RX_ISR.c **** 
 194:.\Generated_Source\PSoC4/UART_RX_ISR.c **** 
 195:.\Generated_Source\PSoC4/UART_RX_ISR.c **** /*******************************************************************************
 196:.\Generated_Source\PSoC4/UART_RX_ISR.c **** * Function Name: UART_RX_ISR_SetPriority
 197:.\Generated_Source\PSoC4/UART_RX_ISR.c **** ********************************************************************************
 198:.\Generated_Source\PSoC4/UART_RX_ISR.c **** *
 199:.\Generated_Source\PSoC4/UART_RX_ISR.c **** * Summary:
 200:.\Generated_Source\PSoC4/UART_RX_ISR.c **** *   Sets the Priority of the Interrupt. Note calling UART_RX_ISR_Start
 201:.\Generated_Source\PSoC4/UART_RX_ISR.c **** *   or UART_RX_ISR_StartEx will override any effect this method would 
 202:.\Generated_Source\PSoC4/UART_RX_ISR.c **** *   have had. This method should only be called after UART_RX_ISR_Start or 
 203:.\Generated_Source\PSoC4/UART_RX_ISR.c **** *   UART_RX_ISR_StartEx has been called. To set the initial
 204:.\Generated_Source\PSoC4/UART_RX_ISR.c **** *   priority for the component use the cydwr file in the tool.
 205:.\Generated_Source\PSoC4/UART_RX_ISR.c **** *
 206:.\Generated_Source\PSoC4/UART_RX_ISR.c **** * Parameters:
 207:.\Generated_Source\PSoC4/UART_RX_ISR.c **** *   priority: Priority of the interrupt. 0 - 3, 0 being the highest.
 208:.\Generated_Source\PSoC4/UART_RX_ISR.c **** *
 209:.\Generated_Source\PSoC4/UART_RX_ISR.c **** * Return:
 210:.\Generated_Source\PSoC4/UART_RX_ISR.c **** *   None
 211:.\Generated_Source\PSoC4/UART_RX_ISR.c **** *
 212:.\Generated_Source\PSoC4/UART_RX_ISR.c **** *******************************************************************************/
 213:.\Generated_Source\PSoC4/UART_RX_ISR.c **** void UART_RX_ISR_SetPriority(uint8 priority)
 214:.\Generated_Source\PSoC4/UART_RX_ISR.c **** {
 238              		.loc 1 214 0
 239              		.cfi_startproc
 240 0000 90B5     		push	{r4, r7, lr}
 241              	.LCFI14:
 242              		.cfi_def_cfa_offset 12
ARM GAS  C:\Users\Sam\AppData\Local\Temp\cc6NNgiN.s 			page 9


 243              		.cfi_offset 4, -12
 244              		.cfi_offset 7, -8
 245              		.cfi_offset 14, -4
 246 0002 85B0     		sub	sp, sp, #20
 247              	.LCFI15:
 248              		.cfi_def_cfa_offset 32
 249 0004 00AF     		add	r7, sp, #0
 250              	.LCFI16:
 251              		.cfi_def_cfa_register 7
 252 0006 021C     		mov	r2, r0
 253 0008 FB1D     		add	r3, r7, #7
 254 000a 1A70     		strb	r2, [r3]
 215:.\Generated_Source\PSoC4/UART_RX_ISR.c **** 	uint8 interruptState;
 216:.\Generated_Source\PSoC4/UART_RX_ISR.c ****     uint32 priorityOffset = ((UART_RX_ISR__INTC_NUMBER % 4u) * 8u) + 6u;
 255              		.loc 1 216 0
 256 000c 1623     		mov	r3, #22
 257 000e FB60     		str	r3, [r7, #12]
 217:.\Generated_Source\PSoC4/UART_RX_ISR.c ****     
 218:.\Generated_Source\PSoC4/UART_RX_ISR.c **** 	interruptState = CyEnterCriticalSection();
 258              		.loc 1 218 0
 259 0010 3C1C     		mov	r4, r7
 260 0012 0B34     		add	r4, r4, #11
 261 0014 FFF7FEFF 		bl	CyEnterCriticalSection
 262 0018 031C     		mov	r3, r0
 263 001a 2370     		strb	r3, [r4]
 219:.\Generated_Source\PSoC4/UART_RX_ISR.c ****     *UART_RX_ISR_INTC_PRIOR = (*UART_RX_ISR_INTC_PRIOR & (uint32)(~UART_RX_ISR__INTC_PRIOR_MASK)) |
 264              		.loc 1 219 0
 265 001c 0A4B     		ldr	r3, .L17
 266 001e 0A4A     		ldr	r2, .L17
 267 0020 1168     		ldr	r1, [r2]
 268 0022 0A4A     		ldr	r2, .L17+4
 269 0024 1140     		and	r1, r2
 220:.\Generated_Source\PSoC4/UART_RX_ISR.c ****                                     ((uint32)priority << priorityOffset);
 270              		.loc 1 220 0
 271 0026 FA1D     		add	r2, r7, #7
 272 0028 1078     		ldrb	r0, [r2]
 273 002a FA68     		ldr	r2, [r7, #12]
 274 002c 041C     		mov	r4, r0
 275 002e 9440     		lsl	r4, r4, r2
 276 0030 221C     		mov	r2, r4
 219:.\Generated_Source\PSoC4/UART_RX_ISR.c ****     *UART_RX_ISR_INTC_PRIOR = (*UART_RX_ISR_INTC_PRIOR & (uint32)(~UART_RX_ISR__INTC_PRIOR_MASK)) |
 277              		.loc 1 219 0
 278 0032 0A43     		orr	r2, r1
 279 0034 1A60     		str	r2, [r3]
 221:.\Generated_Source\PSoC4/UART_RX_ISR.c **** 	CyExitCriticalSection(interruptState);
 280              		.loc 1 221 0
 281 0036 3B1C     		mov	r3, r7
 282 0038 0B33     		add	r3, r3, #11
 283 003a 1B78     		ldrb	r3, [r3]
 284 003c 181C     		mov	r0, r3
 285 003e FFF7FEFF 		bl	CyExitCriticalSection
 222:.\Generated_Source\PSoC4/UART_RX_ISR.c **** }
 286              		.loc 1 222 0
 287 0042 BD46     		mov	sp, r7
 288 0044 05B0     		add	sp, sp, #20
 289              		@ sp needed for prologue
 290 0046 90BD     		pop	{r4, r7, pc}
ARM GAS  C:\Users\Sam\AppData\Local\Temp\cc6NNgiN.s 			page 10


 291              	.L18:
 292              		.align	2
 293              	.L17:
 294 0048 08E400E0 		.word	-536812536
 295 004c FFFF3FFF 		.word	-12582913
 296              		.cfi_endproc
 297              	.LFE6:
 298              		.size	UART_RX_ISR_SetPriority, .-UART_RX_ISR_SetPriority
 299              		.section	.text.UART_RX_ISR_GetPriority,"ax",%progbits
 300              		.align	2
 301              		.global	UART_RX_ISR_GetPriority
 302              		.code	16
 303              		.thumb_func
 304              		.type	UART_RX_ISR_GetPriority, %function
 305              	UART_RX_ISR_GetPriority:
 306              	.LFB7:
 223:.\Generated_Source\PSoC4/UART_RX_ISR.c **** 
 224:.\Generated_Source\PSoC4/UART_RX_ISR.c **** 
 225:.\Generated_Source\PSoC4/UART_RX_ISR.c **** /*******************************************************************************
 226:.\Generated_Source\PSoC4/UART_RX_ISR.c **** * Function Name: UART_RX_ISR_GetPriority
 227:.\Generated_Source\PSoC4/UART_RX_ISR.c **** ********************************************************************************
 228:.\Generated_Source\PSoC4/UART_RX_ISR.c **** *
 229:.\Generated_Source\PSoC4/UART_RX_ISR.c **** * Summary:
 230:.\Generated_Source\PSoC4/UART_RX_ISR.c **** *   Gets the Priority of the Interrupt.
 231:.\Generated_Source\PSoC4/UART_RX_ISR.c **** *
 232:.\Generated_Source\PSoC4/UART_RX_ISR.c **** * Parameters:
 233:.\Generated_Source\PSoC4/UART_RX_ISR.c **** *   None
 234:.\Generated_Source\PSoC4/UART_RX_ISR.c **** *
 235:.\Generated_Source\PSoC4/UART_RX_ISR.c **** * Return:
 236:.\Generated_Source\PSoC4/UART_RX_ISR.c **** *   Priority of the interrupt. 0 - 3, 0 being the highest.
 237:.\Generated_Source\PSoC4/UART_RX_ISR.c **** *
 238:.\Generated_Source\PSoC4/UART_RX_ISR.c **** *******************************************************************************/
 239:.\Generated_Source\PSoC4/UART_RX_ISR.c **** uint8 UART_RX_ISR_GetPriority(void)
 240:.\Generated_Source\PSoC4/UART_RX_ISR.c **** {
 307              		.loc 1 240 0
 308              		.cfi_startproc
 309 0000 80B5     		push	{r7, lr}
 310              	.LCFI17:
 311              		.cfi_def_cfa_offset 8
 312              		.cfi_offset 7, -8
 313              		.cfi_offset 14, -4
 314 0002 82B0     		sub	sp, sp, #8
 315              	.LCFI18:
 316              		.cfi_def_cfa_offset 16
 317 0004 00AF     		add	r7, sp, #0
 318              	.LCFI19:
 319              		.cfi_def_cfa_register 7
 241:.\Generated_Source\PSoC4/UART_RX_ISR.c ****     uint32 priority;
 242:.\Generated_Source\PSoC4/UART_RX_ISR.c **** 	uint32 priorityOffset = ((UART_RX_ISR__INTC_NUMBER % 4u) * 8u) + 6u;
 320              		.loc 1 242 0
 321 0006 1623     		mov	r3, #22
 322 0008 7B60     		str	r3, [r7, #4]
 243:.\Generated_Source\PSoC4/UART_RX_ISR.c **** 
 244:.\Generated_Source\PSoC4/UART_RX_ISR.c ****     priority = (*UART_RX_ISR_INTC_PRIOR & UART_RX_ISR__INTC_PRIOR_MASK) >> priorityOffset;
 323              		.loc 1 244 0
 324 000a 084B     		ldr	r3, .L21
 325 000c 1A68     		ldr	r2, [r3]
ARM GAS  C:\Users\Sam\AppData\Local\Temp\cc6NNgiN.s 			page 11


 326 000e C023     		mov	r3, #192
 327 0010 1B04     		lsl	r3, r3, #16
 328 0012 1A40     		and	r2, r3
 329 0014 7B68     		ldr	r3, [r7, #4]
 330 0016 111C     		mov	r1, r2
 331 0018 D940     		lsr	r1, r1, r3
 332 001a 0B1C     		mov	r3, r1
 333 001c 3B60     		str	r3, [r7]
 245:.\Generated_Source\PSoC4/UART_RX_ISR.c **** 
 246:.\Generated_Source\PSoC4/UART_RX_ISR.c ****     return (uint8)priority;
 334              		.loc 1 246 0
 335 001e 3B68     		ldr	r3, [r7]
 336 0020 DBB2     		uxtb	r3, r3
 247:.\Generated_Source\PSoC4/UART_RX_ISR.c **** }
 337              		.loc 1 247 0
 338 0022 181C     		mov	r0, r3
 339 0024 BD46     		mov	sp, r7
 340 0026 02B0     		add	sp, sp, #8
 341              		@ sp needed for prologue
 342 0028 80BD     		pop	{r7, pc}
 343              	.L22:
 344 002a C046     		.align	2
 345              	.L21:
 346 002c 08E400E0 		.word	-536812536
 347              		.cfi_endproc
 348              	.LFE7:
 349              		.size	UART_RX_ISR_GetPriority, .-UART_RX_ISR_GetPriority
 350              		.section	.text.UART_RX_ISR_Enable,"ax",%progbits
 351              		.align	2
 352              		.global	UART_RX_ISR_Enable
 353              		.code	16
 354              		.thumb_func
 355              		.type	UART_RX_ISR_Enable, %function
 356              	UART_RX_ISR_Enable:
 357              	.LFB8:
 248:.\Generated_Source\PSoC4/UART_RX_ISR.c **** 
 249:.\Generated_Source\PSoC4/UART_RX_ISR.c **** 
 250:.\Generated_Source\PSoC4/UART_RX_ISR.c **** /*******************************************************************************
 251:.\Generated_Source\PSoC4/UART_RX_ISR.c **** * Function Name: UART_RX_ISR_Enable
 252:.\Generated_Source\PSoC4/UART_RX_ISR.c **** ********************************************************************************
 253:.\Generated_Source\PSoC4/UART_RX_ISR.c **** *
 254:.\Generated_Source\PSoC4/UART_RX_ISR.c **** * Summary:
 255:.\Generated_Source\PSoC4/UART_RX_ISR.c **** *   Enables the interrupt.
 256:.\Generated_Source\PSoC4/UART_RX_ISR.c **** *
 257:.\Generated_Source\PSoC4/UART_RX_ISR.c **** * Parameters:
 258:.\Generated_Source\PSoC4/UART_RX_ISR.c **** *   None
 259:.\Generated_Source\PSoC4/UART_RX_ISR.c **** *
 260:.\Generated_Source\PSoC4/UART_RX_ISR.c **** * Return:
 261:.\Generated_Source\PSoC4/UART_RX_ISR.c **** *   None
 262:.\Generated_Source\PSoC4/UART_RX_ISR.c **** *
 263:.\Generated_Source\PSoC4/UART_RX_ISR.c **** *******************************************************************************/
 264:.\Generated_Source\PSoC4/UART_RX_ISR.c **** void UART_RX_ISR_Enable(void)
 265:.\Generated_Source\PSoC4/UART_RX_ISR.c **** {
 358              		.loc 1 265 0
 359              		.cfi_startproc
 360 0000 80B5     		push	{r7, lr}
 361              	.LCFI20:
ARM GAS  C:\Users\Sam\AppData\Local\Temp\cc6NNgiN.s 			page 12


 362              		.cfi_def_cfa_offset 8
 363              		.cfi_offset 7, -8
 364              		.cfi_offset 14, -4
 365 0002 00AF     		add	r7, sp, #0
 366              	.LCFI21:
 367              		.cfi_def_cfa_register 7
 266:.\Generated_Source\PSoC4/UART_RX_ISR.c ****     /* Enable the general interrupt. */
 267:.\Generated_Source\PSoC4/UART_RX_ISR.c ****     *UART_RX_ISR_INTC_SET_EN = UART_RX_ISR__INTC_MASK;
 368              		.loc 1 267 0
 369 0004 024B     		ldr	r3, .L24
 370 0006 8022     		mov	r2, #128
 371 0008 D200     		lsl	r2, r2, #3
 372 000a 1A60     		str	r2, [r3]
 268:.\Generated_Source\PSoC4/UART_RX_ISR.c **** }
 373              		.loc 1 268 0
 374 000c BD46     		mov	sp, r7
 375              		@ sp needed for prologue
 376 000e 80BD     		pop	{r7, pc}
 377              	.L25:
 378              		.align	2
 379              	.L24:
 380 0010 00E100E0 		.word	-536813312
 381              		.cfi_endproc
 382              	.LFE8:
 383              		.size	UART_RX_ISR_Enable, .-UART_RX_ISR_Enable
 384              		.section	.text.UART_RX_ISR_GetState,"ax",%progbits
 385              		.align	2
 386              		.global	UART_RX_ISR_GetState
 387              		.code	16
 388              		.thumb_func
 389              		.type	UART_RX_ISR_GetState, %function
 390              	UART_RX_ISR_GetState:
 391              	.LFB9:
 269:.\Generated_Source\PSoC4/UART_RX_ISR.c **** 
 270:.\Generated_Source\PSoC4/UART_RX_ISR.c **** 
 271:.\Generated_Source\PSoC4/UART_RX_ISR.c **** /*******************************************************************************
 272:.\Generated_Source\PSoC4/UART_RX_ISR.c **** * Function Name: UART_RX_ISR_GetState
 273:.\Generated_Source\PSoC4/UART_RX_ISR.c **** ********************************************************************************
 274:.\Generated_Source\PSoC4/UART_RX_ISR.c **** *
 275:.\Generated_Source\PSoC4/UART_RX_ISR.c **** * Summary:
 276:.\Generated_Source\PSoC4/UART_RX_ISR.c **** *   Gets the state (enabled, disabled) of the Interrupt.
 277:.\Generated_Source\PSoC4/UART_RX_ISR.c **** *
 278:.\Generated_Source\PSoC4/UART_RX_ISR.c **** * Parameters:
 279:.\Generated_Source\PSoC4/UART_RX_ISR.c **** *   None
 280:.\Generated_Source\PSoC4/UART_RX_ISR.c **** *
 281:.\Generated_Source\PSoC4/UART_RX_ISR.c **** * Return:
 282:.\Generated_Source\PSoC4/UART_RX_ISR.c **** *   1 if enabled, 0 if disabled.
 283:.\Generated_Source\PSoC4/UART_RX_ISR.c **** *
 284:.\Generated_Source\PSoC4/UART_RX_ISR.c **** *******************************************************************************/
 285:.\Generated_Source\PSoC4/UART_RX_ISR.c **** uint8 UART_RX_ISR_GetState(void)
 286:.\Generated_Source\PSoC4/UART_RX_ISR.c **** {
 392              		.loc 1 286 0
 393              		.cfi_startproc
 394 0000 80B5     		push	{r7, lr}
 395              	.LCFI22:
 396              		.cfi_def_cfa_offset 8
 397              		.cfi_offset 7, -8
ARM GAS  C:\Users\Sam\AppData\Local\Temp\cc6NNgiN.s 			page 13


 398              		.cfi_offset 14, -4
 399 0002 00AF     		add	r7, sp, #0
 400              	.LCFI23:
 401              		.cfi_def_cfa_register 7
 287:.\Generated_Source\PSoC4/UART_RX_ISR.c ****     /* Get the state of the general interrupt. */
 288:.\Generated_Source\PSoC4/UART_RX_ISR.c ****     return ((*UART_RX_ISR_INTC_SET_EN & (uint32)UART_RX_ISR__INTC_MASK) != 0u) ? 1u:0u;
 402              		.loc 1 288 0
 403 0004 054B     		ldr	r3, .L30
 404 0006 1A68     		ldr	r2, [r3]
 405 0008 8023     		mov	r3, #128
 406 000a DB00     		lsl	r3, r3, #3
 407 000c 1340     		and	r3, r2
 408 000e 01D0     		beq	.L27
 409              		.loc 1 288 0 is_stmt 0 discriminator 1
 410 0010 0123     		mov	r3, #1
 411 0012 00E0     		b	.L28
 412              	.L27:
 413              		.loc 1 288 0 discriminator 2
 414 0014 0023     		mov	r3, #0
 415              	.L28:
 289:.\Generated_Source\PSoC4/UART_RX_ISR.c **** }
 416              		.loc 1 289 0 is_stmt 1 discriminator 3
 417 0016 181C     		mov	r0, r3
 418 0018 BD46     		mov	sp, r7
 419              		@ sp needed for prologue
 420 001a 80BD     		pop	{r7, pc}
 421              	.L31:
 422              		.align	2
 423              	.L30:
 424 001c 00E100E0 		.word	-536813312
 425              		.cfi_endproc
 426              	.LFE9:
 427              		.size	UART_RX_ISR_GetState, .-UART_RX_ISR_GetState
 428              		.section	.text.UART_RX_ISR_Disable,"ax",%progbits
 429              		.align	2
 430              		.global	UART_RX_ISR_Disable
 431              		.code	16
 432              		.thumb_func
 433              		.type	UART_RX_ISR_Disable, %function
 434              	UART_RX_ISR_Disable:
 435              	.LFB10:
 290:.\Generated_Source\PSoC4/UART_RX_ISR.c **** 
 291:.\Generated_Source\PSoC4/UART_RX_ISR.c **** 
 292:.\Generated_Source\PSoC4/UART_RX_ISR.c **** /*******************************************************************************
 293:.\Generated_Source\PSoC4/UART_RX_ISR.c **** * Function Name: UART_RX_ISR_Disable
 294:.\Generated_Source\PSoC4/UART_RX_ISR.c **** ********************************************************************************
 295:.\Generated_Source\PSoC4/UART_RX_ISR.c **** *
 296:.\Generated_Source\PSoC4/UART_RX_ISR.c **** * Summary:
 297:.\Generated_Source\PSoC4/UART_RX_ISR.c **** *   Disables the Interrupt.
 298:.\Generated_Source\PSoC4/UART_RX_ISR.c **** *
 299:.\Generated_Source\PSoC4/UART_RX_ISR.c **** * Parameters:
 300:.\Generated_Source\PSoC4/UART_RX_ISR.c **** *   None
 301:.\Generated_Source\PSoC4/UART_RX_ISR.c **** *
 302:.\Generated_Source\PSoC4/UART_RX_ISR.c **** * Return:
 303:.\Generated_Source\PSoC4/UART_RX_ISR.c **** *   None
 304:.\Generated_Source\PSoC4/UART_RX_ISR.c **** *
 305:.\Generated_Source\PSoC4/UART_RX_ISR.c **** *******************************************************************************/
ARM GAS  C:\Users\Sam\AppData\Local\Temp\cc6NNgiN.s 			page 14


 306:.\Generated_Source\PSoC4/UART_RX_ISR.c **** void UART_RX_ISR_Disable(void)
 307:.\Generated_Source\PSoC4/UART_RX_ISR.c **** {
 436              		.loc 1 307 0
 437              		.cfi_startproc
 438 0000 80B5     		push	{r7, lr}
 439              	.LCFI24:
 440              		.cfi_def_cfa_offset 8
 441              		.cfi_offset 7, -8
 442              		.cfi_offset 14, -4
 443 0002 00AF     		add	r7, sp, #0
 444              	.LCFI25:
 445              		.cfi_def_cfa_register 7
 308:.\Generated_Source\PSoC4/UART_RX_ISR.c ****     /* Disable the general interrupt. */
 309:.\Generated_Source\PSoC4/UART_RX_ISR.c ****     *UART_RX_ISR_INTC_CLR_EN = UART_RX_ISR__INTC_MASK;
 446              		.loc 1 309 0
 447 0004 024B     		ldr	r3, .L33
 448 0006 8022     		mov	r2, #128
 449 0008 D200     		lsl	r2, r2, #3
 450 000a 1A60     		str	r2, [r3]
 310:.\Generated_Source\PSoC4/UART_RX_ISR.c **** }
 451              		.loc 1 310 0
 452 000c BD46     		mov	sp, r7
 453              		@ sp needed for prologue
 454 000e 80BD     		pop	{r7, pc}
 455              	.L34:
 456              		.align	2
 457              	.L33:
 458 0010 80E100E0 		.word	-536813184
 459              		.cfi_endproc
 460              	.LFE10:
 461              		.size	UART_RX_ISR_Disable, .-UART_RX_ISR_Disable
 462              		.section	.text.UART_RX_ISR_SetPending,"ax",%progbits
 463              		.align	2
 464              		.global	UART_RX_ISR_SetPending
 465              		.code	16
 466              		.thumb_func
 467              		.type	UART_RX_ISR_SetPending, %function
 468              	UART_RX_ISR_SetPending:
 469              	.LFB11:
 311:.\Generated_Source\PSoC4/UART_RX_ISR.c **** 
 312:.\Generated_Source\PSoC4/UART_RX_ISR.c **** 
 313:.\Generated_Source\PSoC4/UART_RX_ISR.c **** /*******************************************************************************
 314:.\Generated_Source\PSoC4/UART_RX_ISR.c **** * Function Name: UART_RX_ISR_SetPending
 315:.\Generated_Source\PSoC4/UART_RX_ISR.c **** ********************************************************************************
 316:.\Generated_Source\PSoC4/UART_RX_ISR.c **** *
 317:.\Generated_Source\PSoC4/UART_RX_ISR.c **** * Summary:
 318:.\Generated_Source\PSoC4/UART_RX_ISR.c **** *   Causes the Interrupt to enter the pending state, a software method of
 319:.\Generated_Source\PSoC4/UART_RX_ISR.c **** *   generating the interrupt.
 320:.\Generated_Source\PSoC4/UART_RX_ISR.c **** *
 321:.\Generated_Source\PSoC4/UART_RX_ISR.c **** * Parameters:
 322:.\Generated_Source\PSoC4/UART_RX_ISR.c **** *   None
 323:.\Generated_Source\PSoC4/UART_RX_ISR.c **** *
 324:.\Generated_Source\PSoC4/UART_RX_ISR.c **** * Return:
 325:.\Generated_Source\PSoC4/UART_RX_ISR.c **** *   None
 326:.\Generated_Source\PSoC4/UART_RX_ISR.c **** *
 327:.\Generated_Source\PSoC4/UART_RX_ISR.c **** *******************************************************************************/
 328:.\Generated_Source\PSoC4/UART_RX_ISR.c **** void UART_RX_ISR_SetPending(void)
ARM GAS  C:\Users\Sam\AppData\Local\Temp\cc6NNgiN.s 			page 15


 329:.\Generated_Source\PSoC4/UART_RX_ISR.c **** {
 470              		.loc 1 329 0
 471              		.cfi_startproc
 472 0000 80B5     		push	{r7, lr}
 473              	.LCFI26:
 474              		.cfi_def_cfa_offset 8
 475              		.cfi_offset 7, -8
 476              		.cfi_offset 14, -4
 477 0002 00AF     		add	r7, sp, #0
 478              	.LCFI27:
 479              		.cfi_def_cfa_register 7
 330:.\Generated_Source\PSoC4/UART_RX_ISR.c ****     *UART_RX_ISR_INTC_SET_PD = UART_RX_ISR__INTC_MASK;
 480              		.loc 1 330 0
 481 0004 024B     		ldr	r3, .L36
 482 0006 8022     		mov	r2, #128
 483 0008 D200     		lsl	r2, r2, #3
 484 000a 1A60     		str	r2, [r3]
 331:.\Generated_Source\PSoC4/UART_RX_ISR.c **** }
 485              		.loc 1 331 0
 486 000c BD46     		mov	sp, r7
 487              		@ sp needed for prologue
 488 000e 80BD     		pop	{r7, pc}
 489              	.L37:
 490              		.align	2
 491              	.L36:
 492 0010 00E200E0 		.word	-536813056
 493              		.cfi_endproc
 494              	.LFE11:
 495              		.size	UART_RX_ISR_SetPending, .-UART_RX_ISR_SetPending
 496              		.section	.text.UART_RX_ISR_ClearPending,"ax",%progbits
 497              		.align	2
 498              		.global	UART_RX_ISR_ClearPending
 499              		.code	16
 500              		.thumb_func
 501              		.type	UART_RX_ISR_ClearPending, %function
 502              	UART_RX_ISR_ClearPending:
 503              	.LFB12:
 332:.\Generated_Source\PSoC4/UART_RX_ISR.c **** 
 333:.\Generated_Source\PSoC4/UART_RX_ISR.c **** 
 334:.\Generated_Source\PSoC4/UART_RX_ISR.c **** /*******************************************************************************
 335:.\Generated_Source\PSoC4/UART_RX_ISR.c **** * Function Name: UART_RX_ISR_ClearPending
 336:.\Generated_Source\PSoC4/UART_RX_ISR.c **** ********************************************************************************
 337:.\Generated_Source\PSoC4/UART_RX_ISR.c **** *
 338:.\Generated_Source\PSoC4/UART_RX_ISR.c **** * Summary:
 339:.\Generated_Source\PSoC4/UART_RX_ISR.c **** *   Clears a pending interrupt.
 340:.\Generated_Source\PSoC4/UART_RX_ISR.c **** *
 341:.\Generated_Source\PSoC4/UART_RX_ISR.c **** * Parameters:
 342:.\Generated_Source\PSoC4/UART_RX_ISR.c **** *   None
 343:.\Generated_Source\PSoC4/UART_RX_ISR.c **** *
 344:.\Generated_Source\PSoC4/UART_RX_ISR.c **** * Return:
 345:.\Generated_Source\PSoC4/UART_RX_ISR.c **** *   None
 346:.\Generated_Source\PSoC4/UART_RX_ISR.c **** *
 347:.\Generated_Source\PSoC4/UART_RX_ISR.c **** *******************************************************************************/
 348:.\Generated_Source\PSoC4/UART_RX_ISR.c **** void UART_RX_ISR_ClearPending(void)
 349:.\Generated_Source\PSoC4/UART_RX_ISR.c **** {
 504              		.loc 1 349 0
 505              		.cfi_startproc
ARM GAS  C:\Users\Sam\AppData\Local\Temp\cc6NNgiN.s 			page 16


 506 0000 80B5     		push	{r7, lr}
 507              	.LCFI28:
 508              		.cfi_def_cfa_offset 8
 509              		.cfi_offset 7, -8
 510              		.cfi_offset 14, -4
 511 0002 00AF     		add	r7, sp, #0
 512              	.LCFI29:
 513              		.cfi_def_cfa_register 7
 350:.\Generated_Source\PSoC4/UART_RX_ISR.c ****     *UART_RX_ISR_INTC_CLR_PD = UART_RX_ISR__INTC_MASK;
 514              		.loc 1 350 0
 515 0004 024B     		ldr	r3, .L39
 516 0006 8022     		mov	r2, #128
 517 0008 D200     		lsl	r2, r2, #3
 518 000a 1A60     		str	r2, [r3]
 351:.\Generated_Source\PSoC4/UART_RX_ISR.c **** }
 519              		.loc 1 351 0
 520 000c BD46     		mov	sp, r7
 521              		@ sp needed for prologue
 522 000e 80BD     		pop	{r7, pc}
 523              	.L40:
 524              		.align	2
 525              	.L39:
 526 0010 80E200E0 		.word	-536812928
 527              		.cfi_endproc
 528              	.LFE12:
 529              		.size	UART_RX_ISR_ClearPending, .-UART_RX_ISR_ClearPending
 530              		.text
 531              	.Letext0:
 532              		.file 2 "./Generated_Source/PSoC4/cytypes.h"