ARM GAS  C:\Users\Sam\AppData\Local\Temp\ccq1cFOG.s 			page 1


   1              		.cpu cortex-m0
   2              		.fpu softvfp
   3              		.eabi_attribute 20, 1
   4              		.eabi_attribute 21, 1
   5              		.eabi_attribute 23, 3
   6              		.eabi_attribute 24, 1
   7              		.eabi_attribute 25, 1
   8              		.eabi_attribute 26, 1
   9              		.eabi_attribute 30, 6
  10              		.eabi_attribute 34, 0
  11              		.eabi_attribute 18, 4
  12              		.code	16
  13              		.file	"I2C_MPU6050.c"
  14              		.text
  15              	.Ltext0:
  16              		.cfi_sections	.debug_frame
  17              		.global	I2C_MPU6050_initVar
  18              		.bss
  19              		.type	I2C_MPU6050_initVar, %object
  20              		.size	I2C_MPU6050_initVar, 1
  21              	I2C_MPU6050_initVar:
  22 0000 00       		.space	1
  23              		.global	I2C_MPU6050_customIntrHandler
  24 0001 000000   		.align	2
  25              		.type	I2C_MPU6050_customIntrHandler, %object
  26              		.size	I2C_MPU6050_customIntrHandler, 4
  27              	I2C_MPU6050_customIntrHandler:
  28 0004 00000000 		.space	4
  29              		.section	.text.I2C_MPU6050_Init,"ax",%progbits
  30              		.align	2
  31              		.global	I2C_MPU6050_Init
  32              		.code	16
  33              		.thumb_func
  34              		.type	I2C_MPU6050_Init, %function
  35              	I2C_MPU6050_Init:
  36              	.LFB0:
  37              		.file 1 ".\\Generated_Source\\PSoC4\\I2C_MPU6050.c"
   1:.\Generated_Source\PSoC4/I2C_MPU6050.c **** /*******************************************************************************
   2:.\Generated_Source\PSoC4/I2C_MPU6050.c **** * File Name: I2C_MPU6050.c
   3:.\Generated_Source\PSoC4/I2C_MPU6050.c **** * Version 1.20
   4:.\Generated_Source\PSoC4/I2C_MPU6050.c **** *
   5:.\Generated_Source\PSoC4/I2C_MPU6050.c **** * Description:
   6:.\Generated_Source\PSoC4/I2C_MPU6050.c **** *  This file provides the source code to the API for the SCB Component.
   7:.\Generated_Source\PSoC4/I2C_MPU6050.c **** *
   8:.\Generated_Source\PSoC4/I2C_MPU6050.c **** * Note:
   9:.\Generated_Source\PSoC4/I2C_MPU6050.c **** *
  10:.\Generated_Source\PSoC4/I2C_MPU6050.c **** *******************************************************************************
  11:.\Generated_Source\PSoC4/I2C_MPU6050.c **** * Copyright 2013-2014, Cypress Semiconductor Corporation.  All rights reserved.
  12:.\Generated_Source\PSoC4/I2C_MPU6050.c **** * You may use this file only in accordance with the license, terms, conditions,
  13:.\Generated_Source\PSoC4/I2C_MPU6050.c **** * disclaimers, and limitations in the end user license agreement accompanying
  14:.\Generated_Source\PSoC4/I2C_MPU6050.c **** * the software package with which this file was provided.
  15:.\Generated_Source\PSoC4/I2C_MPU6050.c **** *******************************************************************************/
  16:.\Generated_Source\PSoC4/I2C_MPU6050.c **** 
  17:.\Generated_Source\PSoC4/I2C_MPU6050.c **** #include "I2C_MPU6050_PVT.h"
  18:.\Generated_Source\PSoC4/I2C_MPU6050.c **** 
  19:.\Generated_Source\PSoC4/I2C_MPU6050.c **** #if(I2C_MPU6050_SCB_MODE_I2C_INC)
  20:.\Generated_Source\PSoC4/I2C_MPU6050.c ****     #include "I2C_MPU6050_I2C_PVT.h"
ARM GAS  C:\Users\Sam\AppData\Local\Temp\ccq1cFOG.s 			page 2


  21:.\Generated_Source\PSoC4/I2C_MPU6050.c **** #endif /* (I2C_MPU6050_SCB_MODE_I2C_INC) */
  22:.\Generated_Source\PSoC4/I2C_MPU6050.c **** 
  23:.\Generated_Source\PSoC4/I2C_MPU6050.c **** #if(I2C_MPU6050_SCB_MODE_EZI2C_INC)
  24:.\Generated_Source\PSoC4/I2C_MPU6050.c ****     #include "I2C_MPU6050_EZI2C_PVT.h"
  25:.\Generated_Source\PSoC4/I2C_MPU6050.c **** #endif /* (I2C_MPU6050_SCB_MODE_EZI2C_INC) */
  26:.\Generated_Source\PSoC4/I2C_MPU6050.c **** 
  27:.\Generated_Source\PSoC4/I2C_MPU6050.c **** #if(I2C_MPU6050_SCB_MODE_SPI_INC || I2C_MPU6050_SCB_MODE_UART_INC)
  28:.\Generated_Source\PSoC4/I2C_MPU6050.c ****     #include "I2C_MPU6050_SPI_UART_PVT.h"
  29:.\Generated_Source\PSoC4/I2C_MPU6050.c **** #endif /* (I2C_MPU6050_SCB_MODE_SPI_INC || I2C_MPU6050_SCB_MODE_UART_INC) */
  30:.\Generated_Source\PSoC4/I2C_MPU6050.c **** 
  31:.\Generated_Source\PSoC4/I2C_MPU6050.c **** 
  32:.\Generated_Source\PSoC4/I2C_MPU6050.c **** /***************************************
  33:.\Generated_Source\PSoC4/I2C_MPU6050.c **** *    Run Time Configuration Vars
  34:.\Generated_Source\PSoC4/I2C_MPU6050.c **** ***************************************/
  35:.\Generated_Source\PSoC4/I2C_MPU6050.c **** 
  36:.\Generated_Source\PSoC4/I2C_MPU6050.c **** /* Stores internal component configuration for unconfigured mode */
  37:.\Generated_Source\PSoC4/I2C_MPU6050.c **** #if(I2C_MPU6050_SCB_MODE_UNCONFIG_CONST_CFG)
  38:.\Generated_Source\PSoC4/I2C_MPU6050.c ****     /* Common config vars */
  39:.\Generated_Source\PSoC4/I2C_MPU6050.c ****     uint8 I2C_MPU6050_scbMode = I2C_MPU6050_SCB_MODE_UNCONFIG;
  40:.\Generated_Source\PSoC4/I2C_MPU6050.c ****     uint8 I2C_MPU6050_scbEnableWake;
  41:.\Generated_Source\PSoC4/I2C_MPU6050.c ****     uint8 I2C_MPU6050_scbEnableIntr;
  42:.\Generated_Source\PSoC4/I2C_MPU6050.c **** 
  43:.\Generated_Source\PSoC4/I2C_MPU6050.c ****     /* I2C config vars */
  44:.\Generated_Source\PSoC4/I2C_MPU6050.c ****     uint8 I2C_MPU6050_mode;
  45:.\Generated_Source\PSoC4/I2C_MPU6050.c ****     uint8 I2C_MPU6050_acceptAddr;
  46:.\Generated_Source\PSoC4/I2C_MPU6050.c **** 
  47:.\Generated_Source\PSoC4/I2C_MPU6050.c ****     /* SPI/UART config vars */
  48:.\Generated_Source\PSoC4/I2C_MPU6050.c ****     volatile uint8 * I2C_MPU6050_rxBuffer;
  49:.\Generated_Source\PSoC4/I2C_MPU6050.c ****     uint8  I2C_MPU6050_rxDataBits;
  50:.\Generated_Source\PSoC4/I2C_MPU6050.c ****     uint32 I2C_MPU6050_rxBufferSize;
  51:.\Generated_Source\PSoC4/I2C_MPU6050.c **** 
  52:.\Generated_Source\PSoC4/I2C_MPU6050.c ****     volatile uint8 * I2C_MPU6050_txBuffer;
  53:.\Generated_Source\PSoC4/I2C_MPU6050.c ****     uint8  I2C_MPU6050_txDataBits;
  54:.\Generated_Source\PSoC4/I2C_MPU6050.c ****     uint32 I2C_MPU6050_txBufferSize;
  55:.\Generated_Source\PSoC4/I2C_MPU6050.c **** 
  56:.\Generated_Source\PSoC4/I2C_MPU6050.c ****     /* EZI2C config vars */
  57:.\Generated_Source\PSoC4/I2C_MPU6050.c ****     uint8 I2C_MPU6050_numberOfAddr;
  58:.\Generated_Source\PSoC4/I2C_MPU6050.c ****     uint8 I2C_MPU6050_subAddrSize;
  59:.\Generated_Source\PSoC4/I2C_MPU6050.c **** #endif /* (I2C_MPU6050_SCB_MODE_UNCONFIG_CONST_CFG) */
  60:.\Generated_Source\PSoC4/I2C_MPU6050.c **** 
  61:.\Generated_Source\PSoC4/I2C_MPU6050.c **** 
  62:.\Generated_Source\PSoC4/I2C_MPU6050.c **** /***************************************
  63:.\Generated_Source\PSoC4/I2C_MPU6050.c **** *     Common SCB Vars
  64:.\Generated_Source\PSoC4/I2C_MPU6050.c **** ***************************************/
  65:.\Generated_Source\PSoC4/I2C_MPU6050.c **** 
  66:.\Generated_Source\PSoC4/I2C_MPU6050.c **** uint8 I2C_MPU6050_initVar = 0u;
  67:.\Generated_Source\PSoC4/I2C_MPU6050.c **** 
  68:.\Generated_Source\PSoC4/I2C_MPU6050.c **** #if !defined (CY_REMOVE_I2C_MPU6050_CUSTOM_INTR_HANDLER)
  69:.\Generated_Source\PSoC4/I2C_MPU6050.c ****     cyisraddress I2C_MPU6050_customIntrHandler = NULL;
  70:.\Generated_Source\PSoC4/I2C_MPU6050.c **** #endif /* !defined (CY_REMOVE_I2C_MPU6050_CUSTOM_INTR_HANDLER) */
  71:.\Generated_Source\PSoC4/I2C_MPU6050.c **** 
  72:.\Generated_Source\PSoC4/I2C_MPU6050.c **** 
  73:.\Generated_Source\PSoC4/I2C_MPU6050.c **** /***************************************
  74:.\Generated_Source\PSoC4/I2C_MPU6050.c **** *    Private Function Prototypes
  75:.\Generated_Source\PSoC4/I2C_MPU6050.c **** ***************************************/
  76:.\Generated_Source\PSoC4/I2C_MPU6050.c **** 
  77:.\Generated_Source\PSoC4/I2C_MPU6050.c **** static void I2C_MPU6050_ScbEnableIntr(void);
ARM GAS  C:\Users\Sam\AppData\Local\Temp\ccq1cFOG.s 			page 3


  78:.\Generated_Source\PSoC4/I2C_MPU6050.c **** static void I2C_MPU6050_ScbModeStop(void);
  79:.\Generated_Source\PSoC4/I2C_MPU6050.c **** 
  80:.\Generated_Source\PSoC4/I2C_MPU6050.c **** 
  81:.\Generated_Source\PSoC4/I2C_MPU6050.c **** /*******************************************************************************
  82:.\Generated_Source\PSoC4/I2C_MPU6050.c **** * Function Name: I2C_MPU6050_Init
  83:.\Generated_Source\PSoC4/I2C_MPU6050.c **** ********************************************************************************
  84:.\Generated_Source\PSoC4/I2C_MPU6050.c **** *
  85:.\Generated_Source\PSoC4/I2C_MPU6050.c **** * Summary:
  86:.\Generated_Source\PSoC4/I2C_MPU6050.c **** *  Initializes the SCB component to operate in one of the selected configurations:
  87:.\Generated_Source\PSoC4/I2C_MPU6050.c **** *  I2C, SPI, UART or EZ I2C.
  88:.\Generated_Source\PSoC4/I2C_MPU6050.c **** *  When the configuration is set to “Unconfigured SCB”, this function does
  89:.\Generated_Source\PSoC4/I2C_MPU6050.c **** *  not do any initialization. Use mode-specific initialization APIs instead:
  90:.\Generated_Source\PSoC4/I2C_MPU6050.c **** *  SCB_I2CInit, SCB_SpiInit, SCB_UartInit or SCB_EzI2CInit.
  91:.\Generated_Source\PSoC4/I2C_MPU6050.c **** *
  92:.\Generated_Source\PSoC4/I2C_MPU6050.c **** * Parameters:
  93:.\Generated_Source\PSoC4/I2C_MPU6050.c **** *  None
  94:.\Generated_Source\PSoC4/I2C_MPU6050.c **** *
  95:.\Generated_Source\PSoC4/I2C_MPU6050.c **** * Return:
  96:.\Generated_Source\PSoC4/I2C_MPU6050.c **** *  None
  97:.\Generated_Source\PSoC4/I2C_MPU6050.c **** *
  98:.\Generated_Source\PSoC4/I2C_MPU6050.c **** *******************************************************************************/
  99:.\Generated_Source\PSoC4/I2C_MPU6050.c **** void I2C_MPU6050_Init(void)
 100:.\Generated_Source\PSoC4/I2C_MPU6050.c **** {
  38              		.loc 1 100 0
  39              		.cfi_startproc
  40 0000 80B5     		push	{r7, lr}
  41              	.LCFI0:
  42              		.cfi_def_cfa_offset 8
  43              		.cfi_offset 7, -8
  44              		.cfi_offset 14, -4
  45 0002 00AF     		add	r7, sp, #0
  46              	.LCFI1:
  47              		.cfi_def_cfa_register 7
 101:.\Generated_Source\PSoC4/I2C_MPU6050.c **** #if(I2C_MPU6050_SCB_MODE_UNCONFIG_CONST_CFG)
 102:.\Generated_Source\PSoC4/I2C_MPU6050.c ****     if(I2C_MPU6050_SCB_MODE_UNCONFIG_RUNTM_CFG)
 103:.\Generated_Source\PSoC4/I2C_MPU6050.c ****     {
 104:.\Generated_Source\PSoC4/I2C_MPU6050.c ****         I2C_MPU6050_initVar = 0u; /* Clear init var */
 105:.\Generated_Source\PSoC4/I2C_MPU6050.c ****     }
 106:.\Generated_Source\PSoC4/I2C_MPU6050.c ****     else
 107:.\Generated_Source\PSoC4/I2C_MPU6050.c ****     {
 108:.\Generated_Source\PSoC4/I2C_MPU6050.c ****         /* Initialization was done before call */
 109:.\Generated_Source\PSoC4/I2C_MPU6050.c ****     }
 110:.\Generated_Source\PSoC4/I2C_MPU6050.c **** 
 111:.\Generated_Source\PSoC4/I2C_MPU6050.c **** #elif(I2C_MPU6050_SCB_MODE_I2C_CONST_CFG)
 112:.\Generated_Source\PSoC4/I2C_MPU6050.c ****     I2C_MPU6050_I2CInit();
  48              		.loc 1 112 0
  49 0004 FFF7FEFF 		bl	I2C_MPU6050_I2CInit
 113:.\Generated_Source\PSoC4/I2C_MPU6050.c **** 
 114:.\Generated_Source\PSoC4/I2C_MPU6050.c **** #elif(I2C_MPU6050_SCB_MODE_SPI_CONST_CFG)
 115:.\Generated_Source\PSoC4/I2C_MPU6050.c ****     I2C_MPU6050_SpiInit();
 116:.\Generated_Source\PSoC4/I2C_MPU6050.c **** 
 117:.\Generated_Source\PSoC4/I2C_MPU6050.c **** #elif(I2C_MPU6050_SCB_MODE_UART_CONST_CFG)
 118:.\Generated_Source\PSoC4/I2C_MPU6050.c ****     I2C_MPU6050_UartInit();
 119:.\Generated_Source\PSoC4/I2C_MPU6050.c **** 
 120:.\Generated_Source\PSoC4/I2C_MPU6050.c **** #elif(I2C_MPU6050_SCB_MODE_EZI2C_CONST_CFG)
 121:.\Generated_Source\PSoC4/I2C_MPU6050.c ****     I2C_MPU6050_EzI2CInit();
 122:.\Generated_Source\PSoC4/I2C_MPU6050.c **** 
ARM GAS  C:\Users\Sam\AppData\Local\Temp\ccq1cFOG.s 			page 4


 123:.\Generated_Source\PSoC4/I2C_MPU6050.c **** #endif /* (I2C_MPU6050_SCB_MODE_UNCONFIG_CONST_CFG) */
 124:.\Generated_Source\PSoC4/I2C_MPU6050.c **** }
  50              		.loc 1 124 0
  51 0008 BD46     		mov	sp, r7
  52              		@ sp needed for prologue
  53 000a 80BD     		pop	{r7, pc}
  54              		.cfi_endproc
  55              	.LFE0:
  56              		.size	I2C_MPU6050_Init, .-I2C_MPU6050_Init
  57              		.section	.text.I2C_MPU6050_Enable,"ax",%progbits
  58              		.align	2
  59              		.global	I2C_MPU6050_Enable
  60              		.code	16
  61              		.thumb_func
  62              		.type	I2C_MPU6050_Enable, %function
  63              	I2C_MPU6050_Enable:
  64              	.LFB1:
 125:.\Generated_Source\PSoC4/I2C_MPU6050.c **** 
 126:.\Generated_Source\PSoC4/I2C_MPU6050.c **** 
 127:.\Generated_Source\PSoC4/I2C_MPU6050.c **** /*******************************************************************************
 128:.\Generated_Source\PSoC4/I2C_MPU6050.c **** * Function Name: I2C_MPU6050_Enable
 129:.\Generated_Source\PSoC4/I2C_MPU6050.c **** ********************************************************************************
 130:.\Generated_Source\PSoC4/I2C_MPU6050.c **** *
 131:.\Generated_Source\PSoC4/I2C_MPU6050.c **** * Summary:
 132:.\Generated_Source\PSoC4/I2C_MPU6050.c **** *  Enables the SCB component operation.
 133:.\Generated_Source\PSoC4/I2C_MPU6050.c **** *  The SCB configuration should be not changed when the component is enabled.
 134:.\Generated_Source\PSoC4/I2C_MPU6050.c **** *  Any configuration changes should be made after disabling the component.
 135:.\Generated_Source\PSoC4/I2C_MPU6050.c **** *
 136:.\Generated_Source\PSoC4/I2C_MPU6050.c **** * Parameters:
 137:.\Generated_Source\PSoC4/I2C_MPU6050.c **** *  None
 138:.\Generated_Source\PSoC4/I2C_MPU6050.c **** *
 139:.\Generated_Source\PSoC4/I2C_MPU6050.c **** * Return:
 140:.\Generated_Source\PSoC4/I2C_MPU6050.c **** *  None
 141:.\Generated_Source\PSoC4/I2C_MPU6050.c **** *
 142:.\Generated_Source\PSoC4/I2C_MPU6050.c **** *******************************************************************************/
 143:.\Generated_Source\PSoC4/I2C_MPU6050.c **** void I2C_MPU6050_Enable(void)
 144:.\Generated_Source\PSoC4/I2C_MPU6050.c **** {
  65              		.loc 1 144 0
  66              		.cfi_startproc
  67 0000 80B5     		push	{r7, lr}
  68              	.LCFI2:
  69              		.cfi_def_cfa_offset 8
  70              		.cfi_offset 7, -8
  71              		.cfi_offset 14, -4
  72 0002 00AF     		add	r7, sp, #0
  73              	.LCFI3:
  74              		.cfi_def_cfa_register 7
 145:.\Generated_Source\PSoC4/I2C_MPU6050.c **** #if(I2C_MPU6050_SCB_MODE_UNCONFIG_CONST_CFG)
 146:.\Generated_Source\PSoC4/I2C_MPU6050.c ****     /* Enable SCB block, only if it is already configured */
 147:.\Generated_Source\PSoC4/I2C_MPU6050.c ****     if(!I2C_MPU6050_SCB_MODE_UNCONFIG_RUNTM_CFG)
 148:.\Generated_Source\PSoC4/I2C_MPU6050.c ****     {
 149:.\Generated_Source\PSoC4/I2C_MPU6050.c ****         I2C_MPU6050_CTRL_REG |= I2C_MPU6050_CTRL_ENABLED;
 150:.\Generated_Source\PSoC4/I2C_MPU6050.c **** 
 151:.\Generated_Source\PSoC4/I2C_MPU6050.c ****         I2C_MPU6050_ScbEnableIntr();
 152:.\Generated_Source\PSoC4/I2C_MPU6050.c ****     }
 153:.\Generated_Source\PSoC4/I2C_MPU6050.c **** #else
 154:.\Generated_Source\PSoC4/I2C_MPU6050.c ****     I2C_MPU6050_CTRL_REG |= I2C_MPU6050_CTRL_ENABLED;
ARM GAS  C:\Users\Sam\AppData\Local\Temp\ccq1cFOG.s 			page 5


  75              		.loc 1 154 0
  76 0004 054B     		ldr	r3, .L3
  77 0006 054A     		ldr	r2, .L3
  78 0008 1268     		ldr	r2, [r2]
  79 000a 8021     		mov	r1, #128
  80 000c 0906     		lsl	r1, r1, #24
  81 000e 0A43     		orr	r2, r1
  82 0010 1A60     		str	r2, [r3]
 155:.\Generated_Source\PSoC4/I2C_MPU6050.c **** 
 156:.\Generated_Source\PSoC4/I2C_MPU6050.c ****     I2C_MPU6050_ScbEnableIntr();
  83              		.loc 1 156 0
  84 0012 FFF7FEFF 		bl	I2C_MPU6050_ScbEnableIntr
 157:.\Generated_Source\PSoC4/I2C_MPU6050.c **** #endif /* (I2C_MPU6050_SCB_MODE_UNCONFIG_CONST_CFG) */
 158:.\Generated_Source\PSoC4/I2C_MPU6050.c **** }
  85              		.loc 1 158 0
  86 0016 BD46     		mov	sp, r7
  87              		@ sp needed for prologue
  88 0018 80BD     		pop	{r7, pc}
  89              	.L4:
  90 001a C046     		.align	2
  91              	.L3:
  92 001c 00000740 		.word	1074200576
  93              		.cfi_endproc
  94              	.LFE1:
  95              		.size	I2C_MPU6050_Enable, .-I2C_MPU6050_Enable
  96              		.section	.text.I2C_MPU6050_Start,"ax",%progbits
  97              		.align	2
  98              		.global	I2C_MPU6050_Start
  99              		.code	16
 100              		.thumb_func
 101              		.type	I2C_MPU6050_Start, %function
 102              	I2C_MPU6050_Start:
 103              	.LFB2:
 159:.\Generated_Source\PSoC4/I2C_MPU6050.c **** 
 160:.\Generated_Source\PSoC4/I2C_MPU6050.c **** 
 161:.\Generated_Source\PSoC4/I2C_MPU6050.c **** /*******************************************************************************
 162:.\Generated_Source\PSoC4/I2C_MPU6050.c **** * Function Name: I2C_MPU6050_Start
 163:.\Generated_Source\PSoC4/I2C_MPU6050.c **** ********************************************************************************
 164:.\Generated_Source\PSoC4/I2C_MPU6050.c **** *
 165:.\Generated_Source\PSoC4/I2C_MPU6050.c **** * Summary:
 166:.\Generated_Source\PSoC4/I2C_MPU6050.c **** *  Invokes SCB_Init() and SCB_Enable().
 167:.\Generated_Source\PSoC4/I2C_MPU6050.c **** *  After this function call, the component is enabled and ready for operation.
 168:.\Generated_Source\PSoC4/I2C_MPU6050.c **** *  When configuration is set to “Unconfigured SCB”, the component must first be
 169:.\Generated_Source\PSoC4/I2C_MPU6050.c **** *  initialized to operate in one of the following configurations: I2C, SPI, UART
 170:.\Generated_Source\PSoC4/I2C_MPU6050.c **** *  or EZ I2C. Otherwise this function does not enable the component.
 171:.\Generated_Source\PSoC4/I2C_MPU6050.c **** *
 172:.\Generated_Source\PSoC4/I2C_MPU6050.c **** * Parameters:
 173:.\Generated_Source\PSoC4/I2C_MPU6050.c **** *  None
 174:.\Generated_Source\PSoC4/I2C_MPU6050.c **** *
 175:.\Generated_Source\PSoC4/I2C_MPU6050.c **** * Return:
 176:.\Generated_Source\PSoC4/I2C_MPU6050.c **** *  None
 177:.\Generated_Source\PSoC4/I2C_MPU6050.c **** *
 178:.\Generated_Source\PSoC4/I2C_MPU6050.c **** * Global variables:
 179:.\Generated_Source\PSoC4/I2C_MPU6050.c **** *  I2C_MPU6050_initVar - used to check initial configuration, modified
 180:.\Generated_Source\PSoC4/I2C_MPU6050.c **** *  on first function call.
 181:.\Generated_Source\PSoC4/I2C_MPU6050.c **** *
 182:.\Generated_Source\PSoC4/I2C_MPU6050.c **** *******************************************************************************/
ARM GAS  C:\Users\Sam\AppData\Local\Temp\ccq1cFOG.s 			page 6


 183:.\Generated_Source\PSoC4/I2C_MPU6050.c **** void I2C_MPU6050_Start(void)
 184:.\Generated_Source\PSoC4/I2C_MPU6050.c **** {
 104              		.loc 1 184 0
 105              		.cfi_startproc
 106 0000 80B5     		push	{r7, lr}
 107              	.LCFI4:
 108              		.cfi_def_cfa_offset 8
 109              		.cfi_offset 7, -8
 110              		.cfi_offset 14, -4
 111 0002 00AF     		add	r7, sp, #0
 112              	.LCFI5:
 113              		.cfi_def_cfa_register 7
 185:.\Generated_Source\PSoC4/I2C_MPU6050.c ****     if(0u == I2C_MPU6050_initVar)
 114              		.loc 1 185 0
 115 0004 064B     		ldr	r3, .L7
 116 0006 1B78     		ldrb	r3, [r3]
 117 0008 002B     		cmp	r3, #0
 118 000a 04D1     		bne	.L6
 186:.\Generated_Source\PSoC4/I2C_MPU6050.c ****     {
 187:.\Generated_Source\PSoC4/I2C_MPU6050.c ****         I2C_MPU6050_Init();
 119              		.loc 1 187 0
 120 000c FFF7FEFF 		bl	I2C_MPU6050_Init
 188:.\Generated_Source\PSoC4/I2C_MPU6050.c ****         I2C_MPU6050_initVar = 1u; /* Component was initialized */
 121              		.loc 1 188 0
 122 0010 034B     		ldr	r3, .L7
 123 0012 0122     		mov	r2, #1
 124 0014 1A70     		strb	r2, [r3]
 125              	.L6:
 189:.\Generated_Source\PSoC4/I2C_MPU6050.c ****     }
 190:.\Generated_Source\PSoC4/I2C_MPU6050.c **** 
 191:.\Generated_Source\PSoC4/I2C_MPU6050.c ****     I2C_MPU6050_Enable();
 126              		.loc 1 191 0
 127 0016 FFF7FEFF 		bl	I2C_MPU6050_Enable
 192:.\Generated_Source\PSoC4/I2C_MPU6050.c **** }
 128              		.loc 1 192 0
 129 001a BD46     		mov	sp, r7
 130              		@ sp needed for prologue
 131 001c 80BD     		pop	{r7, pc}
 132              	.L8:
 133 001e C046     		.align	2
 134              	.L7:
 135 0020 00000000 		.word	I2C_MPU6050_initVar
 136              		.cfi_endproc
 137              	.LFE2:
 138              		.size	I2C_MPU6050_Start, .-I2C_MPU6050_Start
 139              		.section	.text.I2C_MPU6050_Stop,"ax",%progbits
 140              		.align	2
 141              		.global	I2C_MPU6050_Stop
 142              		.code	16
 143              		.thumb_func
 144              		.type	I2C_MPU6050_Stop, %function
 145              	I2C_MPU6050_Stop:
 146              	.LFB3:
 193:.\Generated_Source\PSoC4/I2C_MPU6050.c **** 
 194:.\Generated_Source\PSoC4/I2C_MPU6050.c **** 
 195:.\Generated_Source\PSoC4/I2C_MPU6050.c **** /*******************************************************************************
 196:.\Generated_Source\PSoC4/I2C_MPU6050.c **** * Function Name: I2C_MPU6050_Stop
ARM GAS  C:\Users\Sam\AppData\Local\Temp\ccq1cFOG.s 			page 7


 197:.\Generated_Source\PSoC4/I2C_MPU6050.c **** ********************************************************************************
 198:.\Generated_Source\PSoC4/I2C_MPU6050.c **** *
 199:.\Generated_Source\PSoC4/I2C_MPU6050.c **** * Summary:
 200:.\Generated_Source\PSoC4/I2C_MPU6050.c **** *  Disables the SCB component and its interrupt.
 201:.\Generated_Source\PSoC4/I2C_MPU6050.c **** *
 202:.\Generated_Source\PSoC4/I2C_MPU6050.c **** * Parameters:
 203:.\Generated_Source\PSoC4/I2C_MPU6050.c **** *  None
 204:.\Generated_Source\PSoC4/I2C_MPU6050.c **** *
 205:.\Generated_Source\PSoC4/I2C_MPU6050.c **** * Return:
 206:.\Generated_Source\PSoC4/I2C_MPU6050.c **** *  None
 207:.\Generated_Source\PSoC4/I2C_MPU6050.c **** *
 208:.\Generated_Source\PSoC4/I2C_MPU6050.c **** *******************************************************************************/
 209:.\Generated_Source\PSoC4/I2C_MPU6050.c **** void I2C_MPU6050_Stop(void)
 210:.\Generated_Source\PSoC4/I2C_MPU6050.c **** {
 147              		.loc 1 210 0
 148              		.cfi_startproc
 149 0000 80B5     		push	{r7, lr}
 150              	.LCFI6:
 151              		.cfi_def_cfa_offset 8
 152              		.cfi_offset 7, -8
 153              		.cfi_offset 14, -4
 154 0002 00AF     		add	r7, sp, #0
 155              	.LCFI7:
 156              		.cfi_def_cfa_register 7
 211:.\Generated_Source\PSoC4/I2C_MPU6050.c **** #if(I2C_MPU6050_SCB_IRQ_INTERNAL)
 212:.\Generated_Source\PSoC4/I2C_MPU6050.c ****     I2C_MPU6050_DisableInt();
 157              		.loc 1 212 0
 158 0004 0B20     		mov	r0, #11
 159 0006 FFF7FEFF 		bl	CyIntDisable
 213:.\Generated_Source\PSoC4/I2C_MPU6050.c **** #endif /* (I2C_MPU6050_SCB_IRQ_INTERNAL) */
 214:.\Generated_Source\PSoC4/I2C_MPU6050.c **** 
 215:.\Generated_Source\PSoC4/I2C_MPU6050.c ****     I2C_MPU6050_CTRL_REG &= (uint32) ~I2C_MPU6050_CTRL_ENABLED;  /* Disable SCB block */
 160              		.loc 1 215 0
 161 000a 064B     		ldr	r3, .L10
 162 000c 054A     		ldr	r2, .L10
 163 000e 1268     		ldr	r2, [r2]
 164 0010 5200     		lsl	r2, r2, #1
 165 0012 5208     		lsr	r2, r2, #1
 166 0014 1A60     		str	r2, [r3]
 216:.\Generated_Source\PSoC4/I2C_MPU6050.c **** 
 217:.\Generated_Source\PSoC4/I2C_MPU6050.c **** #if(I2C_MPU6050_SCB_IRQ_INTERNAL)
 218:.\Generated_Source\PSoC4/I2C_MPU6050.c ****     I2C_MPU6050_ClearPendingInt();
 167              		.loc 1 218 0
 168 0016 0B20     		mov	r0, #11
 169 0018 FFF7FEFF 		bl	CyIntClearPending
 219:.\Generated_Source\PSoC4/I2C_MPU6050.c **** #endif /* (I2C_MPU6050_SCB_IRQ_INTERNAL) */
 220:.\Generated_Source\PSoC4/I2C_MPU6050.c **** 
 221:.\Generated_Source\PSoC4/I2C_MPU6050.c ****     I2C_MPU6050_ScbModeStop(); /* Calls scbMode specific Stop function */
 170              		.loc 1 221 0
 171 001c FFF7FEFF 		bl	I2C_MPU6050_ScbModeStop
 222:.\Generated_Source\PSoC4/I2C_MPU6050.c **** }
 172              		.loc 1 222 0
 173 0020 BD46     		mov	sp, r7
 174              		@ sp needed for prologue
 175 0022 80BD     		pop	{r7, pc}
 176              	.L11:
 177              		.align	2
ARM GAS  C:\Users\Sam\AppData\Local\Temp\ccq1cFOG.s 			page 8


 178              	.L10:
 179 0024 00000740 		.word	1074200576
 180              		.cfi_endproc
 181              	.LFE3:
 182              		.size	I2C_MPU6050_Stop, .-I2C_MPU6050_Stop
 183              		.section	.text.I2C_MPU6050_SetCustomInterruptHandler,"ax",%progbits
 184              		.align	2
 185              		.global	I2C_MPU6050_SetCustomInterruptHandler
 186              		.code	16
 187              		.thumb_func
 188              		.type	I2C_MPU6050_SetCustomInterruptHandler, %function
 189              	I2C_MPU6050_SetCustomInterruptHandler:
 190              	.LFB4:
 223:.\Generated_Source\PSoC4/I2C_MPU6050.c **** 
 224:.\Generated_Source\PSoC4/I2C_MPU6050.c **** 
 225:.\Generated_Source\PSoC4/I2C_MPU6050.c **** /*******************************************************************************
 226:.\Generated_Source\PSoC4/I2C_MPU6050.c **** * Function Name: I2C_MPU6050_SetCustomInterruptHandler
 227:.\Generated_Source\PSoC4/I2C_MPU6050.c **** ********************************************************************************
 228:.\Generated_Source\PSoC4/I2C_MPU6050.c **** *
 229:.\Generated_Source\PSoC4/I2C_MPU6050.c **** * Summary:
 230:.\Generated_Source\PSoC4/I2C_MPU6050.c **** *  Registers a function to be called by the internal interrupt handler.
 231:.\Generated_Source\PSoC4/I2C_MPU6050.c **** *  First the function that is registered is called, then the internal interrupt
 232:.\Generated_Source\PSoC4/I2C_MPU6050.c **** *  handler performs any operations such as software buffer management functions
 233:.\Generated_Source\PSoC4/I2C_MPU6050.c **** *  before the interrupt returns.  It is the user's responsibility not to break the
 234:.\Generated_Source\PSoC4/I2C_MPU6050.c **** *  software buffer operations. Only one custom handler is supported, which is
 235:.\Generated_Source\PSoC4/I2C_MPU6050.c **** *  the function provided by the most recent call.
 236:.\Generated_Source\PSoC4/I2C_MPU6050.c **** *  At initialization time no custom handler is registered.
 237:.\Generated_Source\PSoC4/I2C_MPU6050.c **** *
 238:.\Generated_Source\PSoC4/I2C_MPU6050.c **** * Parameters:
 239:.\Generated_Source\PSoC4/I2C_MPU6050.c **** *  func: Pointer to the function to register.
 240:.\Generated_Source\PSoC4/I2C_MPU6050.c **** *        The value NULL indicates to remove the current custom interrupt
 241:.\Generated_Source\PSoC4/I2C_MPU6050.c **** *        handler.
 242:.\Generated_Source\PSoC4/I2C_MPU6050.c **** *
 243:.\Generated_Source\PSoC4/I2C_MPU6050.c **** * Return:
 244:.\Generated_Source\PSoC4/I2C_MPU6050.c **** *  None
 245:.\Generated_Source\PSoC4/I2C_MPU6050.c **** *
 246:.\Generated_Source\PSoC4/I2C_MPU6050.c **** *******************************************************************************/
 247:.\Generated_Source\PSoC4/I2C_MPU6050.c **** void I2C_MPU6050_SetCustomInterruptHandler(cyisraddress func)
 248:.\Generated_Source\PSoC4/I2C_MPU6050.c **** {
 191              		.loc 1 248 0
 192              		.cfi_startproc
 193 0000 80B5     		push	{r7, lr}
 194              	.LCFI8:
 195              		.cfi_def_cfa_offset 8
 196              		.cfi_offset 7, -8
 197              		.cfi_offset 14, -4
 198 0002 82B0     		sub	sp, sp, #8
 199              	.LCFI9:
 200              		.cfi_def_cfa_offset 16
 201 0004 00AF     		add	r7, sp, #0
 202              	.LCFI10:
 203              		.cfi_def_cfa_register 7
 204 0006 7860     		str	r0, [r7, #4]
 249:.\Generated_Source\PSoC4/I2C_MPU6050.c **** #if !defined (CY_REMOVE_I2C_MPU6050_CUSTOM_INTR_HANDLER)
 250:.\Generated_Source\PSoC4/I2C_MPU6050.c ****     I2C_MPU6050_customIntrHandler = func; /* Register interrupt handler */
 205              		.loc 1 250 0
 206 0008 024B     		ldr	r3, .L13
ARM GAS  C:\Users\Sam\AppData\Local\Temp\ccq1cFOG.s 			page 9


 207 000a 7A68     		ldr	r2, [r7, #4]
 208 000c 1A60     		str	r2, [r3]
 251:.\Generated_Source\PSoC4/I2C_MPU6050.c **** #else
 252:.\Generated_Source\PSoC4/I2C_MPU6050.c ****     if(NULL != func)
 253:.\Generated_Source\PSoC4/I2C_MPU6050.c ****     {
 254:.\Generated_Source\PSoC4/I2C_MPU6050.c ****         /* Suppress compiler warning */
 255:.\Generated_Source\PSoC4/I2C_MPU6050.c ****     }
 256:.\Generated_Source\PSoC4/I2C_MPU6050.c **** #endif /* !defined (CY_REMOVE_I2C_MPU6050_CUSTOM_INTR_HANDLER) */
 257:.\Generated_Source\PSoC4/I2C_MPU6050.c **** }
 209              		.loc 1 257 0
 210 000e BD46     		mov	sp, r7
 211 0010 02B0     		add	sp, sp, #8
 212              		@ sp needed for prologue
 213 0012 80BD     		pop	{r7, pc}
 214              	.L14:
 215              		.align	2
 216              	.L13:
 217 0014 00000000 		.word	I2C_MPU6050_customIntrHandler
 218              		.cfi_endproc
 219              	.LFE4:
 220              		.size	I2C_MPU6050_SetCustomInterruptHandler, .-I2C_MPU6050_SetCustomInterruptHandler
 221              		.section	.text.I2C_MPU6050_ScbEnableIntr,"ax",%progbits
 222              		.align	2
 223              		.code	16
 224              		.thumb_func
 225              		.type	I2C_MPU6050_ScbEnableIntr, %function
 226              	I2C_MPU6050_ScbEnableIntr:
 227              	.LFB5:
 258:.\Generated_Source\PSoC4/I2C_MPU6050.c **** 
 259:.\Generated_Source\PSoC4/I2C_MPU6050.c **** 
 260:.\Generated_Source\PSoC4/I2C_MPU6050.c **** /*******************************************************************************
 261:.\Generated_Source\PSoC4/I2C_MPU6050.c **** * Function Name: I2C_MPU6050_ScbModeEnableIntr
 262:.\Generated_Source\PSoC4/I2C_MPU6050.c **** ********************************************************************************
 263:.\Generated_Source\PSoC4/I2C_MPU6050.c **** *
 264:.\Generated_Source\PSoC4/I2C_MPU6050.c **** * Summary:
 265:.\Generated_Source\PSoC4/I2C_MPU6050.c **** *  Enables an interrupt for a specific mode.
 266:.\Generated_Source\PSoC4/I2C_MPU6050.c **** *
 267:.\Generated_Source\PSoC4/I2C_MPU6050.c **** * Parameters:
 268:.\Generated_Source\PSoC4/I2C_MPU6050.c **** *  None
 269:.\Generated_Source\PSoC4/I2C_MPU6050.c **** *
 270:.\Generated_Source\PSoC4/I2C_MPU6050.c **** * Return:
 271:.\Generated_Source\PSoC4/I2C_MPU6050.c **** *  None
 272:.\Generated_Source\PSoC4/I2C_MPU6050.c **** *
 273:.\Generated_Source\PSoC4/I2C_MPU6050.c **** *******************************************************************************/
 274:.\Generated_Source\PSoC4/I2C_MPU6050.c **** static void I2C_MPU6050_ScbEnableIntr(void)
 275:.\Generated_Source\PSoC4/I2C_MPU6050.c **** {
 228              		.loc 1 275 0
 229              		.cfi_startproc
 230 0000 80B5     		push	{r7, lr}
 231              	.LCFI11:
 232              		.cfi_def_cfa_offset 8
 233              		.cfi_offset 7, -8
 234              		.cfi_offset 14, -4
 235 0002 00AF     		add	r7, sp, #0
 236              	.LCFI12:
 237              		.cfi_def_cfa_register 7
 276:.\Generated_Source\PSoC4/I2C_MPU6050.c **** #if(I2C_MPU6050_SCB_IRQ_INTERNAL)
ARM GAS  C:\Users\Sam\AppData\Local\Temp\ccq1cFOG.s 			page 10


 277:.\Generated_Source\PSoC4/I2C_MPU6050.c ****     #if(I2C_MPU6050_SCB_MODE_UNCONFIG_CONST_CFG)
 278:.\Generated_Source\PSoC4/I2C_MPU6050.c ****         /* Enable interrupt in the NVIC */
 279:.\Generated_Source\PSoC4/I2C_MPU6050.c ****         if(0u != I2C_MPU6050_scbEnableIntr)
 280:.\Generated_Source\PSoC4/I2C_MPU6050.c ****         {
 281:.\Generated_Source\PSoC4/I2C_MPU6050.c ****             I2C_MPU6050_EnableInt();
 282:.\Generated_Source\PSoC4/I2C_MPU6050.c ****         }
 283:.\Generated_Source\PSoC4/I2C_MPU6050.c ****     #else
 284:.\Generated_Source\PSoC4/I2C_MPU6050.c ****         I2C_MPU6050_EnableInt();
 238              		.loc 1 284 0
 239 0004 0B20     		mov	r0, #11
 240 0006 FFF7FEFF 		bl	CyIntEnable
 285:.\Generated_Source\PSoC4/I2C_MPU6050.c **** 
 286:.\Generated_Source\PSoC4/I2C_MPU6050.c ****     #endif /* (I2C_MPU6050_SCB_MODE_UNCONFIG_CONST_CFG) */
 287:.\Generated_Source\PSoC4/I2C_MPU6050.c **** #endif /* (I2C_MPU6050_SCB_IRQ_INTERNAL) */
 288:.\Generated_Source\PSoC4/I2C_MPU6050.c **** }
 241              		.loc 1 288 0
 242 000a BD46     		mov	sp, r7
 243              		@ sp needed for prologue
 244 000c 80BD     		pop	{r7, pc}
 245              		.cfi_endproc
 246              	.LFE5:
 247              		.size	I2C_MPU6050_ScbEnableIntr, .-I2C_MPU6050_ScbEnableIntr
 248 000e C046     		.section	.text.I2C_MPU6050_ScbModeStop,"ax",%progbits
 249              		.align	2
 250              		.code	16
 251              		.thumb_func
 252              		.type	I2C_MPU6050_ScbModeStop, %function
 253              	I2C_MPU6050_ScbModeStop:
 254              	.LFB6:
 289:.\Generated_Source\PSoC4/I2C_MPU6050.c **** 
 290:.\Generated_Source\PSoC4/I2C_MPU6050.c **** 
 291:.\Generated_Source\PSoC4/I2C_MPU6050.c **** /*******************************************************************************
 292:.\Generated_Source\PSoC4/I2C_MPU6050.c **** * Function Name: I2C_MPU6050_ScbModeStop
 293:.\Generated_Source\PSoC4/I2C_MPU6050.c **** ********************************************************************************
 294:.\Generated_Source\PSoC4/I2C_MPU6050.c **** *
 295:.\Generated_Source\PSoC4/I2C_MPU6050.c **** * Summary:
 296:.\Generated_Source\PSoC4/I2C_MPU6050.c **** *  Calls the Stop function for a specific operation mode.
 297:.\Generated_Source\PSoC4/I2C_MPU6050.c **** *
 298:.\Generated_Source\PSoC4/I2C_MPU6050.c **** * Parameters:
 299:.\Generated_Source\PSoC4/I2C_MPU6050.c **** *  None
 300:.\Generated_Source\PSoC4/I2C_MPU6050.c **** *
 301:.\Generated_Source\PSoC4/I2C_MPU6050.c **** * Return:
 302:.\Generated_Source\PSoC4/I2C_MPU6050.c **** *  None
 303:.\Generated_Source\PSoC4/I2C_MPU6050.c **** *
 304:.\Generated_Source\PSoC4/I2C_MPU6050.c **** *******************************************************************************/
 305:.\Generated_Source\PSoC4/I2C_MPU6050.c **** static void I2C_MPU6050_ScbModeStop(void)
 306:.\Generated_Source\PSoC4/I2C_MPU6050.c **** {
 255              		.loc 1 306 0
 256              		.cfi_startproc
 257 0000 80B5     		push	{r7, lr}
 258              	.LCFI13:
 259              		.cfi_def_cfa_offset 8
 260              		.cfi_offset 7, -8
 261              		.cfi_offset 14, -4
 262 0002 00AF     		add	r7, sp, #0
 263              	.LCFI14:
 264              		.cfi_def_cfa_register 7
ARM GAS  C:\Users\Sam\AppData\Local\Temp\ccq1cFOG.s 			page 11


 307:.\Generated_Source\PSoC4/I2C_MPU6050.c **** #if(I2C_MPU6050_SCB_MODE_UNCONFIG_CONST_CFG)
 308:.\Generated_Source\PSoC4/I2C_MPU6050.c ****     if(I2C_MPU6050_SCB_MODE_I2C_RUNTM_CFG)
 309:.\Generated_Source\PSoC4/I2C_MPU6050.c ****     {
 310:.\Generated_Source\PSoC4/I2C_MPU6050.c ****         I2C_MPU6050_I2CStop();
 311:.\Generated_Source\PSoC4/I2C_MPU6050.c ****     }
 312:.\Generated_Source\PSoC4/I2C_MPU6050.c ****     else if(I2C_MPU6050_SCB_MODE_EZI2C_RUNTM_CFG)
 313:.\Generated_Source\PSoC4/I2C_MPU6050.c ****     {
 314:.\Generated_Source\PSoC4/I2C_MPU6050.c ****         I2C_MPU6050_EzI2CStop();
 315:.\Generated_Source\PSoC4/I2C_MPU6050.c ****     }
 316:.\Generated_Source\PSoC4/I2C_MPU6050.c ****     else
 317:.\Generated_Source\PSoC4/I2C_MPU6050.c ****     {
 318:.\Generated_Source\PSoC4/I2C_MPU6050.c ****         /* Do nohing for other modes */
 319:.\Generated_Source\PSoC4/I2C_MPU6050.c ****     }
 320:.\Generated_Source\PSoC4/I2C_MPU6050.c **** #elif(I2C_MPU6050_SCB_MODE_I2C_CONST_CFG)
 321:.\Generated_Source\PSoC4/I2C_MPU6050.c ****     I2C_MPU6050_I2CStop();
 265              		.loc 1 321 0
 266 0004 FFF7FEFF 		bl	I2C_MPU6050_I2CStop
 322:.\Generated_Source\PSoC4/I2C_MPU6050.c **** 
 323:.\Generated_Source\PSoC4/I2C_MPU6050.c **** #elif(I2C_MPU6050_SCB_MODE_EZI2C_CONST_CFG)
 324:.\Generated_Source\PSoC4/I2C_MPU6050.c ****     I2C_MPU6050_EzI2CStop();
 325:.\Generated_Source\PSoC4/I2C_MPU6050.c **** 
 326:.\Generated_Source\PSoC4/I2C_MPU6050.c **** #endif /* (I2C_MPU6050_SCB_MODE_UNCONFIG_CONST_CFG) */
 327:.\Generated_Source\PSoC4/I2C_MPU6050.c **** }
 267              		.loc 1 327 0
 268 0008 BD46     		mov	sp, r7
 269              		@ sp needed for prologue
 270 000a 80BD     		pop	{r7, pc}
 271              		.cfi_endproc
 272              	.LFE6:
 273              		.size	I2C_MPU6050_ScbModeStop, .-I2C_MPU6050_ScbModeStop
 274              		.text
 275              	.Letext0:
 276              		.file 2 "./Generated_Source/PSoC4/cytypes.h"