ARM GAS  C:\Users\Sam\AppData\Local\Temp\ccfz4KIl.s 			page 1


   1              		.cpu cortex-m0
   2              		.fpu softvfp
   3              		.eabi_attribute 20, 1
   4              		.eabi_attribute 21, 1
   5              		.eabi_attribute 23, 3
   6              		.eabi_attribute 24, 1
   7              		.eabi_attribute 25, 1
   8              		.eabi_attribute 26, 1
   9              		.eabi_attribute 30, 6
  10              		.eabi_attribute 34, 0
  11              		.eabi_attribute 18, 4
  12              		.code	16
  13              		.file	"i2cFunctions.c"
  14              		.text
  15              	.Ltext0:
  16              		.cfi_sections	.debug_frame
  17              		.section	.text.I2CReadBytes,"ax",%progbits
  18              		.align	2
  19              		.global	I2CReadBytes
  20              		.code	16
  21              		.thumb_func
  22              		.type	I2CReadBytes, %function
  23              	I2CReadBytes:
  24              	.LFB33:
  25              		.file 1 ".\\i2cFunctions.c"
   1:.\i2cFunctions.c **** /* ========================================
   2:.\i2cFunctions.c ****  *
   3:.\i2cFunctions.c ****  * Copyright Samuel Walsh, 2014
   4:.\i2cFunctions.c ****  * All Rights Reserved
   5:.\i2cFunctions.c ****  * UNPUBLISHED, LICENSED SOFTWARE.
   6:.\i2cFunctions.c ****  *
   7:.\i2cFunctions.c ****  * CONFIDENTIAL AND PROPRIETARY INFORMATION
   8:.\i2cFunctions.c ****  * WHICH IS THE PROPERTY OF Samuel Walsh.
   9:.\i2cFunctions.c ****  *
  10:.\i2cFunctions.c ****  * ========================================
  11:.\i2cFunctions.c **** */
  12:.\i2cFunctions.c **** 
  13:.\i2cFunctions.c **** /* [] END OF FILE */
  14:.\i2cFunctions.c **** 
  15:.\i2cFunctions.c **** #include <project.h>
  16:.\i2cFunctions.c **** 
  17:.\i2cFunctions.c **** 
  18:.\i2cFunctions.c **** void I2CReadBytes(uint8_t devAddr, uint8_t regAddr, uint8_t length, uint8_t *value) {
  26              		.loc 1 18 0
  27              		.cfi_startproc
  28 0000 80B5     		push	{r7, lr}
  29              	.LCFI0:
  30              		.cfi_def_cfa_offset 8
  31              		.cfi_offset 7, -8
  32              		.cfi_offset 14, -4
  33 0002 84B0     		sub	sp, sp, #16
  34              	.LCFI1:
  35              		.cfi_def_cfa_offset 24
  36 0004 00AF     		add	r7, sp, #0
  37              	.LCFI2:
  38              		.cfi_def_cfa_register 7
  39 0006 3B60     		str	r3, [r7]
ARM GAS  C:\Users\Sam\AppData\Local\Temp\ccfz4KIl.s 			page 2


  40 0008 FB1D     		add	r3, r7, #7
  41 000a 1870     		strb	r0, [r3]
  42 000c BB1D     		add	r3, r7, #6
  43 000e 1970     		strb	r1, [r3]
  44 0010 7B1D     		add	r3, r7, #5
  45 0012 1A70     		strb	r2, [r3]
  19:.\i2cFunctions.c **** 	uint8_t i=0;
  46              		.loc 1 19 0
  47 0014 3B1C     		mov	r3, r7
  48 0016 0F33     		add	r3, r3, #15
  49 0018 0022     		mov	r2, #0
  50 001a 1A70     		strb	r2, [r3]
  20:.\i2cFunctions.c **** 	I2C_MPU6050_I2CMasterSendStart(devAddr, I2C_MPU6050_I2C_WRITE_XFER_MODE);
  51              		.loc 1 20 0
  52 001c FB1D     		add	r3, r7, #7
  53 001e 1B78     		ldrb	r3, [r3]
  54 0020 181C     		mov	r0, r3
  55 0022 0021     		mov	r1, #0
  56 0024 FFF7FEFF 		bl	I2C_MPU6050_I2CMasterSendStart
  21:.\i2cFunctions.c **** 	I2C_MPU6050_I2CMasterWriteByte(regAddr);
  57              		.loc 1 21 0
  58 0028 BB1D     		add	r3, r7, #6
  59 002a 1B78     		ldrb	r3, [r3]
  60 002c 181C     		mov	r0, r3
  61 002e FFF7FEFF 		bl	I2C_MPU6050_I2CMasterWriteByte
  22:.\i2cFunctions.c **** 	I2C_MPU6050_I2CMasterSendRestart(devAddr, I2C_MPU6050_I2C_READ_XFER_MODE);
  62              		.loc 1 22 0
  63 0032 FB1D     		add	r3, r7, #7
  64 0034 1B78     		ldrb	r3, [r3]
  65 0036 181C     		mov	r0, r3
  66 0038 0121     		mov	r1, #1
  67 003a FFF7FEFF 		bl	I2C_MPU6050_I2CMasterSendRestart
  23:.\i2cFunctions.c **** 	while (i++ < (length-1)) {
  68              		.loc 1 23 0
  69 003e 09E0     		b	.L2
  70              	.L4:
  24:.\i2cFunctions.c **** 		*value++ = I2C_MPU6050_I2CMasterReadByte(I2C_MPU6050_I2C_ACK_DATA);
  71              		.loc 1 24 0
  72 0040 0020     		mov	r0, #0
  73 0042 FFF7FEFF 		bl	I2C_MPU6050_I2CMasterReadByte
  74 0046 031C     		mov	r3, r0
  75 0048 DAB2     		uxtb	r2, r3
  76 004a 3B68     		ldr	r3, [r7]
  77 004c 1A70     		strb	r2, [r3]
  78 004e 3B68     		ldr	r3, [r7]
  79 0050 0133     		add	r3, r3, #1
  80 0052 3B60     		str	r3, [r7]
  81              	.L2:
  23:.\i2cFunctions.c **** 	while (i++ < (length-1)) {
  82              		.loc 1 23 0 discriminator 1
  83 0054 3B1C     		mov	r3, r7
  84 0056 0F33     		add	r3, r3, #15
  85 0058 1978     		ldrb	r1, [r3]
  86 005a 7B1D     		add	r3, r7, #5
  87 005c 1B78     		ldrb	r3, [r3]
  88 005e 5A1E     		sub	r2, r3, #1
  89 0060 0123     		mov	r3, #1
ARM GAS  C:\Users\Sam\AppData\Local\Temp\ccfz4KIl.s 			page 3


  90 0062 9142     		cmp	r1, r2
  91 0064 00DB     		blt	.L3
  92 0066 0023     		mov	r3, #0
  93              	.L3:
  94 0068 DBB2     		uxtb	r3, r3
  95 006a 3A1C     		mov	r2, r7
  96 006c 0F32     		add	r2, r2, #15
  97 006e 391C     		mov	r1, r7
  98 0070 0F31     		add	r1, r1, #15
  99 0072 0978     		ldrb	r1, [r1]
 100 0074 0131     		add	r1, r1, #1
 101 0076 1170     		strb	r1, [r2]
 102 0078 002B     		cmp	r3, #0
 103 007a E1D1     		bne	.L4
  25:.\i2cFunctions.c **** 	}
  26:.\i2cFunctions.c **** 	*value = I2C_MPU6050_I2CMasterReadByte(I2C_MPU6050_I2C_NAK_DATA);
 104              		.loc 1 26 0
 105 007c 0120     		mov	r0, #1
 106 007e FFF7FEFF 		bl	I2C_MPU6050_I2CMasterReadByte
 107 0082 031C     		mov	r3, r0
 108 0084 DAB2     		uxtb	r2, r3
 109 0086 3B68     		ldr	r3, [r7]
 110 0088 1A70     		strb	r2, [r3]
  27:.\i2cFunctions.c **** 	I2C_MPU6050_I2CMasterSendStop();	
 111              		.loc 1 27 0
 112 008a FFF7FEFF 		bl	I2C_MPU6050_I2CMasterSendStop
  28:.\i2cFunctions.c **** }
 113              		.loc 1 28 0
 114 008e BD46     		mov	sp, r7
 115 0090 04B0     		add	sp, sp, #16
 116              		@ sp needed for prologue
 117 0092 80BD     		pop	{r7, pc}
 118              		.cfi_endproc
 119              	.LFE33:
 120              		.size	I2CReadBytes, .-I2CReadBytes
 121              		.section	.text.I2CReadByte,"ax",%progbits
 122              		.align	2
 123              		.global	I2CReadByte
 124              		.code	16
 125              		.thumb_func
 126              		.type	I2CReadByte, %function
 127              	I2CReadByte:
 128              	.LFB34:
  29:.\i2cFunctions.c **** 
  30:.\i2cFunctions.c **** void I2CReadByte(uint8_t devAddr, uint8_t regAddr, uint8_t *value) {
 129              		.loc 1 30 0
 130              		.cfi_startproc
 131 0000 80B5     		push	{r7, lr}
 132              	.LCFI3:
 133              		.cfi_def_cfa_offset 8
 134              		.cfi_offset 7, -8
 135              		.cfi_offset 14, -4
 136 0002 82B0     		sub	sp, sp, #8
 137              	.LCFI4:
 138              		.cfi_def_cfa_offset 16
 139 0004 00AF     		add	r7, sp, #0
 140              	.LCFI5:
ARM GAS  C:\Users\Sam\AppData\Local\Temp\ccfz4KIl.s 			page 4


 141              		.cfi_def_cfa_register 7
 142 0006 3A60     		str	r2, [r7]
 143 0008 FB1D     		add	r3, r7, #7
 144 000a 021C     		add	r2, r0, #0
 145 000c 1A70     		strb	r2, [r3]
 146 000e BB1D     		add	r3, r7, #6
 147 0010 0A1C     		add	r2, r1, #0
 148 0012 1A70     		strb	r2, [r3]
  31:.\i2cFunctions.c **** 	I2CReadBytes(devAddr, regAddr, 1, value);
 149              		.loc 1 31 0
 150 0014 FB1D     		add	r3, r7, #7
 151 0016 1978     		ldrb	r1, [r3]
 152 0018 BB1D     		add	r3, r7, #6
 153 001a 1A78     		ldrb	r2, [r3]
 154 001c 3B68     		ldr	r3, [r7]
 155 001e 081C     		mov	r0, r1
 156 0020 111C     		mov	r1, r2
 157 0022 0122     		mov	r2, #1
 158 0024 FFF7FEFF 		bl	I2CReadBytes
  32:.\i2cFunctions.c **** }
 159              		.loc 1 32 0
 160 0028 BD46     		mov	sp, r7
 161 002a 02B0     		add	sp, sp, #8
 162              		@ sp needed for prologue
 163 002c 80BD     		pop	{r7, pc}
 164              		.cfi_endproc
 165              	.LFE34:
 166              		.size	I2CReadByte, .-I2CReadByte
 167 002e C046     		.section	.text.I2CReadBits,"ax",%progbits
 168              		.align	2
 169              		.global	I2CReadBits
 170              		.code	16
 171              		.thumb_func
 172              		.type	I2CReadBits, %function
 173              	I2CReadBits:
 174              	.LFB35:
  33:.\i2cFunctions.c **** 
  34:.\i2cFunctions.c **** void I2CReadBits(uint8_t devAddr, uint8_t regAddr, uint8_t bitStart, uint8_t length, uint8_t *value
 175              		.loc 1 34 0
 176              		.cfi_startproc
 177 0000 90B5     		push	{r4, r7, lr}
 178              	.LCFI6:
 179              		.cfi_def_cfa_offset 12
 180              		.cfi_offset 4, -12
 181              		.cfi_offset 7, -8
 182              		.cfi_offset 14, -4
 183 0002 85B0     		sub	sp, sp, #20
 184              	.LCFI7:
 185              		.cfi_def_cfa_offset 32
 186 0004 00AF     		add	r7, sp, #0
 187              	.LCFI8:
 188              		.cfi_def_cfa_register 7
 189 0006 041C     		mov	r4, r0
 190 0008 081C     		mov	r0, r1
 191 000a 111C     		mov	r1, r2
 192 000c 1A1C     		mov	r2, r3
 193 000e FB1D     		add	r3, r7, #7
ARM GAS  C:\Users\Sam\AppData\Local\Temp\ccfz4KIl.s 			page 5


 194 0010 1C70     		strb	r4, [r3]
 195 0012 BB1D     		add	r3, r7, #6
 196 0014 1870     		strb	r0, [r3]
 197 0016 7B1D     		add	r3, r7, #5
 198 0018 1970     		strb	r1, [r3]
 199 001a 3B1D     		add	r3, r7, #4
 200 001c 1A70     		strb	r2, [r3]
  35:.\i2cFunctions.c ****    	uint8_t mask = ((1 << length) - 1) << (bitStart - length + 1);
 201              		.loc 1 35 0
 202 001e 3B1D     		add	r3, r7, #4
 203 0020 1B78     		ldrb	r3, [r3]
 204 0022 0122     		mov	r2, #1
 205 0024 111C     		mov	r1, r2
 206 0026 9940     		lsl	r1, r1, r3
 207 0028 0B1C     		mov	r3, r1
 208 002a 5A1E     		sub	r2, r3, #1
 209 002c 7B1D     		add	r3, r7, #5
 210 002e 1978     		ldrb	r1, [r3]
 211 0030 3B1D     		add	r3, r7, #4
 212 0032 1B78     		ldrb	r3, [r3]
 213 0034 CB1A     		sub	r3, r1, r3
 214 0036 0133     		add	r3, r3, #1
 215 0038 9A40     		lsl	r2, r2, r3
 216 003a 3B1C     		mov	r3, r7
 217 003c 0F33     		add	r3, r3, #15
 218 003e 1A70     		strb	r2, [r3]
  36:.\i2cFunctions.c ****     I2CReadByte(devAddr, regAddr, value);
 219              		.loc 1 36 0
 220 0040 FB1D     		add	r3, r7, #7
 221 0042 1978     		ldrb	r1, [r3]
 222 0044 BB1D     		add	r3, r7, #6
 223 0046 1A78     		ldrb	r2, [r3]
 224 0048 3B6A     		ldr	r3, [r7, #32]
 225 004a 081C     		mov	r0, r1
 226 004c 111C     		mov	r1, r2
 227 004e 1A1C     		mov	r2, r3
 228 0050 FFF7FEFF 		bl	I2CReadByte
  37:.\i2cFunctions.c ****     *value &= mask;
 229              		.loc 1 37 0
 230 0054 3B6A     		ldr	r3, [r7, #32]
 231 0056 1B78     		ldrb	r3, [r3]
 232 0058 3A1C     		mov	r2, r7
 233 005a 0F32     		add	r2, r2, #15
 234 005c 1278     		ldrb	r2, [r2]
 235 005e 1340     		and	r3, r2
 236 0060 DAB2     		uxtb	r2, r3
 237 0062 3B6A     		ldr	r3, [r7, #32]
 238 0064 1A70     		strb	r2, [r3]
  38:.\i2cFunctions.c ****     *value >>= (bitStart - length + 1);
 239              		.loc 1 38 0
 240 0066 3B6A     		ldr	r3, [r7, #32]
 241 0068 1B78     		ldrb	r3, [r3]
 242 006a 1A1C     		mov	r2, r3
 243 006c 7B1D     		add	r3, r7, #5
 244 006e 1978     		ldrb	r1, [r3]
 245 0070 3B1D     		add	r3, r7, #4
 246 0072 1B78     		ldrb	r3, [r3]
ARM GAS  C:\Users\Sam\AppData\Local\Temp\ccfz4KIl.s 			page 6


 247 0074 CB1A     		sub	r3, r1, r3
 248 0076 0133     		add	r3, r3, #1
 249 0078 111C     		mov	r1, r2
 250 007a 1941     		asr	r1, r1, r3
 251 007c 0B1C     		mov	r3, r1
 252 007e DAB2     		uxtb	r2, r3
 253 0080 3B6A     		ldr	r3, [r7, #32]
 254 0082 1A70     		strb	r2, [r3]
  39:.\i2cFunctions.c **** }
 255              		.loc 1 39 0
 256 0084 BD46     		mov	sp, r7
 257 0086 05B0     		add	sp, sp, #20
 258              		@ sp needed for prologue
 259 0088 90BD     		pop	{r4, r7, pc}
 260              		.cfi_endproc
 261              	.LFE35:
 262              		.size	I2CReadBits, .-I2CReadBits
 263 008a C046     		.section	.text.I2CReadBit,"ax",%progbits
 264              		.align	2
 265              		.global	I2CReadBit
 266              		.code	16
 267              		.thumb_func
 268              		.type	I2CReadBit, %function
 269              	I2CReadBit:
 270              	.LFB36:
  40:.\i2cFunctions.c **** 
  41:.\i2cFunctions.c **** void I2CReadBit(uint8_t devAddr, uint8_t regAddr, uint8_t bitNum, uint8_t *value) {
 271              		.loc 1 41 0
 272              		.cfi_startproc
 273 0000 80B5     		push	{r7, lr}
 274              	.LCFI9:
 275              		.cfi_def_cfa_offset 8
 276              		.cfi_offset 7, -8
 277              		.cfi_offset 14, -4
 278 0002 82B0     		sub	sp, sp, #8
 279              	.LCFI10:
 280              		.cfi_def_cfa_offset 16
 281 0004 00AF     		add	r7, sp, #0
 282              	.LCFI11:
 283              		.cfi_def_cfa_register 7
 284 0006 3B60     		str	r3, [r7]
 285 0008 FB1D     		add	r3, r7, #7
 286 000a 1870     		strb	r0, [r3]
 287 000c BB1D     		add	r3, r7, #6
 288 000e 1970     		strb	r1, [r3]
 289 0010 7B1D     		add	r3, r7, #5
 290 0012 1A70     		strb	r2, [r3]
  42:.\i2cFunctions.c **** 	I2CReadByte(devAddr, regAddr, value);
 291              		.loc 1 42 0
 292 0014 FB1D     		add	r3, r7, #7
 293 0016 1978     		ldrb	r1, [r3]
 294 0018 BB1D     		add	r3, r7, #6
 295 001a 1A78     		ldrb	r2, [r3]
 296 001c 3B68     		ldr	r3, [r7]
 297 001e 081C     		mov	r0, r1
 298 0020 111C     		mov	r1, r2
 299 0022 1A1C     		mov	r2, r3
ARM GAS  C:\Users\Sam\AppData\Local\Temp\ccfz4KIl.s 			page 7


 300 0024 FFF7FEFF 		bl	I2CReadByte
  43:.\i2cFunctions.c **** 	*value = *value & (1 << bitNum);
 301              		.loc 1 43 0
 302 0028 3B68     		ldr	r3, [r7]
 303 002a 1B78     		ldrb	r3, [r3]
 304 002c DBB2     		uxtb	r3, r3
 305 002e 7A1D     		add	r2, r7, #5
 306 0030 1278     		ldrb	r2, [r2]
 307 0032 0121     		mov	r1, #1
 308 0034 081C     		mov	r0, r1
 309 0036 9040     		lsl	r0, r0, r2
 310 0038 021C     		mov	r2, r0
 311 003a D2B2     		uxtb	r2, r2
 312 003c 1340     		and	r3, r2
 313 003e DBB2     		uxtb	r3, r3
 314 0040 DAB2     		uxtb	r2, r3
 315 0042 3B68     		ldr	r3, [r7]
 316 0044 1A70     		strb	r2, [r3]
  44:.\i2cFunctions.c **** }
 317              		.loc 1 44 0
 318 0046 BD46     		mov	sp, r7
 319 0048 02B0     		add	sp, sp, #8
 320              		@ sp needed for prologue
 321 004a 80BD     		pop	{r7, pc}
 322              		.cfi_endproc
 323              	.LFE36:
 324              		.size	I2CReadBit, .-I2CReadBit
 325              		.section	.text.I2CWriteBytes,"ax",%progbits
 326              		.align	2
 327              		.global	I2CWriteBytes
 328              		.code	16
 329              		.thumb_func
 330              		.type	I2CWriteBytes, %function
 331              	I2CWriteBytes:
 332              	.LFB37:
  45:.\i2cFunctions.c **** 	
  46:.\i2cFunctions.c **** void I2CWriteBytes(uint8_t devAddr, uint8_t regAddr, uint8_t length, uint8_t *value) {
 333              		.loc 1 46 0
 334              		.cfi_startproc
 335 0000 80B5     		push	{r7, lr}
 336              	.LCFI12:
 337              		.cfi_def_cfa_offset 8
 338              		.cfi_offset 7, -8
 339              		.cfi_offset 14, -4
 340 0002 84B0     		sub	sp, sp, #16
 341              	.LCFI13:
 342              		.cfi_def_cfa_offset 24
 343 0004 00AF     		add	r7, sp, #0
 344              	.LCFI14:
 345              		.cfi_def_cfa_register 7
 346 0006 3B60     		str	r3, [r7]
 347 0008 FB1D     		add	r3, r7, #7
 348 000a 1870     		strb	r0, [r3]
 349 000c BB1D     		add	r3, r7, #6
 350 000e 1970     		strb	r1, [r3]
 351 0010 7B1D     		add	r3, r7, #5
 352 0012 1A70     		strb	r2, [r3]
ARM GAS  C:\Users\Sam\AppData\Local\Temp\ccfz4KIl.s 			page 8


  47:.\i2cFunctions.c **** 	uint8_t i=0;
 353              		.loc 1 47 0
 354 0014 3B1C     		mov	r3, r7
 355 0016 0F33     		add	r3, r3, #15
 356 0018 0022     		mov	r2, #0
 357 001a 1A70     		strb	r2, [r3]
  48:.\i2cFunctions.c **** 	I2C_MPU6050_I2CMasterSendStart(devAddr, I2C_MPU6050_I2C_WRITE_XFER_MODE);
 358              		.loc 1 48 0
 359 001c FB1D     		add	r3, r7, #7
 360 001e 1B78     		ldrb	r3, [r3]
 361 0020 181C     		mov	r0, r3
 362 0022 0021     		mov	r1, #0
 363 0024 FFF7FEFF 		bl	I2C_MPU6050_I2CMasterSendStart
  49:.\i2cFunctions.c **** 	I2C_MPU6050_I2CMasterWriteByte(regAddr);
 364              		.loc 1 49 0
 365 0028 BB1D     		add	r3, r7, #6
 366 002a 1B78     		ldrb	r3, [r3]
 367 002c 181C     		mov	r0, r3
 368 002e FFF7FEFF 		bl	I2C_MPU6050_I2CMasterWriteByte
  50:.\i2cFunctions.c **** 	while (i++ < length) {
 369              		.loc 1 50 0
 370 0032 07E0     		b	.L9
 371              	.L10:
  51:.\i2cFunctions.c **** 		I2C_MPU6050_I2CMasterWriteByte(*value++);
 372              		.loc 1 51 0
 373 0034 3B68     		ldr	r3, [r7]
 374 0036 1B78     		ldrb	r3, [r3]
 375 0038 3A68     		ldr	r2, [r7]
 376 003a 0132     		add	r2, r2, #1
 377 003c 3A60     		str	r2, [r7]
 378 003e 181C     		mov	r0, r3
 379 0040 FFF7FEFF 		bl	I2C_MPU6050_I2CMasterWriteByte
 380              	.L9:
  50:.\i2cFunctions.c **** 	while (i++ < length) {
 381              		.loc 1 50 0 discriminator 1
 382 0044 3A1C     		mov	r2, r7
 383 0046 0F32     		add	r2, r2, #15
 384 0048 7B1D     		add	r3, r7, #5
 385 004a 1278     		ldrb	r2, [r2]
 386 004c 1B78     		ldrb	r3, [r3]
 387 004e 9A42     		cmp	r2, r3
 388 0050 9B41     		sbc	r3, r3, r3
 389 0052 5B42     		neg	r3, r3
 390 0054 DBB2     		uxtb	r3, r3
 391 0056 3A1C     		mov	r2, r7
 392 0058 0F32     		add	r2, r2, #15
 393 005a 391C     		mov	r1, r7
 394 005c 0F31     		add	r1, r1, #15
 395 005e 0978     		ldrb	r1, [r1]
 396 0060 0131     		add	r1, r1, #1
 397 0062 1170     		strb	r1, [r2]
 398 0064 002B     		cmp	r3, #0
 399 0066 E5D1     		bne	.L10
  52:.\i2cFunctions.c **** 	}
  53:.\i2cFunctions.c **** 	I2C_MPU6050_I2CMasterSendStop();	
 400              		.loc 1 53 0
 401 0068 FFF7FEFF 		bl	I2C_MPU6050_I2CMasterSendStop
ARM GAS  C:\Users\Sam\AppData\Local\Temp\ccfz4KIl.s 			page 9


  54:.\i2cFunctions.c **** }
 402              		.loc 1 54 0
 403 006c BD46     		mov	sp, r7
 404 006e 04B0     		add	sp, sp, #16
 405              		@ sp needed for prologue
 406 0070 80BD     		pop	{r7, pc}
 407              		.cfi_endproc
 408              	.LFE37:
 409              		.size	I2CWriteBytes, .-I2CWriteBytes
 410 0072 C046     		.section	.text.I2CWriteByte,"ax",%progbits
 411              		.align	2
 412              		.global	I2CWriteByte
 413              		.code	16
 414              		.thumb_func
 415              		.type	I2CWriteByte, %function
 416              	I2CWriteByte:
 417              	.LFB38:
  55:.\i2cFunctions.c **** 
  56:.\i2cFunctions.c **** void I2CWriteByte(uint8_t devAddr, uint8_t regAddr, uint8_t value) {
 418              		.loc 1 56 0
 419              		.cfi_startproc
 420 0000 80B5     		push	{r7, lr}
 421              	.LCFI15:
 422              		.cfi_def_cfa_offset 8
 423              		.cfi_offset 7, -8
 424              		.cfi_offset 14, -4
 425 0002 82B0     		sub	sp, sp, #8
 426              	.LCFI16:
 427              		.cfi_def_cfa_offset 16
 428 0004 00AF     		add	r7, sp, #0
 429              	.LCFI17:
 430              		.cfi_def_cfa_register 7
 431 0006 FB1D     		add	r3, r7, #7
 432 0008 1870     		strb	r0, [r3]
 433 000a BB1D     		add	r3, r7, #6
 434 000c 1970     		strb	r1, [r3]
 435 000e 7B1D     		add	r3, r7, #5
 436 0010 1A70     		strb	r2, [r3]
  57:.\i2cFunctions.c **** 	I2CWriteBytes(devAddr, regAddr, 1, &value);
 437              		.loc 1 57 0
 438 0012 FB1D     		add	r3, r7, #7
 439 0014 1978     		ldrb	r1, [r3]
 440 0016 BB1D     		add	r3, r7, #6
 441 0018 1A78     		ldrb	r2, [r3]
 442 001a 7B1D     		add	r3, r7, #5
 443 001c 081C     		mov	r0, r1
 444 001e 111C     		mov	r1, r2
 445 0020 0122     		mov	r2, #1
 446 0022 FFF7FEFF 		bl	I2CWriteBytes
  58:.\i2cFunctions.c **** }
 447              		.loc 1 58 0
 448 0026 BD46     		mov	sp, r7
 449 0028 02B0     		add	sp, sp, #8
 450              		@ sp needed for prologue
 451 002a 80BD     		pop	{r7, pc}
 452              		.cfi_endproc
 453              	.LFE38:
ARM GAS  C:\Users\Sam\AppData\Local\Temp\ccfz4KIl.s 			page 10


 454              		.size	I2CWriteByte, .-I2CWriteByte
 455              		.section	.text.I2CWriteBits,"ax",%progbits
 456              		.align	2
 457              		.global	I2CWriteBits
 458              		.code	16
 459              		.thumb_func
 460              		.type	I2CWriteBits, %function
 461              	I2CWriteBits:
 462              	.LFB39:
  59:.\i2cFunctions.c **** 
  60:.\i2cFunctions.c **** void I2CWriteBits(uint8_t devAddr, uint8_t regAddr, uint8_t bitStart, uint8_t length, uint8_t value
 463              		.loc 1 60 0
 464              		.cfi_startproc
 465 0000 90B5     		push	{r4, r7, lr}
 466              	.LCFI18:
 467              		.cfi_def_cfa_offset 12
 468              		.cfi_offset 4, -12
 469              		.cfi_offset 7, -8
 470              		.cfi_offset 14, -4
 471 0002 85B0     		sub	sp, sp, #20
 472              	.LCFI19:
 473              		.cfi_def_cfa_offset 32
 474 0004 00AF     		add	r7, sp, #0
 475              	.LCFI20:
 476              		.cfi_def_cfa_register 7
 477 0006 041C     		mov	r4, r0
 478 0008 081C     		mov	r0, r1
 479 000a 111C     		mov	r1, r2
 480 000c 1A1C     		mov	r2, r3
 481 000e FB1D     		add	r3, r7, #7
 482 0010 1C70     		strb	r4, [r3]
 483 0012 BB1D     		add	r3, r7, #6
 484 0014 1870     		strb	r0, [r3]
 485 0016 7B1D     		add	r3, r7, #5
 486 0018 1970     		strb	r1, [r3]
 487 001a 3B1D     		add	r3, r7, #4
 488 001c 1A70     		strb	r2, [r3]
  61:.\i2cFunctions.c **** 	uint8_t b;
  62:.\i2cFunctions.c **** 	uint8_t mask = ((1 << length) - 1) << (bitStart - length + 1);
 489              		.loc 1 62 0
 490 001e 3B1D     		add	r3, r7, #4
 491 0020 1B78     		ldrb	r3, [r3]
 492 0022 0122     		mov	r2, #1
 493 0024 111C     		mov	r1, r2
 494 0026 9940     		lsl	r1, r1, r3
 495 0028 0B1C     		mov	r3, r1
 496 002a 5A1E     		sub	r2, r3, #1
 497 002c 7B1D     		add	r3, r7, #5
 498 002e 1978     		ldrb	r1, [r3]
 499 0030 3B1D     		add	r3, r7, #4
 500 0032 1B78     		ldrb	r3, [r3]
 501 0034 CB1A     		sub	r3, r1, r3
 502 0036 0133     		add	r3, r3, #1
 503 0038 9A40     		lsl	r2, r2, r3
 504 003a 3B1C     		mov	r3, r7
 505 003c 0F33     		add	r3, r3, #15
 506 003e 1A70     		strb	r2, [r3]
ARM GAS  C:\Users\Sam\AppData\Local\Temp\ccfz4KIl.s 			page 11


  63:.\i2cFunctions.c **** 	I2CReadByte(devAddr, regAddr, &b);
 507              		.loc 1 63 0
 508 0040 FB1D     		add	r3, r7, #7
 509 0042 1978     		ldrb	r1, [r3]
 510 0044 BB1D     		add	r3, r7, #6
 511 0046 1A78     		ldrb	r2, [r3]
 512 0048 3B1C     		mov	r3, r7
 513 004a 0E33     		add	r3, r3, #14
 514 004c 081C     		mov	r0, r1
 515 004e 111C     		mov	r1, r2
 516 0050 1A1C     		mov	r2, r3
 517 0052 FFF7FEFF 		bl	I2CReadByte
  64:.\i2cFunctions.c **** 	value <<= (bitStart - length + 1);
 518              		.loc 1 64 0
 519 0056 3B1C     		mov	r3, r7
 520 0058 2033     		add	r3, r3, #32
 521 005a 1A78     		ldrb	r2, [r3]
 522 005c 7B1D     		add	r3, r7, #5
 523 005e 1978     		ldrb	r1, [r3]
 524 0060 3B1D     		add	r3, r7, #4
 525 0062 1B78     		ldrb	r3, [r3]
 526 0064 CB1A     		sub	r3, r1, r3
 527 0066 0133     		add	r3, r3, #1
 528 0068 9A40     		lsl	r2, r2, r3
 529 006a 3B1C     		mov	r3, r7
 530 006c 2033     		add	r3, r3, #32
 531 006e 1A70     		strb	r2, [r3]
  65:.\i2cFunctions.c **** 	value &= mask;
 532              		.loc 1 65 0
 533 0070 3B1C     		mov	r3, r7
 534 0072 2033     		add	r3, r3, #32
 535 0074 3A1C     		mov	r2, r7
 536 0076 2032     		add	r2, r2, #32
 537 0078 391C     		mov	r1, r7
 538 007a 0F31     		add	r1, r1, #15
 539 007c 1278     		ldrb	r2, [r2]
 540 007e 0978     		ldrb	r1, [r1]
 541 0080 0A40     		and	r2, r1
 542 0082 1A70     		strb	r2, [r3]
  66:.\i2cFunctions.c **** 	b &= ~(mask);
 543              		.loc 1 66 0
 544 0084 3B1C     		mov	r3, r7
 545 0086 0F33     		add	r3, r3, #15
 546 0088 1B78     		ldrb	r3, [r3]
 547 008a DB43     		mvn	r3, r3
 548 008c DBB2     		uxtb	r3, r3
 549 008e 3A1C     		mov	r2, r7
 550 0090 0E32     		add	r2, r2, #14
 551 0092 1278     		ldrb	r2, [r2]
 552 0094 D2B2     		uxtb	r2, r2
 553 0096 1340     		and	r3, r2
 554 0098 DBB2     		uxtb	r3, r3
 555 009a DAB2     		uxtb	r2, r3
 556 009c 3B1C     		mov	r3, r7
 557 009e 0E33     		add	r3, r3, #14
 558 00a0 1A70     		strb	r2, [r3]
  67:.\i2cFunctions.c **** 	b |= value;
ARM GAS  C:\Users\Sam\AppData\Local\Temp\ccfz4KIl.s 			page 12


 559              		.loc 1 67 0
 560 00a2 3B1C     		mov	r3, r7
 561 00a4 0E33     		add	r3, r3, #14
 562 00a6 1A78     		ldrb	r2, [r3]
 563 00a8 3B1C     		mov	r3, r7
 564 00aa 2033     		add	r3, r3, #32
 565 00ac 1B78     		ldrb	r3, [r3]
 566 00ae 1343     		orr	r3, r2
 567 00b0 DAB2     		uxtb	r2, r3
 568 00b2 3B1C     		mov	r3, r7
 569 00b4 0E33     		add	r3, r3, #14
 570 00b6 1A70     		strb	r2, [r3]
  68:.\i2cFunctions.c **** 	I2CWriteByte(devAddr, regAddr, b);	
 571              		.loc 1 68 0
 572 00b8 3B1C     		mov	r3, r7
 573 00ba 0E33     		add	r3, r3, #14
 574 00bc 1B78     		ldrb	r3, [r3]
 575 00be FA1D     		add	r2, r7, #7
 576 00c0 1178     		ldrb	r1, [r2]
 577 00c2 BA1D     		add	r2, r7, #6
 578 00c4 1278     		ldrb	r2, [r2]
 579 00c6 081C     		mov	r0, r1
 580 00c8 111C     		mov	r1, r2
 581 00ca 1A1C     		mov	r2, r3
 582 00cc FFF7FEFF 		bl	I2CWriteByte
  69:.\i2cFunctions.c **** }
 583              		.loc 1 69 0
 584 00d0 BD46     		mov	sp, r7
 585 00d2 05B0     		add	sp, sp, #20
 586              		@ sp needed for prologue
 587 00d4 90BD     		pop	{r4, r7, pc}
 588              		.cfi_endproc
 589              	.LFE39:
 590              		.size	I2CWriteBits, .-I2CWriteBits
 591 00d6 C046     		.section	.text.I2CWriteBit,"ax",%progbits
 592              		.align	2
 593              		.global	I2CWriteBit
 594              		.code	16
 595              		.thumb_func
 596              		.type	I2CWriteBit, %function
 597              	I2CWriteBit:
 598              	.LFB40:
  70:.\i2cFunctions.c **** 
  71:.\i2cFunctions.c **** void I2CWriteBit(uint8_t devAddr, uint8_t regAddr, uint8_t bitNum, uint8_t value) {
 599              		.loc 1 71 0
 600              		.cfi_startproc
 601 0000 90B5     		push	{r4, r7, lr}
 602              	.LCFI21:
 603              		.cfi_def_cfa_offset 12
 604              		.cfi_offset 4, -12
 605              		.cfi_offset 7, -8
 606              		.cfi_offset 14, -4
 607 0002 85B0     		sub	sp, sp, #20
 608              	.LCFI22:
 609              		.cfi_def_cfa_offset 32
 610 0004 00AF     		add	r7, sp, #0
 611              	.LCFI23:
ARM GAS  C:\Users\Sam\AppData\Local\Temp\ccfz4KIl.s 			page 13


 612              		.cfi_def_cfa_register 7
 613 0006 041C     		mov	r4, r0
 614 0008 081C     		mov	r0, r1
 615 000a 111C     		mov	r1, r2
 616 000c 1A1C     		mov	r2, r3
 617 000e FB1D     		add	r3, r7, #7
 618 0010 1C70     		strb	r4, [r3]
 619 0012 BB1D     		add	r3, r7, #6
 620 0014 1870     		strb	r0, [r3]
 621 0016 7B1D     		add	r3, r7, #5
 622 0018 1970     		strb	r1, [r3]
 623 001a 3B1D     		add	r3, r7, #4
 624 001c 1A70     		strb	r2, [r3]
  72:.\i2cFunctions.c **** 	uint8_t b;
  73:.\i2cFunctions.c **** 	I2CReadByte(devAddr, regAddr, &b);
 625              		.loc 1 73 0
 626 001e FB1D     		add	r3, r7, #7
 627 0020 1978     		ldrb	r1, [r3]
 628 0022 BB1D     		add	r3, r7, #6
 629 0024 1A78     		ldrb	r2, [r3]
 630 0026 3B1C     		mov	r3, r7
 631 0028 0F33     		add	r3, r3, #15
 632 002a 081C     		mov	r0, r1
 633 002c 111C     		mov	r1, r2
 634 002e 1A1C     		mov	r2, r3
 635 0030 FFF7FEFF 		bl	I2CReadByte
  74:.\i2cFunctions.c **** 	b = (value != 0) ? (b | (1 << bitNum)) : (b & ~(1 << bitNum));
 636              		.loc 1 74 0
 637 0034 3B1D     		add	r3, r7, #4
 638 0036 1B78     		ldrb	r3, [r3]
 639 0038 002B     		cmp	r3, #0
 640 003a 0ED0     		beq	.L14
 641              		.loc 1 74 0 is_stmt 0 discriminator 1
 642 003c 7B1D     		add	r3, r7, #5
 643 003e 1B78     		ldrb	r3, [r3]
 644 0040 0122     		mov	r2, #1
 645 0042 111C     		mov	r1, r2
 646 0044 9940     		lsl	r1, r1, r3
 647 0046 0B1C     		mov	r3, r1
 648 0048 DAB2     		uxtb	r2, r3
 649 004a 3B1C     		mov	r3, r7
 650 004c 0F33     		add	r3, r3, #15
 651 004e 1B78     		ldrb	r3, [r3]
 652 0050 DBB2     		uxtb	r3, r3
 653 0052 1343     		orr	r3, r2
 654 0054 DBB2     		uxtb	r3, r3
 655 0056 DBB2     		uxtb	r3, r3
 656 0058 0FE0     		b	.L15
 657              	.L14:
 658              		.loc 1 74 0 discriminator 2
 659 005a 7B1D     		add	r3, r7, #5
 660 005c 1B78     		ldrb	r3, [r3]
 661 005e 0122     		mov	r2, #1
 662 0060 111C     		mov	r1, r2
 663 0062 9940     		lsl	r1, r1, r3
 664 0064 0B1C     		mov	r3, r1
 665 0066 DBB2     		uxtb	r3, r3
ARM GAS  C:\Users\Sam\AppData\Local\Temp\ccfz4KIl.s 			page 14


 666 0068 DB43     		mvn	r3, r3
 667 006a DBB2     		uxtb	r3, r3
 668 006c 3A1C     		mov	r2, r7
 669 006e 0F32     		add	r2, r2, #15
 670 0070 1278     		ldrb	r2, [r2]
 671 0072 D2B2     		uxtb	r2, r2
 672 0074 1340     		and	r3, r2
 673 0076 DBB2     		uxtb	r3, r3
 674 0078 DBB2     		uxtb	r3, r3
 675              	.L15:
 676              		.loc 1 74 0 discriminator 3
 677 007a 3A1C     		mov	r2, r7
 678 007c 0F32     		add	r2, r2, #15
 679 007e 1370     		strb	r3, [r2]
  75:.\i2cFunctions.c **** 	I2CWriteByte(devAddr, regAddr, b);
 680              		.loc 1 75 0 is_stmt 1 discriminator 3
 681 0080 3B1C     		mov	r3, r7
 682 0082 0F33     		add	r3, r3, #15
 683 0084 1B78     		ldrb	r3, [r3]
 684 0086 FA1D     		add	r2, r7, #7
 685 0088 1178     		ldrb	r1, [r2]
 686 008a BA1D     		add	r2, r7, #6
 687 008c 1278     		ldrb	r2, [r2]
 688 008e 081C     		mov	r0, r1
 689 0090 111C     		mov	r1, r2
 690 0092 1A1C     		mov	r2, r3
 691 0094 FFF7FEFF 		bl	I2CWriteByte
  76:.\i2cFunctions.c **** }
 692              		.loc 1 76 0 discriminator 3
 693 0098 BD46     		mov	sp, r7
 694 009a 05B0     		add	sp, sp, #20
 695              		@ sp needed for prologue
 696 009c 90BD     		pop	{r4, r7, pc}
 697              		.cfi_endproc
 698              	.LFE40:
 699              		.size	I2CWriteBit, .-I2CWriteBit
 700 009e C046     		.section	.text.I2CWriteWords,"ax",%progbits
 701              		.align	2
 702              		.global	I2CWriteWords
 703              		.code	16
 704              		.thumb_func
 705              		.type	I2CWriteWords, %function
 706              	I2CWriteWords:
 707              	.LFB41:
  77:.\i2cFunctions.c **** 
  78:.\i2cFunctions.c **** void I2CWriteWords(uint8_t devAddr, uint8_t regAddr, uint8_t length, uint16_t *value) {
 708              		.loc 1 78 0
 709              		.cfi_startproc
 710 0000 80B5     		push	{r7, lr}
 711              	.LCFI24:
 712              		.cfi_def_cfa_offset 8
 713              		.cfi_offset 7, -8
 714              		.cfi_offset 14, -4
 715 0002 84B0     		sub	sp, sp, #16
 716              	.LCFI25:
 717              		.cfi_def_cfa_offset 24
 718 0004 00AF     		add	r7, sp, #0
ARM GAS  C:\Users\Sam\AppData\Local\Temp\ccfz4KIl.s 			page 15


 719              	.LCFI26:
 720              		.cfi_def_cfa_register 7
 721 0006 3B60     		str	r3, [r7]
 722 0008 FB1D     		add	r3, r7, #7
 723 000a 1870     		strb	r0, [r3]
 724 000c BB1D     		add	r3, r7, #6
 725 000e 1970     		strb	r1, [r3]
 726 0010 7B1D     		add	r3, r7, #5
 727 0012 1A70     		strb	r2, [r3]
  79:.\i2cFunctions.c **** 	uint8_t i=0;
 728              		.loc 1 79 0
 729 0014 3B1C     		mov	r3, r7
 730 0016 0F33     		add	r3, r3, #15
 731 0018 0022     		mov	r2, #0
 732 001a 1A70     		strb	r2, [r3]
  80:.\i2cFunctions.c **** 	I2C_MPU6050_I2CMasterSendStart(devAddr, I2C_MPU6050_I2C_WRITE_XFER_MODE);
 733              		.loc 1 80 0
 734 001c FB1D     		add	r3, r7, #7
 735 001e 1B78     		ldrb	r3, [r3]
 736 0020 181C     		mov	r0, r3
 737 0022 0021     		mov	r1, #0
 738 0024 FFF7FEFF 		bl	I2C_MPU6050_I2CMasterSendStart
  81:.\i2cFunctions.c **** 	I2C_MPU6050_I2CMasterWriteByte(regAddr);
 739              		.loc 1 81 0
 740 0028 BB1D     		add	r3, r7, #6
 741 002a 1B78     		ldrb	r3, [r3]
 742 002c 181C     		mov	r0, r3
 743 002e FFF7FEFF 		bl	I2C_MPU6050_I2CMasterWriteByte
  82:.\i2cFunctions.c **** 	while (i++ < length) {
 744              		.loc 1 82 0
 745 0032 0FE0     		b	.L17
 746              	.L18:
  83:.\i2cFunctions.c **** 		I2C_MPU6050_I2CMasterWriteByte(((uint8_t)*value) >> 8);
 747              		.loc 1 83 0
 748 0034 3B68     		ldr	r3, [r7]
 749 0036 1B88     		ldrh	r3, [r3]
 750 0038 DBB2     		uxtb	r3, r3
 751 003a 1B12     		asr	r3, r3, #8
 752 003c 181C     		mov	r0, r3
 753 003e FFF7FEFF 		bl	I2C_MPU6050_I2CMasterWriteByte
  84:.\i2cFunctions.c **** 		I2C_MPU6050_I2CMasterWriteByte((uint8_t)*value++);
 754              		.loc 1 84 0
 755 0042 3B68     		ldr	r3, [r7]
 756 0044 1B88     		ldrh	r3, [r3]
 757 0046 DBB2     		uxtb	r3, r3
 758 0048 3A68     		ldr	r2, [r7]
 759 004a 0232     		add	r2, r2, #2
 760 004c 3A60     		str	r2, [r7]
 761 004e 181C     		mov	r0, r3
 762 0050 FFF7FEFF 		bl	I2C_MPU6050_I2CMasterWriteByte
 763              	.L17:
  82:.\i2cFunctions.c **** 	while (i++ < length) {
 764              		.loc 1 82 0 discriminator 1
 765 0054 3A1C     		mov	r2, r7
 766 0056 0F32     		add	r2, r2, #15
 767 0058 7B1D     		add	r3, r7, #5
 768 005a 1278     		ldrb	r2, [r2]
ARM GAS  C:\Users\Sam\AppData\Local\Temp\ccfz4KIl.s 			page 16


 769 005c 1B78     		ldrb	r3, [r3]
 770 005e 9A42     		cmp	r2, r3
 771 0060 9B41     		sbc	r3, r3, r3
 772 0062 5B42     		neg	r3, r3
 773 0064 DBB2     		uxtb	r3, r3
 774 0066 3A1C     		mov	r2, r7
 775 0068 0F32     		add	r2, r2, #15
 776 006a 391C     		mov	r1, r7
 777 006c 0F31     		add	r1, r1, #15
 778 006e 0978     		ldrb	r1, [r1]
 779 0070 0131     		add	r1, r1, #1
 780 0072 1170     		strb	r1, [r2]
 781 0074 002B     		cmp	r3, #0
 782 0076 DDD1     		bne	.L18
  85:.\i2cFunctions.c **** 	}
  86:.\i2cFunctions.c **** 	I2C_MPU6050_I2CMasterSendStop();		
 783              		.loc 1 86 0
 784 0078 FFF7FEFF 		bl	I2C_MPU6050_I2CMasterSendStop
  87:.\i2cFunctions.c **** }
 785              		.loc 1 87 0
 786 007c BD46     		mov	sp, r7
 787 007e 04B0     		add	sp, sp, #16
 788              		@ sp needed for prologue
 789 0080 80BD     		pop	{r7, pc}
 790              		.cfi_endproc
 791              	.LFE41:
 792              		.size	I2CWriteWords, .-I2CWriteWords
 793 0082 C046     		.section	.text.I2CWriteWord,"ax",%progbits
 794              		.align	2
 795              		.global	I2CWriteWord
 796              		.code	16
 797              		.thumb_func
 798              		.type	I2CWriteWord, %function
 799              	I2CWriteWord:
 800              	.LFB42:
  88:.\i2cFunctions.c **** 
  89:.\i2cFunctions.c **** void I2CWriteWord(uint8_t devAddr, uint8_t regAddr, uint16_t value) {
 801              		.loc 1 89 0
 802              		.cfi_startproc
 803 0000 80B5     		push	{r7, lr}
 804              	.LCFI27:
 805              		.cfi_def_cfa_offset 8
 806              		.cfi_offset 7, -8
 807              		.cfi_offset 14, -4
 808 0002 82B0     		sub	sp, sp, #8
 809              	.LCFI28:
 810              		.cfi_def_cfa_offset 16
 811 0004 00AF     		add	r7, sp, #0
 812              	.LCFI29:
 813              		.cfi_def_cfa_register 7
 814 0006 FB1D     		add	r3, r7, #7
 815 0008 1870     		strb	r0, [r3]
 816 000a BB1D     		add	r3, r7, #6
 817 000c 1970     		strb	r1, [r3]
 818 000e 3B1D     		add	r3, r7, #4
 819 0010 1A80     		strh	r2, [r3]
  90:.\i2cFunctions.c **** 	I2CWriteWords(devAddr, regAddr, 1, &value);
ARM GAS  C:\Users\Sam\AppData\Local\Temp\ccfz4KIl.s 			page 17


 820              		.loc 1 90 0
 821 0012 FB1D     		add	r3, r7, #7
 822 0014 1978     		ldrb	r1, [r3]
 823 0016 BB1D     		add	r3, r7, #6
 824 0018 1A78     		ldrb	r2, [r3]
 825 001a 3B1D     		add	r3, r7, #4
 826 001c 081C     		mov	r0, r1
 827 001e 111C     		mov	r1, r2
 828 0020 0122     		mov	r2, #1
 829 0022 FFF7FEFF 		bl	I2CWriteWords
  91:.\i2cFunctions.c **** }...
 830              		.loc 1 91 0
 831 0026 BD46     		mov	sp, r7
 832 0028 02B0     		add	sp, sp, #8
 833              		@ sp needed for prologue
 834 002a 80BD     		pop	{r7, pc}
 835              		.cfi_endproc
 836              	.LFE42:
 837              		.size	I2CWriteWord, .-I2CWriteWord
 838              		.text
 839              	.Letext0:
 840              		.file 2 "c:\\program files (x86)\\cypress\\psoc creator\\3.0\\psoc creator\\import\\gnu_cs\\arm\\4