ARM GAS  C:\Users\Sam\AppData\Local\Temp\ccfz4KIl.s 			page 1


   1              		.cpu cortex-m0
   2              		.fpu softvfp
   3              		.eabi_attribute 20, 1
   4              		.eabi_attribute 21, 1
   5              		.eabi_attribute 23, 3
   6              		.eabi_attribute 24, 1
   7              		.eabi_attribute 25, 1
   8              		.eabi_attribute 26, 1
   9              		.eabi_attribute 30, 6
  10              		.eabi_attribute 34, 0
  11              		.eabi_attribute 18, 4
  12              		.code	16
  13              		.file	"i2cFunctions.c"
  14              		.text
  15              	.Ltext0:
  16              		.cfi_sections	.debug_frame
  17              		.section	.text.I2CReadBytes,"ax",%progbits
  18              		.align	2
  19              		.global	I2CReadBytes
  20              		.code	16
  21              		.thumb_func
  22              		.type	I2CReadBytes, %function
  23              	I2CReadBytes:
  24              	.LFB33:
  25              		.file 1 ".\\i2cFunctions.c"
   1:.\i2cFunctions.c **** /* ========================================
   2:.\i2cFunctions.c ****  *
   3:.\i2cFunctions.c ****  * Copyright Samuel Walsh, 2014
   4:.\i2cFunctions.c ****  * All Rights Reserved
   5:.\i2cFunctions.c ****  * UNPUBLISHED, LICENSED SOFTWARE.
   6:.\i2cFunctions.c ****  *
   7:.\i2cFunctions.c ****  * CONFIDENTIAL AND PROPRIETARY INFORMATION
   8:.\i2cFunctions.c ****  * WHICH IS THE PROPERTY OF Samuel Walsh.
   9:.\i2cFunctions.c ****  *
  10:.\i2cFunctions.c ****  * ========================================
  11:.\i2cFunctions.c **** */
  12:.\i2cFunctions.c **** 
  13:.\i2cFunctions.c **** /* [] END OF FILE */
  14:.\i2cFunctions.c **** 
  15:.\i2cFunctions.c **** #include <project.h>
  16:.\i2cFunctions.c **** 
  17:.\i2cFunctions.c **** 
  18:.\i2cFunctions.c **** void I2CReadBytes(uint8_t devAddr, uint8_t regAddr, uint8_t length, uint8_t *value) {
  26              		.loc 1 18 0
  27              		.cfi_startproc
  28 0000 80B5     		push	{r7, lr}
  29              	.LCFI0:
  30              		.cfi_def_cfa_offset 8
  31              		.cfi_offset 7, -8
  32              		.cfi_offset 14, -4
  33 0002 84B0     		sub	sp, sp, #16
  34              	.LCFI1:
  35              		.cfi_def_cfa_offset 24
  36 0004 00AF     		add	r7, sp, #0
  37              	.LCFI2:
  38              		.cfi_def_cfa_register 7
  39 0006 3B60     		str	r3, [r7]
ARM GAS  C:\Users\Sam\AppData\Local\Temp\ccfz4KIl.s 			page 2


  40 0008 FB1D     		add	r3, r7, #7
  41 000a 1870     		strb	r0, [r3]
  42 000c BB1D     		add	r3, r7, #6
  43 000e 1970     		strb	r1, [r3]
  44 0010 7B1D     		add	r3, r7, #5
  45 0012 1A70     		strb	r2, [r3]
  19:.\i2cFunctions.c **** 	uint8_t i=0;
  46              		.loc 1 19 0
  47 0014 3B1C     		mov	r3, r7
  48 0016 0F33     		add	r3, r3, #15
  49 0018 0022     		mov	r2, #0
  50 001a 1A70     		strb	r2, [r3]
  20:.\i2cFunctions.c **** 	I2C_MPU6050_I2CMasterSendStart(devAddr, I2C_MPU6050_I2C_WRITE_XFER_MODE);
  51              		.loc 1 20 0
  52 001c FB1D     		add	r3, r7, #7
  53 001e 1B78     		ldrb	r3, [r3]
  54 0020 181C     		mov	r0, r3
  55 0022 0021     		mov	r1, #0
  56 0024 FFF7FEFF 		bl	I2C_MPU6050_I2CMasterSendStart
  21:.\i2cFunctions.c **** 	I2C_MPU6050_I2CMasterWriteByte(regAddr);
  57              		.loc 1 21 0
  58 0028 BB1D     		add	r3, r7, #6
  59 002a 1B78     		ldrb	r3, [r3]
  60 002c 181C     		mov	r0, r3
  61 002e FFF7FEFF 		bl	I2C_MPU6050_I2CMasterWriteByte
  22:.\i2cFunctions.c **** 	I2C_MPU6050_I2CMasterSendRestart(devAddr, I2C_MPU6050_I2C_READ_XFER_MODE);
  62              		.loc 1 22 0
  63 0032 FB1D     		add	r3, r7, #7
  64 0034 1B78     		ldrb	r3, [r3]
  65 0036 181C     		mov	r0, r3
  66 0038 0121     		mov	r1, #1
  67 003a FFF7FEFF 		bl	I2C_MPU6050_I2CMasterSendRestart
  23:.\i2cFunctions.c **** 	while (i++ < (length-1)) {
  68              		.loc 1 23 0
  69 003e 09E0     		b	.L2
  70              	.L4:
  24:.\i2cFunctions.c **** 		*value++ = I2C_MPU6050_I2CMasterReadByte(I2C_MPU6050_I2C_ACK_DATA);
  71              		.loc 1 24 0
  72 0040 0020     		mov	r0, #0
  73 0042 FFF7FEFF 		bl	I2C_MPU6050_I2CMasterReadByte
  74 0046 031C     		mov	r3, r0
  75 0048 DAB2     		uxtb	r2, r3
  76 004a 3B68     		ldr	r3, [r7]
  77 004c 1A70     		strb	r2, [r3]
  78 004e 3B68     		ldr	r3, [r7]
  79 0050 0133     		add	r3, r3, #1
  80 0052 3B60     		str	r3, [r7]
  81              	.L2:
  23:.\i2cFunctions.c **** 	while (i++ < (length-1)) {
  82              		.loc 1 23 0 discriminator 1
  83 0054 3B1C     		mov	r3, r7
  84 0056 0F33     		add	r3, r3, #15
  85 0058 1978     		ldrb	r1, [r3]
  86 005a 7B1D     		add	r3, r7, #5
  87 005c 1B78     		ldrb	r3, [r3]
  88 005e 5A1E     		sub	r2, r3, #1
  89 0060 0123     		mov	r3, #1
ARM GAS  C:\Users\Sam\AppData\Local\Temp\ccfz4KIl.s 			page 3


  90 0062 9142     		cmp	r1, r2
  91 0064 00DB     		blt	.L3
  92 0066 0023     		mov	r3, #0
  93              	.L3:
  94 0068 DBB2     		uxtb	r3, r3
  95 006a 3A1C     		mov	r2, r7
  96 006c 0F32     		add	r2, r2, #15
  97 006e 391C     		mov	r1, r7
  98 0070 0F31     		add	r1, r1, #15
  99 0072 0978     		ldrb	r1, [r1]
 100 0074 0131     		add	r1, r1, #1
 101 0076 1170     		strb	r1, [r2]
 102 0078 002B     		cmp	r3, #0
 103 007a E1D1     		bne	.L4
  25:.\i2cFunctions.c **** 	}
  26:.\i2cFunctions.c **** 	*value = I2C_MPU6050_I2CMasterReadByte(I2C_MPU6050_I2C_NAK_DATA);
 104              		.loc 1 26 0
 105 007c 0120     		mov	r0, #1
 106 007e FFF7FEFF 		bl	I2C_MPU6050_I2CMasterReadByte
 107 0082 031C     		mov	r3, r0
 108 0084 DAB2     		uxtb	r2, r3
 109 0086 3B68     		ldr	r3, [r7]
 110 0088 1A70     		strb	r2, [r3]
  27:.\i2cFunctions.c **** 	I2C_MPU6050_I2CMasterSendStop();	
 111              		.loc 1 27 0
 112 008a FFF7FEFF 		bl	I2C_MPU6050_I2CMasterSendStop
  28:.\i2cFunctions.c **** }
 113              		.loc 1 28 0
 114 008e BD46     		mov	sp, r7
 115 0090 04B0     		add	sp, sp, #16
 116              		@ sp needed for prologue
 117 0092 80BD     		pop	{r7, pc}
 118              		.cfi_endproc
 119              	.LFE33:
 120              		.size	I2CReadBytes, .-I2CReadBytes
 121              		.section	.text.I2CReadByte,"ax",%progbits
 122              		.align	2
 123              		.global	I2CReadByte
 124              		.code	16
 125              		.thumb_func
 126              		.type	I2CReadByte, %function
 127              	I2CReadByte:
 128              	.LFB34:
  29:.\i2cFunctions.c **** 
  30:.\i2cFunctions.c **** void I2CReadByte(uint8_t devAddr, uint8_t regAddr, uint8_t *value) {
 129              		.loc 1 30 0
 130              		.cfi_startproc
 131 0000 80B5     		push	{r7, lr}
 132              	.LCFI3:
 133              		.cfi_def_cfa_offset 8
 134              		.cfi_offset 7, -8
 135              		.cfi_offset 14, -4
 136 0002 82B0     		sub	sp, sp, #8
 137              	.LCFI4:
 138              		.cfi_def_cfa_offset 16
 139 0004 00AF     		add	r7, sp, #0
 140              	.LCFI5:
ARM GAS  C:\Users\Sam\AppData\Local\Temp\ccfz4KIl.s 			page 4


 141              		.cfi_def_cfa_register 7
 142 0006 3A60     		str	r2, [r7]
 143 0008 FB1D     		add	r3, r7, #7
 144 000a 021C     		add	r2, r0, #0
 145 000c 1A70     		strb	r2, [r3]
 146 000e BB1D     		add	r3, r7, #6
 147 0010 0A1C     		add	r2, r1, #0
 148 0012 1A70     		strb	r2, [r3]
  31:.\i2cFunctions.c **** 	I2CReadBytes(devAddr, regAddr, 1, value);
 149              		.loc 1 31 0
 150 0014 FB1D     		add	r3, r7, #7
 151 0016 1978     		ldrb	r1, [r3]
 152 0018 BB1D     		add	r3, r7, #6
 153 001a 1A78     		ldrb	r2, [r3]
 154 001c 3B68     		ldr	r3, [r7]
 155 001e 081C     		mov	r0, r1
 156 0020 111C     		mov	r1, r2
 157 0022 0122     		mov	r2, #1
 158 0024 FFF7FEFF 		bl	I2CReadBytes
  32:.\i2cFunctions.c **** }
 159              		.loc 1 32 0
 160 0028 BD46     		mov	sp, r7
 161 002a 02B0     		add	sp, sp, #8
 162              		@ sp needed for prologue
 163 002c 80BD     		pop	{r7, pc}
 164              		.cfi_endproc
 165              	.LFE34:
 166              		.size	I2CReadByte, .-I2CReadByte
 167 002e C046     		.section	.text.I2CReadBits,"ax",%progbits
 168              		.align	2
 169              		.global	I2CReadBits
 170              		.code	16
 171              		.thumb_func
 172              		.type	I2CReadBits, %function
 173              	I2CReadBits:
 174              	.LFB35:
  33:.\i2cFunctions.c **** 
  34:.\i2cFunctions.c **** void I2CReadBits(uint8_t devAddr, uint8_t regAddr, uint8_t bitStart, uint8_t length, uint8_t *value
 175              		.loc 1 34 0
 176              		.cfi_startproc
 177 0000 90B5     		push	{r4, r7, lr}
 178              	.LCFI6:
 179              		.cfi_def_cfa_offset 12
 180              		.cfi_offset 4, -12
 181              		.cfi_offset 7, -8
 182              		.cfi_offset 14, -4
 183 0002 85B0     		sub	sp, sp, #20
 184              	.LCFI7:
 185              		.cfi_def_cfa_offset 32
 186 0004 00AF     		add	r7, sp, #0
 187              	.LCFI8:
 188              		.cfi_def_cfa_register 7
 189 0006 041C     		mov	r4, r0
 190 0008 081C     		mov	r0, r1
 191 000a 111C     		mov	r1, r2
 192 000c 1A1C     		mov	r2, r3
 193 000e FB1D     		add	r3, r7, #7
ARM GAS  C:\Users\Sam\AppData\Local\Temp\ccfz4KIl.s 			page 5


 194 0010 1C70     		strb	r4, [r3]
 195 0012 BB1D     		add	r3, r7, #6
 196 0014 1870     		strb	r0, [r3]
 197 0016 7B1D     		add	r3, r7, #5
 198 0018 1970     		strb	r1, [r3]
 199 001a 3B1D     		add	r3, r7, #4
 200 001c 1A70     		strb	r2, [r3]
  35:.\i2cFunctions.c ****    	uint8_t mask = ((1 << length) - 1) << (bitStart - length + 1);
 201              		.loc 1 35 0
 202 001e 3B1D     		add	r3, r7, #4
 203 0020 1B78     		ldrb	r3, [r3]
 204 0022 0122     		mov	r2, #1
 205 0024 111C     		mov	r1, r2
 206 0026 9940     		lsl	r1, r1, r3
 207 0028 0B1C     		mov	r3, r1
 208 002a 5A1E     		sub	r2, r3, #1
 209 002c 7B1D     		add	r3, r7, #5
 210 002e 1978     		ldrb	r1, [r3]
 211 0030 3B1D     		add	r3, r7, #4
 212 0032 1B78     		ldrb	r3, [r3]
 213 0034 CB1A     		sub	r3, r1, r3
 214 0036 0133     		add	r3, r3, #1
 215 0038 9A40     		lsl	r2, r2, r3
 216 003a 3B1C     		mov	r3, r7
 217 003c 0F33     		add	r3, r3, #15
 218 003e 1A70     		strb	r2, [r3]
  36:.\i2cFunctions.c ****     I2CReadByte(devAddr, regAddr, value);
 219              		.loc 1 36 0
 220 0040 FB1D     		add	r3, r7, #7
 221 0042 1978     		ldrb	r1, [r3]
 222 0044 BB1D     		add	r3, r7, #6
 223 0046 1A78     		ldrb	r2, [r3]
 224 0048 3B6A     		ldr	r3, [r7, #32]
 225 004a 081C     		mov	r0, r1
 226 004c 111C     		mov	r1, r2
 227 004e 1A1C     		mov	r2, r3
 228 0050 FFF7FEFF 		bl	I2CReadByte
  37:.\i2cFunctions.c ****     *value &= mask;
 229              		.loc 1 37 0
 230 0054 3B6A     		ldr	r3, [r7, #32]
 231 0056 1B78     		ldrb	r3, [r3]
 232 0058 3A1C     		mov	r2, r7
 233 005a 0F32     		add	r2, r2, #15
 234 005c 1278     		ldrb	r2, [r2]
 235 005e 1340     		and	r3, r2
 236 0060 DAB2     		uxtb	r2, r3
 237 0062 3B6A     		ldr	r3, [r7, #32]
 238 0064 1A70     		strb	r2, [r3]
  38:.\i2cFunctions.c ****     *value >>= (bitStart - length + 1);
 239              		.loc 1 38 0
 240 0066 3B6A     		ldr	r3, [r7, #32]
 241 0068 1B78     		ldrb	r3, [r3]
 242 006a 1A1C     		mov	r2, r3
 243 006c 7B1D     		add	r3, r7, #5
 244 006e 1978     		ldrb	r1, [r3]
 245 0070 3B1D     		add	r3, r7, #4
 246 0072 1B78     		ldrb	r3, [r3]
ARM GAS  C:\Users\Sam\AppData\Local\Temp\ccfz4KIl.s 			page 6


 247 0074 CB1A     		sub	r3, r1, r3
 248 0076 0133     		add	r3, r3, #1
 249 0078 111C     		mov	r1, r2
 250 007a 1941     		asr	r1, r1, r3
 251 007c 0B1C     		mov	r3, r1
 252 007e DAB2     		uxtb	r2, r3
 253 0080 3B6A     		ldr	r3, [r7, #32]
 254 0082 1A70     		strb	r2, [r3]
  39:.\i2cFunctions.c **** }
 255              		.loc 1 39 0
 256 0084 BD46     		mov	sp, r7
 257 0086 05B0     		add	sp, sp, #20
 258              		@ sp needed for prologue
 259 0088 90BD     		pop	{r4, r7, pc}
 260              		.cfi_endproc
 261              	.LFE35:
 262              		.size	I2CReadBits, .-I2CReadBits
 263 008a C046     		.section	.text.I2CReadBit,"ax",%progbits
 264              		.align	2
 265              		.global	I2CReadBit
 266              		.code	16
 267              		.thumb_func
 268              		.type	I2CReadBit, %function
 269              	I2CReadBit:
 270              	.LFB36:
  40:.\i2cFunctions.c **** 
  41:.\i2cFunctions.c **** void I2CReadBit(uint8_t devAddr, uint8_t regAddr, uint8_t bitNum, uint8_t *value) {
 271              		.loc 1 41 0
 272              		.cfi_startproc
 273 0000 80B5     		push	{r7, lr}
 274              	.LCFI9:
 275              		.cfi_def_cfa_offset 8
 276              		.cfi_offset 7, -8
 277              		.cfi_offset 14, -4
 278 0002 82B0     		sub	sp, sp, #8
 279              	.LCFI10:
 280              		.cfi_def_cfa_offset 16
 281 0004 00AF     		add	r7, sp, #0
 282              	.LCFI11:
 283              		.cfi_def_cfa_register 7
 284 0006 3B60     		str	r3, [r7]
 285 0008 FB1D     		add	r3, r7, #7
 286 000a 1870     		strb	r0, [r3]
 287 000c BB1D     		add	r3, r7, #6
 288 000e 1970     		strb	r1, [r3]
 289 0010 7B1D     		add	r3, r7, #5
 290 0012 1A70     		strb	r2, [r3]
  42:.\i2cFunctions.c **** 	I2CReadByte(devAddr, regAddr, value);
 291              		.loc 1 42 0
 292 0014 FB1D     		add	r3, r7, #7
 293 0016 1978     		ldrb	r1, [r3]
 294 0018 BB1D     		add	r3, r7, #6
 295 001a 1A78     		ldrb	r2, [r3]
 296 001c 3B68     		ldr	r3, [r7]
 297 001e 081C     		mov	r0, r1
 298 0020 111C     		mov	r1, r2
 299 0022 1A1C     		mov	r2, r3
ARM GAS  C:\Users\Sam\AppData\Local\Temp\ccfz4KIl.s 			page 7


 300 0024 FFF7FEFF 		bl	I2CReadByte
  43:.\i2cFunctions.c **** 	*value = *value & (1 << bitNum);
 301              		.loc 1 43 0
 302 0028 3B68     		ldr	r3, [r7]
 303 002a 1B78     		ldrb	r3, [r3]
 304 002c DBB2     		uxtb	r3, r3
 305 002e 7A1D     		add	r2, r7, #5
 306 0030 1278     		ldrb	r2, [r2]
 307 0032 0121     		mov	r1, #1
 308 0034 081C     		mov	r0, r1
 309 0036 9040     		lsl	r0, r0, r2
 310 0038 021C     		mov	r2, r0
 311 003a D2B2     		uxtb	r2, r2
 312 003c 1340     		and	r3, r2
 313 003e DBB2     		uxtb	r3, r3
 314 0040 DAB2     		uxtb	r2, r3
 315 0042 3B68     		ldr	r3, [r7]
 316 0044 1A70     		strb	r2, [r3]
  44:.\i2cFunctions.c **** }
 317              		.loc 1 44 0
 318 0046 BD46     		mov	sp, r7
 319 0048 02B0     		add	sp, sp, #8
 320              		@ sp needed for prologue
 321 004a 80BD     		pop	{r7, pc}
 322              		.cfi_endproc
 323              	.LFE36:
 324              		.size	I2CReadBit, .-I2CReadBit
 325              		.section	.text.I2CWriteBytes,"ax",%progbits
 326              		.align	2
 327              		.global	I2CWriteBytes
 328              		.code	16
 329              		.thumb_func
 330              		.type	I2CWriteBytes, %function
 331              	I2CWriteBytes:
 332              	.LFB37:
  45:.\i2cFunctions.c **** 	
  46:.\i2cFunctions.c **** void I2CWriteBytes(uint8_t devAddr, uint8_t regAddr, uint8_t length, uint8_t *value) {
 333              		.loc 1 46 0
 334              		.cfi_startproc
 335 0000 80B5     		push	{r7, lr}
 336              	.LCFI12:
 337              		.cfi_def_cfa_offset 8
 338              		.cfi_offset 7, -8
 339              		.cfi_offset 14, -4
 340 0002 84B0     		sub	sp, sp, #16
 341              	.LCFI13:
 342              		.cfi_def_cfa_offset 24
 343 0004 00AF     		add	r7, sp, #0
 344              	.LCFI14:
 345              		.cfi_def_cfa_register 7
 346 0006 3B60     		str	r3, [r7]
 347 0008 FB1D     		add	r3, r7, #7
 348 000a 1870     		strb	r0, [r3]
 349 000c BB1D     		add	r3, r7, #6
 350 000e 1970     		strb	r1, [r3]
 351 0010 7B1D     		add	r3, r7, #5
 352 0012 1A70     		strb	r2, [r3]
ARM GAS  C:\Users\Sam\AppData\Local\Temp\ccfz4KIl.s 			page 8


  47:.\i2cFunctions.c **** 	uint8_t i=0;
 353              		.loc 1 47 0
 354 0014 3B1C     		mov	r3, r7
 355 0016 0F33     		add	r3, r3, #15
 356 0018 0022     		mov	r2, #0
 357 001a 1A70     		strb	r2, [r3]
  48:.\i2cFunctions.c **** 	I2C_MPU6050_I2CMasterSendStart(devAddr, I2C_MPU6050_I2C_WRITE_XFER_MODE);
 358              		.loc 1 48 0
 359 001c FB1D     		add	r3, r7, #7
 360 001e 1B78     		ldrb	r3, [r3]
 361 0020 181C     		mov	r0, r3
 362 0022 0021     		mov	r1, #0
 363 0024 FFF7FEFF 		bl	I2C_MPU6050_I2CMasterSendStart
  49:.\i2cFunctions.c **** 	I2C_MPU6050_I2CMasterWriteByte(regAddr);
 364              		.loc 1 49 0
 365 0028 BB1D     		add	r3, r7, #6
 366 002a 1B78     		ldrb	r3, [r3]
 367 002c 181C     		mov	r0, r3
 368 002e FFF7FEFF 		bl	I2C_MPU6050_I2CMasterWriteByte
  50:.\i2cFunctions.c **** 	while (i++ < length) {
 369              		.loc 1 50 0
 370 0032 07E0     		b	.L9
 371              	.L10:
  51:.\i2cFunctions.c **** 		I2C_MPU6050_I2CMasterWriteByte(*value++);
 372              		.loc 1 51 0
 373 0034 3B68     		ldr	r3, [r7]
 374 0036 1B78     		ldrb	r3, [r3]
 375 0038 3A68     		ldr	r2, [r7]
 376 003a 0132     		add	r2, r2, #1
 377 003c 3A60     		str	r2, [r7]
 378 003e 181C     		mov	r0, r3
 379 0040 FFF7FEFF 		bl	I2C_MPU6050_I2CMasterWriteByte
 380              	.L9:
  50:.\i2cFunctions.c **** 	while (i++ < length) {
 381              		.loc 1 50 0 discriminator 1
 382 0044 3A1C     		mov	r2, r7
 383 0046 0F32     		add	r2, r2, #15
 384 0048 7B1D     		add	r3, r7, #5
 385 004a 1278     		ldrb	r2, [r2]
 386 004c 1B78     		ldrb	r3, [r3]
 387 004e 9A42     		cmp	r2, r3
 388 0050 9B41     		sbc	r3, r3, r3
 389 0052 5B42     		neg	r3, r3
 390 0054 DBB2     		uxtb	r3, r3
 391 0056 3A1C     		mov	r2, r7
 392 0058 0F32     		add	r2, r2, #15
 393 005a 391C     		mov	r1, r7
 394 005c 0F31     		add	r1, r1, #15
 395 005e 0978     		ldrb	r1, [r1]
 396 0060 0131     		add	r1, r1, #1
 397 0062 1170     		strb	r1, [r2]
 398 0064 002B     		cmp	r3, #0
 399 0066 E5D1     		bne	.L10
  52:.\i2cFunctions.c **** 	}
  53:.\i2cFunctions.c **** 	I2C_MPU6050_I2CMasterSendStop();	
 400              		.loc 1 53 0
 401 0068 FFF7FEFF 		bl	I2C_MPU6050_I2CMasterSendStop
ARM GAS  C:\Users\Sam\AppData\Local\Temp\ccfz4KIl.s 			page 9


  54:.\i2cFunctions.c **** }
 402              		.loc 1 54 0
 403 006c BD46     		mov	sp, r7
 404 006e 04B0     		add	sp, sp, #16
 405              		@ sp needed for prologue
 406 0070 80BD     		pop	{r7, pc}
 407              		.cfi_endproc
 408              	.LFE37:
 409              		.size	I2CWriteBytes, .-I2CWriteBytes
 410 0072 C046     		.section	.text.I2CWriteByte,"ax",%progbits
 411              		.align	2
 412              		.global	I2CWriteByte
 413              		.code	16
 414              		.thumb_func
 415              		.type	I2CWriteByte, %function
 416              	I2CWriteByte:
 417              	.LFB38:
  55:.\i2cFunctions.c **** 
  56:.\i2cFunctions.c **** void I2CWriteByte(uint8_t devAddr, uint8_t regAddr, uint8_t value) {
 418              		.loc 1 56 0
 419              		.cfi_startproc
 420 0000 80B5     		push	{r7, lr}
 421              	.LCFI15:
 422              		.cfi_def_cfa_offset 8
 423              		.cfi_offset 7, -8
 424              		.cfi_offset 14, -4
 425 0002 82B0     		sub	sp, sp, #8
 426              	.LCFI16:
 427              		.cfi_def_cfa_offset 16
 428 0004 00AF     		add	r7, sp, #0
 429              	.LCFI17:
 430              		.cfi_def_cfa_register 7
 431 0006 FB1D     		add	r3, r7, #7
 432 0008 1870     		strb	r0, [r3]
 433 000a BB1D     		add	r3, r7, #6
 434 000c 1970     		strb	r1, [r3]
 435 000e 7B1D     		add	r3, r7, #5
 436 0010 1A70     		strb	r2, [r3]
  57:.\i2cFunctions.c **** 	I2CWriteBytes(devAddr, regAddr, 1, &value);
 437              		.loc 1 57 0
 438 0012 FB1D     		add	r3, r7, #7
 439 0014 1978     		ldrb	r1, [r3]
 440 0016 BB1D     		add	r3, r7, #6
 441 0018 1A78     		ldrb	r2, [r3]
 442 001a 7B1D     		add	r3, r7, #5
 443 001c 081C     		mov	r0, r1
 444 001e 111C     		mov	r1, r2
 445 0020 0122     		mov	r2, #1
 446 0022 FFF7FEFF 		bl	I2CWriteBytes
  58:.\i2cFunctions.c **** }
 447              		.loc 1 58 0
 448 0026 BD46     		mov	sp, r7
 449 0028 02B0     		add	sp, sp, #8
 450              		@ sp needed for prologue
 451 002a 80BD     		pop	{r7, pc}
 452              		.cfi_endproc
 453              	.LFE38:
ARM GAS  C:\Users\Sam\AppData\Local\Temp\ccfz4KIl.s 			page 10


 454              		.size	I2CWriteByte, .-I2CWriteByte
 455              		.section	.text.I2CWriteBits,"ax",%progbits
 456              		.align	2
 457              		.global	I2CWriteBits
 458              		.code	16
 459              		.thumb_func
 460              		.type	I2CWriteBits, %function
 461              	I2CWriteBits:
 462              	.LFB39:
  59:.\i2cFunctions.c **** 
  60:.\i2cFunctions.c **** void I2CWriteBits(uint8_t devAddr, uint8_t regAddr, uint8_t bitStart, uint8_t length, uint8_t value
 463              		.loc 1 60 0
 464              		.cfi_startproc
 465 0000 90B5     		push	{r4, r7, lr}
 466              	.LCFI18:
 467              		.cfi_def_cfa_offset 12
 468              		.cfi_offset 4, -12
 469              		.cfi_offset 7, -8
 470              		.cfi_offset 14, -4
 471 0002 85B0     		sub	sp, sp, #20
 472              	.LCFI19:
 473              		.cfi_def_cfa_offset 32
 474 0004 00AF     		add	r7, sp, #0
 475              	.LCFI20:
 476              		.cfi_def_cfa_register 7
 477 0006 041C     		mov	r4, r0
 478 0008 081C     		mov	r0, r1
 479 000a 111C     		mov	r1, r2
 480 000c 1A1C     		mov	r2, r3
 481 000e FB1D     		add	r3, r7, #7
 482 0010 1C70     		strb	r4, [r3]
 483 0012 BB1D     		add	r3, r7, #6
 484 0014 1870     		strb	r0, [r3]
 485 0016 7B1D     		add	r3, r7, #5
 486 0018 1970     		strb	r1, [r3]
 487 001a 3B1D     		add	r3, r7, #4
 488 001c 1A70     		strb	r2, [r3]
  61:.\i2cFunctions.c **** 	uint8_t b;
  62:.\i2cFunctions.c **** 	uint8_t mask = ((1 << length) - 1) << (bitStart - length + 1);
 489              		.loc 1 62 0
 490 001e 3B1D     		add	r3, r7, #4
 491 0020 1B78     		ldrb	r3, [r3]
 492 0022 0122     		mov	r2, #1
 493 0024 111C     		mov	r1, r2
 494 0026 9940     		lsl	r1, r1, r3
 495 0028 0B1C     		mov	r3, r1
 496 002a 5A1E     		sub	r2, r3, #1
 497 002c 7B1D     		add	r3, r7, #5
 498 002e 1978     		ldrb	r1, [r3]
 499 0030 3B1D     		add	r3, r7, #4
 500 0032 1B78     		ldrb	r3, [r3]
 501 0034 CB1A     		sub	r3, r1, r3
 502 0036 0133     		add	r3, r3, #1
 503 0038 9A40     		lsl	r2, r2, r3
 504 003a 3B1C     		mov	r3, r7
 505 003c 0F33     		add	r3, r3, #15
 506 003e 1A70     		strb	r2, [r3]
ARM GAS  C:\Users\Sam\AppData\Local\Temp\ccfz4KIl.s 			page 11


  63:.\i2cFunctions.c **** 	I2CReadByte(devAddr, regAddr, &b);
 507              		.loc 1 63 0
 508 0040 FB1D     		add	r3, r7, #7
 509 0042 1978     		ldrb	r1, [r3]
 510 0044 BB1D     		add	r3, r7, #6
 511 0046 1A78     		ldrb	r2, [r3]
 512 0048 3B1C     		mov	r3, r7
 513 004a 0E33     		add	r3, r3, #14
 514 004c 081C     		mov	r0, r1
 515 004e 111C     		mov	r1, r2
 516 0050 1A1C     		mov	r2, r3
 517 0052 FFF7FEFF 		bl	I2CReadByte
  64:.\i2cFunctions.c **** 	value <<= (bitStart - length + 1);
 518              		.loc 1 64 0
 519 0056 3B1C     		mov	r3, r7
 520 0058 2033     		add	r3, r3, #32
 521 005a 1A78     		ldrb	r2, [r3]
 522 005c 7B1D     		add	r3, r7, #5
 523 005e 1978     		ldrb	r1, [r3]
 524 0060 3B1D     		add	r3, r7, #4
 525 0062 1B78     		ldrb	r3, [r3]
 526 0064 CB1A     		sub	r3, r1, r3
 527 0066 0133     		add	r3, r3, #1
 528 0068 9A40     		lsl	r2, r2, r3
 529 006a 3B1C     		mov	r3, r7
 530 006c 2033     		add	r3, r3, #32
 531 006e 1A70     		strb	r2, [r3]
  65:.\i2cFunctions.c **** 	value &= mask;
 532              		.loc 1 65 0
 533 0070 3B1C     		mov	r3, r7
 534 0072 2033     		add	r3, r3, #32
 535 0074 3A1C     		mov	r2, r7
 536 0076 2032     		add	r2, r2, #32
 537 0078 391C     		mov	r1, r7
 538 007a 0F31     		add	r1, r1, #15
 539 007c 1278     		ldrb	r2, [r2]
 540 007e 0978     		ldrb	r1, [r1]
 541 0080 0A40     		and	r2, r1
 542 0082 1A70     		strb	r2, [r3]
  66:.\i2cFunctions.c **** 	b &= ~(mask);
 543              		.loc 1 66 0
 544 0084 3B1C     		mov	r3, r7
 545 0086 0F33     		add	r3, r3, #15
 546 0088 1B78     		ldrb	r3, [r3]
 547 008a DB43     		mvn	r3, r3
 548 008c DBB2     		uxtb	r3, r3
 549 008e 3A1C     		mov	r2, r7
 550 0090 0E32     		add	r2, r2, #14
 551 0092 1278     		ldrb	r2, [r2]
 552 0094 D2B2     		uxtb	r2, r2
 553 0096 1340     		and	r3, r2
 554 0098 DBB2     		uxtb	r3, r3
 555 009a DAB2     		uxtb	r2, r3
 556 009c 3B1C     		mov	r3, r7
 557 009e 0E33     		add	r3, r3, #14
 558 00a0 1A70     		strb	r2, [r3]
  67:.\i2cFunctions.c **** 	b |= value;
ARM GAS  C:\Users\Sam\AppData\Local\Temp\ccfz4KIl.s 			page 12


 559              		.loc 1 67 0
 560 00a2 3B1C     		mov	r3, r7
 561 00a4 0E33     		add	r3, r3, #14
 562 00a6 1A78     		ldrb	r2, [r3]
 563 00a8 3B1C     		mov	r3, r7
 564 00aa 2033     		add	r3, r3, #32
 565 00ac 1B78     		ldrb	r3, [r3]
 566 00ae 1343     		orr	r3, r2
 567 00b0 DAB2     		uxtb	r2, r3
 568 00b2 3B1C     		mov	r3, r7
 569 00b4 0E33     		add	r3, r3, #14
 570 00b6 1A70     		strb	r2, [r3]
  68:.\i2cFunctions.c **** 	I2CWriteByte(devAddr, regAddr, b);	
 571              		.loc 1 68 0
 572 00b8 3B1C     		mov	r3, r7
 573 00ba 0E33     		add	r3, r3, #14
 574 00bc 1B78     		ldrb	r3, [r3]
 575 00be FA1D     		add	r2, r7, #7
 576 00c0 1178     		ldrb	r1, [r2]
 577 00c2 BA1D     		add	r2, r7, #6
 578 00c4 1278     		ldrb	r2, [r2]
 579 00c6 081C     		mov	r0, r1
 580 00c8 111C     		mov	r1, r2
 581 00ca 1A1C     		mov	r2, r3
 582 00cc FFF7FEFF 		bl	I2CWriteByte
  69:.\i2cFunctions.c **** }
 583              		.loc 1 69 0
 584 00d0 BD46     		mov	sp, r7
 585 00d2 05B0     		add	sp, sp, #20
 586              		@ sp needed for prologue
 587 00d4 90BD     		pop	{r4, r7, pc}
 588              		.cfi_endproc
 589              	.LFE39:
 590              		.size	I2CWriteBits, .-I2CWriteBits
 591 00d6 C046     		.section	.text.I2CWriteBit,"ax",%progbits
 592              		.align	2
 593              		.global	I2CWriteBit
 594              		.code	16
 595              		.thumb_func
 596              		.type	I2CWriteBit, %function
 597              	I2CWriteBit:
 598              	.LFB40:
  70:.\i2cFunctions.c **** 
  71:.\i2cFunctions.c **** void I2CWriteBit(uint8_t devAddr, uint8_t regAddr, uint8_t bitNum, uint8_t value) {
 599              		.loc 1 71 0
 600              		.cfi_startproc
 601 0000 90B5     		push	{r4, r7, lr}
 602              	.LCFI21:
 603              		.cfi_def_cfa_offset 12
 604              		.cfi_offset 4, -12
 605              		.cfi_offset 7, -8
 606              		.cfi_offset 14, -4
 607 0002 85B0     		sub	sp, sp, #20
 608              	.LCFI22:
 609              		.cfi_def_cfa_offset 32
 610 0004 00AF     		add	r7, sp, #0
 611              	.LCFI23:
ARM GAS  C:\Users\Sam\AppData\Local\Temp\ccfz4KIl.s 			page 13


 612              		.cfi_def_cfa_register 7
 613 0006 041C     		mov	r4, r0
 614 0008 081C     		mov	r0, r1
 615 000a 111C     		mov	r1, r2
 616 000c 1A1C     		mov	r2, r3
 617 000e FB1D     		add	r3, r7, #7
 618 0010 1C70     		strb	r4, [r3]
 619 0012 BB1D     		add	r3, r7, #6
 620 0014 1870     		strb	r0, [r3]
 621 0016 7B1D     		add	r3, r7, #5
 622 0018 1970     		strb	r1, [r3]
 623 001a 3B1D     		add	r3, r7, #4
 624 001c 1A70     		strb	r2, [r3]
  72:.\i2cFunctions.c **** 	uint8_t b;
  73:.\i2cFunctions.c **** 	I2CReadByte(devAddr, regAddr, &b);
 625              		.loc 1 73 0
 626 001e FB1D     		add	r3, r7, #7
 627 0020 1978     		ldrb	r1, [r3]
 628 0022 BB1D     		add	r3, r7, #6
 629 0024 1A78     		ldrb	r2, [r3]
 630 0026 3B1C     		mov	r3, r7
 631 0028 0F33     		add	r3, r3, #15
 632 002a 081C     		mov	r0, r1
 633 002c 111C     		mov	r1, r2
 634 002e 1A1C     		mov	r2, r3
 635 0030 FFF7FEFF 		bl	I2CReadByte
  74:.\i2cFunctions.c **** 	b = (value != 0) ? (b | (1 << bitNum)) : (b & ~(1 << bitNum));
 636              		.loc 1 74 0
 637 0034 3B1D     		add	r3, r7, #4
 638 0036 1B78     		ldrb	r3, [r3]
 639 0038 002B     		cmp	r3, #0
 640 003a 0ED0     		beq	.L14
 641              		.loc 1 74 0 is_stmt 0 discriminator 1
 642 003c 7B1D     		add	r3, r7, #5
 643 003e 1B78     		ldrb	r3, [r3]
 644 0040 0122     		mov	r2, #1
 645 0042 111C     		mov	r1, r2
 646 0044 9940     		lsl	r1, r1, r3
 647 0046 0B1C     		mov	r3, r1
 648 0048 DAB2     		uxtb	r2, r3
 649 004a 3B1C     		mov	r3, r7
 650 004c 0F33     		add	r3, r3, #15
 651 004e 1B78     		ldrb	r3, [r3]
 652 0050 DBB2     		uxtb	r3, r3
 653 0052 1343     		orr	r3, r2
 654 0054 DBB2     		uxtb	r3, r3
 655 0056 DBB2     		uxtb	r3, r3
 656 0058 0FE0     		b	.L15
 657              	.L14:
 658              		.loc 1 74 0 discriminator 2
 659 005a 7B1D     		add	r3, r7, #5
 660 005c 1B78     		ldrb	r3, [r3]
 661 005e 0122     		mov	r2, #1
 662 0060 111C     		mov	r1, r2
 663 0062 9940     		lsl	r1, r1, r3
 664 0064 0B1C     		mov	r3, r1
 665 0066 DBB2     		uxtb	r3, r3
ARM GAS  C:\Users\Sam\AppData\Local\Temp\ccfz4KIl.s 			page 14


 666 0068 DB43     		mvn	r3, r3
 667 006a DBB2     		uxtb	r3, r3
 668 006c 3A1C     		mov	r2, r7
 669 006e 0F32     		add	r2, r2, #15
 670 0070 1278     		ldrb	r2, [r2]
 671 0072 D2B2     		uxtb	r2, r2
 672 0074 1340     		and	r3, r2
 673 0076 DBB2     		uxtb	r3, r3
 674 0078 DBB2     		uxtb	r3, r3
 675              	.L15:
 676              		.loc 1 74 0 discriminator 3
 677 007a 3A1C     		mov	r2, r7
 678 007c 0F32     		add	r2, r2, #15
 679 007e 1370     		strb	r3, [r2]
  75:.\i2cFunctions.c **** 	I2CWriteByte(devAddr, regAddr, b);
 680              		.loc 1 75 0 is_stmt 1 discriminator 3
 681 0080 3B1C     		mov	r3, r7
 682 0082 0F33     		add	r3, r3, #15
 683 0084 1B78     		ldrb	r3, [r3]
 684 0086 FA1D     		add	r2, r7, #7
 685 0088 1178     		ldrb	r1, [r2]
 686 008a BA1D     		add	r2, r7, #6
 687 008c 1278     		ldrb	r2, [r2]
 688 008e 081C     		mov	r0, r1
 689 0090 111C     		mov	r1, r2
 690 0092 1A1C     		mov	r2, r3
 691 0094 FFF7FEFF 		bl	I2CWriteByte
  76:.\i2cFunctions.c **** }
 692              		.loc 1 76 0 discriminator 3
 693 0098 BD46     		mov	sp, r7
 694 009a 05B0     		add	sp, sp, #20
 695              		@ sp needed for prologue
 696 009c 90BD     		pop	{r4, r7, pc}
 697              		.cfi_endproc
 698              	.LFE40:
 699              		.size	I2CWriteBit, .-I2CWriteBit
 700 009e C046     		.section	.text.I2CWriteWords,"ax",%progbits
 701              		.align	2
 702              		.global	I2CWriteWords
 703              		.code	16
 704              		.thumb_func
 705              		.type	I2CWriteWords, %function
 706              	I2CWriteWords:
 707              	.LFB41:
  77:.\i2cFunctions.c **** 
  78:.\i2cFunctions.c **** void I2CWriteWords(uint8_t devAddr, uint8_t regAddr, uint8_t length, uint16_t *value) {
 708              		.loc 1 78 0
 709              		.cfi_startproc
 710 0000 80B5     		push	{r7, lr}
 711              	.LCFI24:
 712              		.cfi_def_cfa_offset 8
 713              		.cfi_offset 7, -8
 714              		.cfi_offset 14, -4
 715 0002 84B0     		sub	sp, sp, #16
 716              	.LCFI25:
 717              		.cfi_def_cfa_offset 24
 718 0004 00AF     		add	r7, sp, #0
ARM GAS  C:\Users\Sam\AppData\Local\Temp\ccfz4KIl.s 			page 15


 719              	.LCFI26:
 720              		.cfi_def_cfa_register 7
 721 0006 3B60     		str	r3, [r7]
 722 0008 FB1D     		add	r3, r7, #7
 723 000a 1870     		strb	r0, [r3]
 724 000c BB1D     		add	r3, r7, #6
 725 000e 1970     		strb	r1, [r3]
 726 0010 7B1D     		add	r3, r7, #5
 727 0012 1A70     		strb	r2, [r3]
  79:.\i2cFunctions.c **** 	uint8_t i=0;
 728              		.loc 1 79 0
 729 0014 3B1C     		mov	r3, r7
 730 0016 0F33     		add	r3, r3, #15
 731 0018 0022     		mov	r2, #0
 732 001a 1A70     		strb	r2, [r3]
  80:.\i2cFunctions.c **** 	I2C_MPU6050_I2CMasterSendStart(devAddr, I2C_MPU6050_I2C_WRITE_XFER_MODE);
 733              		.loc 1 80 0
 734 001c FB1D     		add	r3, r7, #7
 735 001e 1B78     		ldrb	r3, [r3]
 736 0020 181C     		mov	r0, r3
 737 0022 0021     		mov	r1, #0
 738 0024 FFF7FEFF 		bl	I2C_MPU6050_I2CMasterSendStart
  81:.\i2cFunctions.c **** 	I2C_MPU6050_I2CMasterWriteByte(regAddr);
 739              		.loc 1 81 0
 740 0028 BB1D     		add	r3, r7, #6
 741 002a 1B78     		ldrb	r3, [r3]
 742 002c 181C     		mov	r0, r3
 743 002e FFF7FEFF 		bl	I2C_MPU6050_I2CMasterWriteByte
  82:.\i2cFunctions.c **** 	while (i++ < length) {
 744              		.loc 1 82 0
 745 0032 0FE0     		b	.L17
 746              	.L18:
  83:.\i2cFunctions.c **** 		I2C_MPU6050_I2CMasterWriteByte(((uint8_t)*value) >> 8);
 747              		.loc 1 83 0
 748 0034 3B68     		ldr	r3, [r7]
 749 0036 1B88     		ldrh	r3, [r3]
 750 0038 DBB2     		uxtb	r3, r3
 751 003a 1B12     		asr	r3, r3, #8
 752 003c 181C     		mov	r0, r3
 753 003e FFF7FEFF 		bl	I2C_MPU6050_I2CMasterWriteByte
  84:.\i2cFunctions.c **** 		I2C_MPU6050_I2CMasterWriteByte((uint8_t)*value++);
 754              		.loc 1 84 0
 755 0042 3B68     		ldr	r3, [r7]
 756 0044 1B88     		ldrh	r3, [r3]
 757 0046 DBB2     		uxtb	r3, r3
 758 0048 3A68     		ldr	r2, [r7]
 759 004a 0232     		add	r2, r2, #2
 760 004c 3A60     		str	r2, [r7]
 761 004e 181C     		mov	r0, r3
 762 0050 FFF7FEFF 		bl	I2C_MPU6050_I2CMasterWriteByte
 763              	.L17:
  82:.\i2cFunctions.c **** 	while (i++ < length) {
 764              		.loc 1 82 0 discriminator 1
 765 0054 3A1C     		mov	r2, r7
 766 0056 0F32     		add	r2, r2, #15
 767 0058 7B1D     		add	r3, r7, #5
 768 005a 1278     		ldrb	r2, [r2]
ARM GAS  C:\Users\Sam\AppData\Local\Temp\ccfz4KIl.s 			page 16


 769 005c 1B78     		ldrb	r3, [r3]
 770 005e 9A42     		cmp	r2, r3
 771 0060 9B41     		sbc	r3, r3, r3
 772 0062 5B42     		neg	r3, r3
 773 0064 DBB2     		uxtb	r3, r3
 774 0066 3A1C     		mov	r2, r7
 775 0068 0F32     		add	r2, r2, #15
 776 006a 391C     		mov	r1, r7
 777 006c 0F31     		add	r1, r1, #15
 778 006e 0978     		ldrb	r1, [r1]
 779 0070 0131     		add	r1, r1, #1
 780 0072 1170     		strb	r1, [r2]
 781 0074 002B     		cmp	r3, #0
 782 0076 DDD1     		bne	.L18
  85:.\i2cFunctions.c **** 	}
  86:.\i2cFunctions.c **** 	I2C_MPU6050_I2CMasterSendStop();		
 783              		.loc 1 86 0
 784 0078 FFF7FEFF 		bl	I2C_MPU6050_I2CMasterSendStop
  87:.\i2cFunctions.c **** }
 785              		.loc 1 87 0
 786 007c BD46     		mov	sp, r7
 787 007e 04B0     		add	sp, sp, #16
 788              		@ sp needed for prologue
 789 0080 80BD     		pop	{r7, pc}
 790              		.cfi_endproc
 791              	.LFE41:
 792              		.size	I2CWriteWords, .-I2CWriteWords
 793 0082 C046     		.section	.text.I2CWriteWord,"ax",%progbits
 794              		.align	2
 795              		.global	I2CWriteWord
 796              		.code	16
 797              		.thumb_func
 798              		.type	I2CWriteWord, %function
 799              	I2CWriteWord:
 800              	.LFB42:
  88:.\i2cFunctions.c **** 
  89:.\i2cFunctions.c **** void I2CWriteWord(uint8_t devAddr, uint8_t regAddr, uint16_t value) {
 801              		.loc 1 89 0
 802              		.cfi_startproc
 803 0000 80B5     		push	{r7, lr}
 804              	.LCFI27:
 805              		.cfi_def_cfa_offset 8
 806              		.cfi_offset 7, -8
 807              		.cfi_offset 14, -4
 808 0002 82B0     		sub	sp, sp, #8
 809              	.LCFI28:
 810              		.cfi_def_cfa_offset 16
 811 0004 00AF     		add	r7, sp, #0
 812              	.LCFI29:
 813              		.cfi_def_cfa_register 7
 814 0006 FB1D     		add	r3, r7, #7
 815 0008 1870     		strb	r0, [r3]
 816 000a BB1D     		add	r3, r7, #6
 817 000c 1970     		strb	r1, [r3]
 818 000e 3B1D     		add	r3, r7, #4
 819 0010 1A80     		strh	r2, [r3]
  90:.\i2cFunctions.c **** 	I2CWriteWords(devAddr, regAddr, 1, &value);
ARM GAS  C:\Users\Sam\AppData\Local\Temp\ccfz4KIl.s 			page 17


 820              		.loc 1 90 0
 821 0012 FB1D     		add	r3, r7, #7
 822 0014 1978     		ldrb	r1, [r3]
 823 0016 BB1D     		add	r3, r7, #6
 824 0018 1A78     		ldrb	r2, [r3]
 825 001a 3B1D     		add	r3, r7, #4
 826 001c 081C     		mov	r0, r1
 827 001e 111C     		mov	r1, r2
 828 0020 0122     		mov	r2, #1
 829 0022 FFF7FEFF 		bl	I2CWriteWords
  91:.\i2cFunctions.c **** }...
 830              		.loc 1 91 0
 831 0026 BD46     		mov	sp, r7
 832 0028 02B0     		add	sp, sp, #8
 833              		@ sp needed for prologue
 834 002a 80BD     		pop	{r7, pc}
 835              		.cfi_endproc
 836              	.LFE42:
 837              		.size	I2CWriteWord, .-I2CWriteWord
 838              		.text
 839              	.Letext0:
 840              		.file 2 "c:\\program files (x86)\\cypress\\psoc creator\\3.0\\psoc creator\\import\\gnu_cs\\arm\\4
 841              		.section	.debug_info,"",%progbits
 842              	.Ldebug_info0:
 843 0000 2E040000 		.4byte	0x42e
 844 0004 0200     		.2byte	0x2
 845 0006 00000000 		.4byte	.Ldebug_abbrev0
 846 000a 04       		.byte	0x4
 847 000b 01       		.uleb128 0x1
 848 000c 11010000 		.4byte	.LASF31
 849 0010 01       		.byte	0x1
 850 0011 05020000 		.4byte	.LASF32
 851 0015 8F010000 		.4byte	.LASF33
 852 0019 00000000 		.4byte	.Ldebug_ranges0+0
 853 001d 00000000 		.4byte	0
 854 0021 00000000 		.4byte	0
 855 0025 00000000 		.4byte	.Ldebug_line0
 856 0029 02       		.uleb128 0x2
 857 002a 01       		.byte	0x1
 858 002b 06       		.byte	0x6
 859 002c 83010000 		.4byte	.LASF0
 860 0030 03       		.uleb128 0x3
 861 0031 C6000000 		.4byte	.LASF3
 862 0035 02       		.byte	0x2
 863 0036 2A       		.byte	0x2a
 864 0037 3B000000 		.4byte	0x3b
 865 003b 02       		.uleb128 0x2
 866 003c 01       		.byte	0x1
 867 003d 08       		.byte	0x8
 868 003e 26000000 		.4byte	.LASF1
 869 0042 02       		.uleb128 0x2
 870 0043 02       		.byte	0x2
 871 0044 05       		.byte	0x5
 872 0045 F6000000 		.4byte	.LASF2
 873 0049 03       		.uleb128 0x3
 874 004a 08010000 		.4byte	.LASF4
 875 004e 02       		.byte	0x2
ARM GAS  C:\Users\Sam\AppData\Local\Temp\ccfz4KIl.s 			page 18


 876 004f 36       		.byte	0x36
 877 0050 54000000 		.4byte	0x54
 878 0054 02       		.uleb128 0x2
 879 0055 02       		.byte	0x2
 880 0056 07       		.byte	0x7
 881 0057 66000000 		.4byte	.LASF5
 882 005b 02       		.uleb128 0x2
 883 005c 04       		.byte	0x4
 884 005d 05       		.byte	0x5
 885 005e 68010000 		.4byte	.LASF6
 886 0062 02       		.uleb128 0x2
 887 0063 04       		.byte	0x4
 888 0064 07       		.byte	0x7
 889 0065 54000000 		.4byte	.LASF7
 890 0069 02       		.uleb128 0x2
 891 006a 08       		.byte	0x8
 892 006b 05       		.byte	0x5
 893 006c D7000000 		.4byte	.LASF8
 894 0070 02       		.uleb128 0x2
 895 0071 08       		.byte	0x8
 896 0072 07       		.byte	0x7
 897 0073 AF000000 		.4byte	.LASF9
 898 0077 04       		.uleb128 0x4
 899 0078 04       		.byte	0x4
 900 0079 05       		.byte	0x5
 901 007a 696E7400 		.ascii	"int\000"
 902 007e 02       		.uleb128 0x2
 903 007f 04       		.byte	0x4
 904 0080 07       		.byte	0x7
 905 0081 A2000000 		.4byte	.LASF10
 906 0085 02       		.uleb128 0x2
 907 0086 04       		.byte	0x4
 908 0087 04       		.byte	0x4
 909 0088 20000000 		.4byte	.LASF11
 910 008c 02       		.uleb128 0x2
 911 008d 08       		.byte	0x8
 912 008e 04       		.byte	0x4
 913 008f 86000000 		.4byte	.LASF12
 914 0093 02       		.uleb128 0x2
 915 0094 01       		.byte	0x1
 916 0095 08       		.byte	0x8
 917 0096 71010000 		.4byte	.LASF13
 918 009a 02       		.uleb128 0x2
 919 009b 04       		.byte	0x4
 920 009c 07       		.byte	0x7
 921 009d CE000000 		.4byte	.LASF14
 922 00a1 05       		.uleb128 0x5
 923 00a2 01       		.byte	0x1
 924 00a3 76010000 		.4byte	.LASF19
 925 00a7 01       		.byte	0x1
 926 00a8 12       		.byte	0x12
 927 00a9 01       		.byte	0x1
 928 00aa 00000000 		.4byte	.LFB33
 929 00ae 94000000 		.4byte	.LFE33
 930 00b2 00000000 		.4byte	.LLST0
 931 00b6 01       		.byte	0x1
 932 00b7 00010000 		.4byte	0x100
ARM GAS  C:\Users\Sam\AppData\Local\Temp\ccfz4KIl.s 			page 19


 933 00bb 06       		.uleb128 0x6
 934 00bc 00010000 		.4byte	.LASF15
 935 00c0 01       		.byte	0x1
 936 00c1 12       		.byte	0x12
 937 00c2 30000000 		.4byte	0x30
 938 00c6 02       		.byte	0x2
 939 00c7 91       		.byte	0x91
 940 00c8 6F       		.sleb128 -17
 941 00c9 06       		.uleb128 0x6
 942 00ca 4C000000 		.4byte	.LASF16
 943 00ce 01       		.byte	0x1
 944 00cf 12       		.byte	0x12
 945 00d0 30000000 		.4byte	0x30
 946 00d4 02       		.byte	0x2
 947 00d5 91       		.byte	0x91
 948 00d6 6E       		.sleb128 -18
 949 00d7 06       		.uleb128 0x6
 950 00d8 2A020000 		.4byte	.LASF17
 951 00dc 01       		.byte	0x1
 952 00dd 12       		.byte	0x12
 953 00de 30000000 		.4byte	0x30
 954 00e2 02       		.byte	0x2
 955 00e3 91       		.byte	0x91
 956 00e4 6D       		.sleb128 -19
 957 00e5 06       		.uleb128 0x6
 958 00e6 0E000000 		.4byte	.LASF18
 959 00ea 01       		.byte	0x1
 960 00eb 12       		.byte	0x12
 961 00ec 00010000 		.4byte	0x100
 962 00f0 02       		.byte	0x2
 963 00f1 91       		.byte	0x91
 964 00f2 68       		.sleb128 -24
 965 00f3 07       		.uleb128 0x7
 966 00f4 6900     		.ascii	"i\000"
 967 00f6 01       		.byte	0x1
 968 00f7 13       		.byte	0x13
 969 00f8 30000000 		.4byte	0x30
 970 00fc 02       		.byte	0x2
 971 00fd 91       		.byte	0x91
 972 00fe 77       		.sleb128 -9
 973 00ff 00       		.byte	0
 974 0100 08       		.uleb128 0x8
 975 0101 04       		.byte	0x4
 976 0102 30000000 		.4byte	0x30
 977 0106 05       		.uleb128 0x5
 978 0107 01       		.byte	0x1
 979 0108 14000000 		.4byte	.LASF20
 980 010c 01       		.byte	0x1
 981 010d 1E       		.byte	0x1e
 982 010e 01       		.byte	0x1
 983 010f 00000000 		.4byte	.LFB34
 984 0113 2E000000 		.4byte	.LFE34
 985 0117 38000000 		.4byte	.LLST1
 986 011b 01       		.byte	0x1
 987 011c 4B010000 		.4byte	0x14b
 988 0120 06       		.uleb128 0x6
 989 0121 00010000 		.4byte	.LASF15
ARM GAS  C:\Users\Sam\AppData\Local\Temp\ccfz4KIl.s 			page 20


 990 0125 01       		.byte	0x1
 991 0126 1E       		.byte	0x1e
 992 0127 30000000 		.4byte	0x30
 993 012b 02       		.byte	0x2
 994 012c 91       		.byte	0x91
 995 012d 77       		.sleb128 -9
 996 012e 06       		.uleb128 0x6
 997 012f 4C000000 		.4byte	.LASF16
 998 0133 01       		.byte	0x1
 999 0134 1E       		.byte	0x1e
 1000 0135 30000000 		.4byte	0x30
 1001 0139 02       		.byte	0x2
 1002 013a 91       		.byte	0x91
 1003 013b 76       		.sleb128 -10
 1004 013c 06       		.uleb128 0x6
 1005 013d 0E000000 		.4byte	.LASF18
 1006 0141 01       		.byte	0x1
 1007 0142 1E       		.byte	0x1e
 1008 0143 00010000 		.4byte	0x100
 1009 0147 02       		.byte	0x2
 1010 0148 91       		.byte	0x91
 1011 0149 70       		.sleb128 -16
 1012 014a 00       		.byte	0
 1013 014b 05       		.uleb128 0x5
 1014 014c 01       		.byte	0x1
 1015 014d EA000000 		.4byte	.LASF21
 1016 0151 01       		.byte	0x1
 1017 0152 22       		.byte	0x22
 1018 0153 01       		.byte	0x1
 1019 0154 00000000 		.4byte	.LFB35
 1020 0158 8A000000 		.4byte	.LFE35
 1021 015c 70000000 		.4byte	.LLST2
 1022 0160 01       		.byte	0x1
 1023 0161 BA010000 		.4byte	0x1ba
 1024 0165 06       		.uleb128 0x6
 1025 0166 00010000 		.4byte	.LASF15
 1026 016a 01       		.byte	0x1
 1027 016b 22       		.byte	0x22
 1028 016c 30000000 		.4byte	0x30
 1029 0170 02       		.byte	0x2
 1030 0171 91       		.byte	0x91
 1031 0172 67       		.sleb128 -25
 1032 0173 06       		.uleb128 0x6
 1033 0174 4C000000 		.4byte	.LASF16
 1034 0178 01       		.byte	0x1
 1035 0179 22       		.byte	0x22
 1036 017a 30000000 		.4byte	0x30
 1037 017e 02       		.byte	0x2
 1038 017f 91       		.byte	0x91
 1039 0180 66       		.sleb128 -26
 1040 0181 06       		.uleb128 0x6
 1041 0182 8D000000 		.4byte	.LASF22
 1042 0186 01       		.byte	0x1
 1043 0187 22       		.byte	0x22
 1044 0188 30000000 		.4byte	0x30
 1045 018c 02       		.byte	0x2
 1046 018d 91       		.byte	0x91
ARM GAS  C:\Users\Sam\AppData\Local\Temp\ccfz4KIl.s 			page 21


 1047 018e 65       		.sleb128 -27
 1048 018f 06       		.uleb128 0x6
 1049 0190 2A020000 		.4byte	.LASF17
 1050 0194 01       		.byte	0x1
 1051 0195 22       		.byte	0x22
 1052 0196 30000000 		.4byte	0x30
 1053 019a 02       		.byte	0x2
 1054 019b 91       		.byte	0x91
 1055 019c 64       		.sleb128 -28
 1056 019d 06       		.uleb128 0x6
 1057 019e 0E000000 		.4byte	.LASF18
 1058 01a2 01       		.byte	0x1
 1059 01a3 22       		.byte	0x22
 1060 01a4 00010000 		.4byte	0x100
 1061 01a8 02       		.byte	0x2
 1062 01a9 91       		.byte	0x91
 1063 01aa 00       		.sleb128 0
 1064 01ab 09       		.uleb128 0x9
 1065 01ac E5000000 		.4byte	.LASF23
 1066 01b0 01       		.byte	0x1
 1067 01b1 23       		.byte	0x23
 1068 01b2 30000000 		.4byte	0x30
 1069 01b6 02       		.byte	0x2
 1070 01b7 91       		.byte	0x91
 1071 01b8 6F       		.sleb128 -17
 1072 01b9 00       		.byte	0
 1073 01ba 05       		.uleb128 0x5
 1074 01bb 01       		.byte	0x1
 1075 01bc 41000000 		.4byte	.LASF24
 1076 01c0 01       		.byte	0x1
 1077 01c1 29       		.byte	0x29
 1078 01c2 01       		.byte	0x1
 1079 01c3 00000000 		.4byte	.LFB36
 1080 01c7 4C000000 		.4byte	.LFE36
 1081 01cb A8000000 		.4byte	.LLST3
 1082 01cf 01       		.byte	0x1
 1083 01d0 0D020000 		.4byte	0x20d
 1084 01d4 06       		.uleb128 0x6
 1085 01d5 00010000 		.4byte	.LASF15
 1086 01d9 01       		.byte	0x1
 1087 01da 29       		.byte	0x29
 1088 01db 30000000 		.4byte	0x30
 1089 01df 02       		.byte	0x2
 1090 01e0 91       		.byte	0x91
 1091 01e1 77       		.sleb128 -9
 1092 01e2 06       		.uleb128 0x6
 1093 01e3 4C000000 		.4byte	.LASF16
 1094 01e7 01       		.byte	0x1
 1095 01e8 29       		.byte	0x29
 1096 01e9 30000000 		.4byte	0x30
 1097 01ed 02       		.byte	0x2
 1098 01ee 91       		.byte	0x91
 1099 01ef 76       		.sleb128 -10
 1100 01f0 06       		.uleb128 0x6
 1101 01f1 23020000 		.4byte	.LASF25
 1102 01f5 01       		.byte	0x1
 1103 01f6 29       		.byte	0x29
ARM GAS  C:\Users\Sam\AppData\Local\Temp\ccfz4KIl.s 			page 22


 1104 01f7 30000000 		.4byte	0x30
 1105 01fb 02       		.byte	0x2
 1106 01fc 91       		.byte	0x91
 1107 01fd 75       		.sleb128 -11
 1108 01fe 06       		.uleb128 0x6
 1109 01ff 0E000000 		.4byte	.LASF18
 1110 0203 01       		.byte	0x1
 1111 0204 29       		.byte	0x29
 1112 0205 00010000 		.4byte	0x100
 1113 0209 02       		.byte	0x2
 1114 020a 91       		.byte	0x91
 1115 020b 70       		.sleb128 -16
 1116 020c 00       		.byte	0
 1117 020d 05       		.uleb128 0x5
 1118 020e 01       		.byte	0x1
 1119 020f 00000000 		.4byte	.LASF26
 1120 0213 01       		.byte	0x1
 1121 0214 2E       		.byte	0x2e
 1122 0215 01       		.byte	0x1
 1123 0216 00000000 		.4byte	.LFB37
 1124 021a 72000000 		.4byte	.LFE37
 1125 021e E0000000 		.4byte	.LLST4
 1126 0222 01       		.byte	0x1
 1127 0223 6C020000 		.4byte	0x26c
 1128 0227 06       		.uleb128 0x6
 1129 0228 00010000 		.4byte	.LASF15
 1130 022c 01       		.byte	0x1
 1131 022d 2E       		.byte	0x2e
 1132 022e 30000000 		.4byte	0x30
 1133 0232 02       		.byte	0x2
 1134 0233 91       		.byte	0x91
 1135 0234 6F       		.sleb128 -17
 1136 0235 06       		.uleb128 0x6
 1137 0236 4C000000 		.4byte	.LASF16
 1138 023a 01       		.byte	0x1
 1139 023b 2E       		.byte	0x2e
 1140 023c 30000000 		.4byte	0x30
 1141 0240 02       		.byte	0x2
 1142 0241 91       		.byte	0x91
 1143 0242 6E       		.sleb128 -18
 1144 0243 06       		.uleb128 0x6
 1145 0244 2A020000 		.4byte	.LASF17
 1146 0248 01       		.byte	0x1
 1147 0249 2E       		.byte	0x2e
 1148 024a 30000000 		.4byte	0x30
 1149 024e 02       		.byte	0x2
 1150 024f 91       		.byte	0x91
 1151 0250 6D       		.sleb128 -19
 1152 0251 06       		.uleb128 0x6
 1153 0252 0E000000 		.4byte	.LASF18
 1154 0256 01       		.byte	0x1
 1155 0257 2E       		.byte	0x2e
 1156 0258 00010000 		.4byte	0x100
 1157 025c 02       		.byte	0x2
 1158 025d 91       		.byte	0x91
 1159 025e 68       		.sleb128 -24
 1160 025f 07       		.uleb128 0x7
ARM GAS  C:\Users\Sam\AppData\Local\Temp\ccfz4KIl.s 			page 23


 1161 0260 6900     		.ascii	"i\000"
 1162 0262 01       		.byte	0x1
 1163 0263 2F       		.byte	0x2f
 1164 0264 30000000 		.4byte	0x30
 1165 0268 02       		.byte	0x2
 1166 0269 91       		.byte	0x91
 1167 026a 77       		.sleb128 -9
 1168 026b 00       		.byte	0
 1169 026c 05       		.uleb128 0x5
 1170 026d 01       		.byte	0x1
 1171 026e 79000000 		.4byte	.LASF27
 1172 0272 01       		.byte	0x1
 1173 0273 38       		.byte	0x38
 1174 0274 01       		.byte	0x1
 1175 0275 00000000 		.4byte	.LFB38
 1176 0279 2C000000 		.4byte	.LFE38
 1177 027d 18010000 		.4byte	.LLST5
 1178 0281 01       		.byte	0x1
 1179 0282 B1020000 		.4byte	0x2b1
 1180 0286 06       		.uleb128 0x6
 1181 0287 00010000 		.4byte	.LASF15
 1182 028b 01       		.byte	0x1
 1183 028c 38       		.byte	0x38
 1184 028d 30000000 		.4byte	0x30
 1185 0291 02       		.byte	0x2
 1186 0292 91       		.byte	0x91
 1187 0293 77       		.sleb128 -9
 1188 0294 06       		.uleb128 0x6
 1189 0295 4C000000 		.4byte	.LASF16
 1190 0299 01       		.byte	0x1
 1191 029a 38       		.byte	0x38
 1192 029b 30000000 		.4byte	0x30
 1193 029f 02       		.byte	0x2
 1194 02a0 91       		.byte	0x91
 1195 02a1 76       		.sleb128 -10
 1196 02a2 06       		.uleb128 0x6
 1197 02a3 0E000000 		.4byte	.LASF18
 1198 02a7 01       		.byte	0x1
 1199 02a8 38       		.byte	0x38
 1200 02a9 30000000 		.4byte	0x30
 1201 02ad 02       		.byte	0x2
 1202 02ae 91       		.byte	0x91
 1203 02af 75       		.sleb128 -11
 1204 02b0 00       		.byte	0
 1205 02b1 05       		.uleb128 0x5
 1206 02b2 01       		.byte	0x1
 1207 02b3 16020000 		.4byte	.LASF28
 1208 02b7 01       		.byte	0x1
 1209 02b8 3C       		.byte	0x3c
 1210 02b9 01       		.byte	0x1
 1211 02ba 00000000 		.4byte	.LFB39
 1212 02be D6000000 		.4byte	.LFE39
 1213 02c2 50010000 		.4byte	.LLST6
 1214 02c6 01       		.byte	0x1
 1215 02c7 2C030000 		.4byte	0x32c
 1216 02cb 06       		.uleb128 0x6
 1217 02cc 00010000 		.4byte	.LASF15
ARM GAS  C:\Users\Sam\AppData\Local\Temp\ccfz4KIl.s 			page 24


 1218 02d0 01       		.byte	0x1
 1219 02d1 3C       		.byte	0x3c
 1220 02d2 30000000 		.4byte	0x30
 1221 02d6 02       		.byte	0x2
 1222 02d7 91       		.byte	0x91
 1223 02d8 67       		.sleb128 -25
 1224 02d9 06       		.uleb128 0x6
 1225 02da 4C000000 		.4byte	.LASF16
 1226 02de 01       		.byte	0x1
 1227 02df 3C       		.byte	0x3c
 1228 02e0 30000000 		.4byte	0x30
 1229 02e4 02       		.byte	0x2
 1230 02e5 91       		.byte	0x91
 1231 02e6 66       		.sleb128 -26
 1232 02e7 06       		.uleb128 0x6
 1233 02e8 8D000000 		.4byte	.LASF22
 1234 02ec 01       		.byte	0x1
 1235 02ed 3C       		.byte	0x3c
 1236 02ee 30000000 		.4byte	0x30
 1237 02f2 02       		.byte	0x2
 1238 02f3 91       		.byte	0x91
 1239 02f4 65       		.sleb128 -27
 1240 02f5 06       		.uleb128 0x6
 1241 02f6 2A020000 		.4byte	.LASF17
 1242 02fa 01       		.byte	0x1
 1243 02fb 3C       		.byte	0x3c
 1244 02fc 30000000 		.4byte	0x30
 1245 0300 02       		.byte	0x2
 1246 0301 91       		.byte	0x91
 1247 0302 64       		.sleb128 -28
 1248 0303 06       		.uleb128 0x6
 1249 0304 0E000000 		.4byte	.LASF18
 1250 0308 01       		.byte	0x1
 1251 0309 3C       		.byte	0x3c
 1252 030a 30000000 		.4byte	0x30
 1253 030e 02       		.byte	0x2
 1254 030f 91       		.byte	0x91
 1255 0310 00       		.sleb128 0
 1256 0311 07       		.uleb128 0x7
 1257 0312 6200     		.ascii	"b\000"
 1258 0314 01       		.byte	0x1
 1259 0315 3D       		.byte	0x3d
 1260 0316 30000000 		.4byte	0x30
 1261 031a 02       		.byte	0x2
 1262 031b 91       		.byte	0x91
 1263 031c 6E       		.sleb128 -18
 1264 031d 09       		.uleb128 0x9
 1265 031e E5000000 		.4byte	.LASF23
 1266 0322 01       		.byte	0x1
 1267 0323 3E       		.byte	0x3e
 1268 0324 30000000 		.4byte	0x30
 1269 0328 02       		.byte	0x2
 1270 0329 91       		.byte	0x91
 1271 032a 6F       		.sleb128 -17
 1272 032b 00       		.byte	0
 1273 032c 05       		.uleb128 0x5
 1274 032d 01       		.byte	0x1
ARM GAS  C:\Users\Sam\AppData\Local\Temp\ccfz4KIl.s 			page 25


 1275 032e 96000000 		.4byte	.LASF29
 1276 0332 01       		.byte	0x1
 1277 0333 47       		.byte	0x47
 1278 0334 01       		.byte	0x1
 1279 0335 00000000 		.4byte	.LFB40
 1280 0339 9E000000 		.4byte	.LFE40
 1281 033d 88010000 		.4byte	.LLST7
 1282 0341 01       		.byte	0x1
 1283 0342 8B030000 		.4byte	0x38b
 1284 0346 06       		.uleb128 0x6
 1285 0347 00010000 		.4byte	.LASF15
 1286 034b 01       		.byte	0x1
 1287 034c 47       		.byte	0x47
 1288 034d 30000000 		.4byte	0x30
 1289 0351 02       		.byte	0x2
 1290 0352 91       		.byte	0x91
 1291 0353 67       		.sleb128 -25
 1292 0354 06       		.uleb128 0x6
 1293 0355 4C000000 		.4byte	.LASF16
 1294 0359 01       		.byte	0x1
 1295 035a 47       		.byte	0x47
 1296 035b 30000000 		.4byte	0x30
 1297 035f 02       		.byte	0x2
 1298 0360 91       		.byte	0x91
 1299 0361 66       		.sleb128 -26
 1300 0362 06       		.uleb128 0x6
 1301 0363 23020000 		.4byte	.LASF25
 1302 0367 01       		.byte	0x1
 1303 0368 47       		.byte	0x47
 1304 0369 30000000 		.4byte	0x30
 1305 036d 02       		.byte	0x2
 1306 036e 91       		.byte	0x91
 1307 036f 65       		.sleb128 -27
 1308 0370 06       		.uleb128 0x6
 1309 0371 0E000000 		.4byte	.LASF18
 1310 0375 01       		.byte	0x1
 1311 0376 47       		.byte	0x47
 1312 0377 30000000 		.4byte	0x30
 1313 037b 02       		.byte	0x2
 1314 037c 91       		.byte	0x91
 1315 037d 64       		.sleb128 -28
 1316 037e 07       		.uleb128 0x7
 1317 037f 6200     		.ascii	"b\000"
 1318 0381 01       		.byte	0x1
 1319 0382 48       		.byte	0x48
 1320 0383 30000000 		.4byte	0x30
 1321 0387 02       		.byte	0x2
 1322 0388 91       		.byte	0x91
 1323 0389 6F       		.sleb128 -17
 1324 038a 00       		.byte	0
 1325 038b 05       		.uleb128 0x5
 1326 038c 01       		.byte	0x1
 1327 038d 5A010000 		.4byte	.LASF30
 1328 0391 01       		.byte	0x1
 1329 0392 4E       		.byte	0x4e
 1330 0393 01       		.byte	0x1
 1331 0394 00000000 		.4byte	.LFB41
ARM GAS  C:\Users\Sam\AppData\Local\Temp\ccfz4KIl.s 			page 26


 1332 0398 82000000 		.4byte	.LFE41
 1333 039c C0010000 		.4byte	.LLST8
 1334 03a0 01       		.byte	0x1
 1335 03a1 EA030000 		.4byte	0x3ea
 1336 03a5 06       		.uleb128 0x6
 1337 03a6 00010000 		.4byte	.LASF15
 1338 03aa 01       		.byte	0x1
 1339 03ab 4E       		.byte	0x4e
 1340 03ac 30000000 		.4byte	0x30
 1341 03b0 02       		.byte	0x2
 1342 03b1 91       		.byte	0x91
 1343 03b2 6F       		.sleb128 -17
 1344 03b3 06       		.uleb128 0x6
 1345 03b4 4C000000 		.4byte	.LASF16
 1346 03b8 01       		.byte	0x1
 1347 03b9 4E       		.byte	0x4e
 1348 03ba 30000000 		.4byte	0x30
 1349 03be 02       		.byte	0x2
 1350 03bf 91       		.byte	0x91
 1351 03c0 6E       		.sleb128 -18
 1352 03c1 06       		.uleb128 0x6
 1353 03c2 2A020000 		.4byte	.LASF17
 1354 03c6 01       		.byte	0x1
 1355 03c7 4E       		.byte	0x4e
 1356 03c8 30000000 		.4byte	0x30
 1357 03cc 02       		.byte	0x2
 1358 03cd 91       		.byte	0x91
 1359 03ce 6D       		.sleb128 -19
 1360 03cf 06       		.uleb128 0x6
 1361 03d0 0E000000 		.4byte	.LASF18
 1362 03d4 01       		.byte	0x1
 1363 03d5 4E       		.byte	0x4e
 1364 03d6 EA030000 		.4byte	0x3ea
 1365 03da 02       		.byte	0x2
 1366 03db 91       		.byte	0x91
 1367 03dc 68       		.sleb128 -24
 1368 03dd 07       		.uleb128 0x7
 1369 03de 6900     		.ascii	"i\000"
 1370 03e0 01       		.byte	0x1
 1371 03e1 4F       		.byte	0x4f
 1372 03e2 30000000 		.4byte	0x30
 1373 03e6 02       		.byte	0x2
 1374 03e7 91       		.byte	0x91
 1375 03e8 77       		.sleb128 -9
 1376 03e9 00       		.byte	0
 1377 03ea 08       		.uleb128 0x8
 1378 03eb 04       		.byte	0x4
 1379 03ec 49000000 		.4byte	0x49
 1380 03f0 0A       		.uleb128 0xa
 1381 03f1 01       		.byte	0x1
 1382 03f2 34000000 		.4byte	.LASF34
 1383 03f6 01       		.byte	0x1
 1384 03f7 59       		.byte	0x59
 1385 03f8 01       		.byte	0x1
 1386 03f9 00000000 		.4byte	.LFB42
 1387 03fd 2C000000 		.4byte	.LFE42
 1388 0401 F8010000 		.4byte	.LLST9
ARM GAS  C:\Users\Sam\AppData\Local\Temp\ccfz4KIl.s 			page 27


 1389 0405 01       		.byte	0x1
 1390 0406 06       		.uleb128 0x6
 1391 0407 00010000 		.4byte	.LASF15
 1392 040b 01       		.byte	0x1
 1393 040c 59       		.byte	0x59
 1394 040d 30000000 		.4byte	0x30
 1395 0411 02       		.byte	0x2
 1396 0412 91       		.byte	0x91
 1397 0413 77       		.sleb128 -9
 1398 0414 06       		.uleb128 0x6
 1399 0415 4C000000 		.4byte	.LASF16
 1400 0419 01       		.byte	0x1
 1401 041a 59       		.byte	0x59
 1402 041b 30000000 		.4byte	0x30
 1403 041f 02       		.byte	0x2
 1404 0420 91       		.byte	0x91
 1405 0421 76       		.sleb128 -10
 1406 0422 06       		.uleb128 0x6
 1407 0423 0E000000 		.4byte	.LASF18
 1408 0427 01       		.byte	0x1
 1409 0428 59       		.byte	0x59
 1410 0429 49000000 		.4byte	0x49
 1411 042d 02       		.byte	0x2
 1412 042e 91       		.byte	0x91
 1413 042f 74       		.sleb128 -12
 1414 0430 00       		.byte	0
 1415 0431 00       		.byte	0
 1416              		.section	.debug_abbrev,"",%progbits
 1417              	.Ldebug_abbrev0:
 1418 0000 01       		.uleb128 0x1
 1419 0001 11       		.uleb128 0x11
 1420 0002 01       		.byte	0x1
 1421 0003 25       		.uleb128 0x25
 1422 0004 0E       		.uleb128 0xe
 1423 0005 13       		.uleb128 0x13
 1424 0006 0B       		.uleb128 0xb
 1425 0007 03       		.uleb128 0x3
 1426 0008 0E       		.uleb128 0xe
 1427 0009 1B       		.uleb128 0x1b
 1428 000a 0E       		.uleb128 0xe
 1429 000b 55       		.uleb128 0x55
 1430 000c 06       		.uleb128 0x6
 1431 000d 11       		.uleb128 0x11
 1432 000e 01       		.uleb128 0x1
 1433 000f 52       		.uleb128 0x52
 1434 0010 01       		.uleb128 0x1
 1435 0011 10       		.uleb128 0x10
 1436 0012 06       		.uleb128 0x6
 1437 0013 00       		.byte	0
 1438 0014 00       		.byte	0
 1439 0015 02       		.uleb128 0x2
 1440 0016 24       		.uleb128 0x24
 1441 0017 00       		.byte	0
 1442 0018 0B       		.uleb128 0xb
 1443 0019 0B       		.uleb128 0xb
 1444 001a 3E       		.uleb128 0x3e
 1445 001b 0B       		.uleb128 0xb
ARM GAS  C:\Users\Sam\AppData\Local\Temp\ccfz4KIl.s 			page 28


 1446 001c 03       		.uleb128 0x3
 1447 001d 0E       		.uleb128 0xe
 1448 001e 00       		.byte	0
 1449 001f 00       		.byte	0
 1450 0020 03       		.uleb128 0x3
 1451 0021 16       		.uleb128 0x16
 1452 0022 00       		.byte	0
 1453 0023 03       		.uleb128 0x3
 1454 0024 0E       		.uleb128 0xe
 1455 0025 3A       		.uleb128 0x3a
 1456 0026 0B       		.uleb128 0xb
 1457 0027 3B       		.uleb128 0x3b
 1458 0028 0B       		.uleb128 0xb
 1459 0029 49       		.uleb128 0x49
 1460 002a 13       		.uleb128 0x13
 1461 002b 00       		.byte	0
 1462 002c 00       		.byte	0
 1463 002d 04       		.uleb128 0x4
 1464 002e 24       		.uleb128 0x24
 1465 002f 00       		.byte	0
 1466 0030 0B       		.uleb128 0xb
 1467 0031 0B       		.uleb128 0xb
 1468 0032 3E       		.uleb128 0x3e
 1469 0033 0B       		.uleb128 0xb
 1470 0034 03       		.uleb128 0x3
 1471 0035 08       		.uleb128 0x8
 1472 0036 00       		.byte	0
 1473 0037 00       		.byte	0
 1474 0038 05       		.uleb128 0x5
 1475 0039 2E       		.uleb128 0x2e
 1476 003a 01       		.byte	0x1
 1477 003b 3F       		.uleb128 0x3f
 1478 003c 0C       		.uleb128 0xc
 1479 003d 03       		.uleb128 0x3
 1480 003e 0E       		.uleb128 0xe
 1481 003f 3A       		.uleb128 0x3a
 1482 0040 0B       		.uleb128 0xb
 1483 0041 3B       		.uleb128 0x3b
 1484 0042 0B       		.uleb128 0xb
 1485 0043 27       		.uleb128 0x27
 1486 0044 0C       		.uleb128 0xc
 1487 0045 11       		.uleb128 0x11
 1488 0046 01       		.uleb128 0x1
 1489 0047 12       		.uleb128 0x12
 1490 0048 01       		.uleb128 0x1
 1491 0049 40       		.uleb128 0x40
 1492 004a 06       		.uleb128 0x6
 1493 004b 9642     		.uleb128 0x2116
 1494 004d 0C       		.uleb128 0xc
 1495 004e 01       		.uleb128 0x1
 1496 004f 13       		.uleb128 0x13
 1497 0050 00       		.byte	0
 1498 0051 00       		.byte	0
 1499 0052 06       		.uleb128 0x6
 1500 0053 05       		.uleb128 0x5
 1501 0054 00       		.byte	0
 1502 0055 03       		.uleb128 0x3
ARM GAS  C:\Users\Sam\AppData\Local\Temp\ccfz4KIl.s 			page 29


 1503 0056 0E       		.uleb128 0xe
 1504 0057 3A       		.uleb128 0x3a
 1505 0058 0B       		.uleb128 0xb
 1506 0059 3B       		.uleb128 0x3b
 1507 005a 0B       		.uleb128 0xb
 1508 005b 49       		.uleb128 0x49
 1509 005c 13       		.uleb128 0x13
 1510 005d 02       		.uleb128 0x2
 1511 005e 0A       		.uleb128 0xa
 1512 005f 00       		.byte	0
 1513 0060 00       		.byte	0
 1514 0061 07       		.uleb128 0x7
 1515 0062 34       		.uleb128 0x34
 1516 0063 00       		.byte	0
 1517 0064 03       		.uleb128 0x3
 1518 0065 08       		.uleb128 0x8
 1519 0066 3A       		.uleb128 0x3a
 1520 0067 0B       		.uleb128 0xb
 1521 0068 3B       		.uleb128 0x3b
 1522 0069 0B       		.uleb128 0xb
 1523 006a 49       		.uleb128 0x49
 1524 006b 13       		.uleb128 0x13
 1525 006c 02       		.uleb128 0x2
 1526 006d 0A       		.uleb128 0xa
 1527 006e 00       		.byte	0
 1528 006f 00       		.byte	0
 1529 0070 08       		.uleb128 0x8
 1530 0071 0F       		.uleb128 0xf
 1531 0072 00       		.byte	0
 1532 0073 0B       		.uleb128 0xb
 1533 0074 0B       		.uleb128 0xb
 1534 0075 49       		.uleb128 0x49
 1535 0076 13       		.uleb128 0x13
 1536 0077 00       		.byte	0
 1537 0078 00       		.byte	0
 1538 0079 09       		.uleb128 0x9
 1539 007a 34       		.uleb128 0x34
 1540 007b 00       		.byte	0
 1541 007c 03       		.uleb128 0x3
 1542 007d 0E       		.uleb128 0xe
 1543 007e 3A       		.uleb128 0x3a
 1544 007f 0B       		.uleb128 0xb
 1545 0080 3B       		.uleb128 0x3b
 1546 0081 0B       		.uleb128 0xb
 1547 0082 49       		.uleb128 0x49
 1548 0083 13       		.uleb128 0x13
 1549 0084 02       		.uleb128 0x2
 1550 0085 0A       		.uleb128 0xa
 1551 0086 00       		.byte	0
 1552 0087 00       		.byte	0
 1553 0088 0A       		.uleb128 0xa
 1554 0089 2E       		.uleb128 0x2e
 1555 008a 01       		.byte	0x1
 1556 008b 3F       		.uleb128 0x3f
 1557 008c 0C       		.uleb128 0xc
 1558 008d 03       		.uleb128 0x3
 1559 008e 0E       		.uleb128 0xe
ARM GAS  C:\Users\Sam\AppData\Local\Temp\ccfz4KIl.s 			page 30


 1560 008f 3A       		.uleb128 0x3a
 1561 0090 0B       		.uleb128 0xb
 1562 0091 3B       		.uleb128 0x3b
 1563 0092 0B       		.uleb128 0xb
 1564 0093 27       		.uleb128 0x27
 1565 0094 0C       		.uleb128 0xc
 1566 0095 11       		.uleb128 0x11
 1567 0096 01       		.uleb128 0x1
 1568 0097 12       		.uleb128 0x12
 1569 0098 01       		.uleb128 0x1
 1570 0099 40       		.uleb128 0x40
 1571 009a 06       		.uleb128 0x6
 1572 009b 9642     		.uleb128 0x2116
 1573 009d 0C       		.uleb128 0xc
 1574 009e 00       		.byte	0
 1575 009f 00       		.byte	0
 1576 00a0 00       		.byte	0
 1577              		.section	.debug_loc,"",%progbits
 1578              	.Ldebug_loc0:
 1579              	.LLST0:
 1580 0000 00000000 		.4byte	.LFB33
 1581 0004 02000000 		.4byte	.LCFI0
 1582 0008 0200     		.2byte	0x2
 1583 000a 7D       		.byte	0x7d
 1584 000b 00       		.sleb128 0
 1585 000c 02000000 		.4byte	.LCFI0
 1586 0010 04000000 		.4byte	.LCFI1
 1587 0014 0200     		.2byte	0x2
 1588 0016 7D       		.byte	0x7d
 1589 0017 08       		.sleb128 8
 1590 0018 04000000 		.4byte	.LCFI1
 1591 001c 06000000 		.4byte	.LCFI2
 1592 0020 0200     		.2byte	0x2
 1593 0022 7D       		.byte	0x7d
 1594 0023 18       		.sleb128 24
 1595 0024 06000000 		.4byte	.LCFI2
 1596 0028 94000000 		.4byte	.LFE33
 1597 002c 0200     		.2byte	0x2
 1598 002e 77       		.byte	0x77
 1599 002f 18       		.sleb128 24
 1600 0030 00000000 		.4byte	0
 1601 0034 00000000 		.4byte	0
 1602              	.LLST1:
 1603 0038 00000000 		.4byte	.LFB34
 1604 003c 02000000 		.4byte	.LCFI3
 1605 0040 0200     		.2byte	0x2
 1606 0042 7D       		.byte	0x7d
 1607 0043 00       		.sleb128 0
 1608 0044 02000000 		.4byte	.LCFI3
 1609 0048 04000000 		.4byte	.LCFI4
 1610 004c 0200     		.2byte	0x2
 1611 004e 7D       		.byte	0x7d
 1612 004f 08       		.sleb128 8
 1613 0050 04000000 		.4byte	.LCFI4
 1614 0054 06000000 		.4byte	.LCFI5
 1615 0058 0200     		.2byte	0x2
 1616 005a 7D       		.byte	0x7d
ARM GAS  C:\Users\Sam\AppData\Local\Temp\ccfz4KIl.s 			page 31


 1617 005b 10       		.sleb128 16
 1618 005c 06000000 		.4byte	.LCFI5
 1619 0060 2E000000 		.4byte	.LFE34
 1620 0064 0200     		.2byte	0x2
 1621 0066 77       		.byte	0x77
 1622 0067 10       		.sleb128 16
 1623 0068 00000000 		.4byte	0
 1624 006c 00000000 		.4byte	0
 1625              	.LLST2:
 1626 0070 00000000 		.4byte	.LFB35
 1627 0074 02000000 		.4byte	.LCFI6
 1628 0078 0200     		.2byte	0x2
 1629 007a 7D       		.byte	0x7d
 1630 007b 00       		.sleb128 0
 1631 007c 02000000 		.4byte	.LCFI6
 1632 0080 04000000 		.4byte	.LCFI7
 1633 0084 0200     		.2byte	0x2
 1634 0086 7D       		.byte	0x7d
 1635 0087 0C       		.sleb128 12
 1636 0088 04000000 		.4byte	.LCFI7
 1637 008c 06000000 		.4byte	.LCFI8
 1638 0090 0200     		.2byte	0x2
 1639 0092 7D       		.byte	0x7d
 1640 0093 20       		.sleb128 32
 1641 0094 06000000 		.4byte	.LCFI8
 1642 0098 8A000000 		.4byte	.LFE35
 1643 009c 0200     		.2byte	0x2
 1644 009e 77       		.byte	0x77
 1645 009f 20       		.sleb128 32
 1646 00a0 00000000 		.4byte	0
 1647 00a4 00000000 		.4byte	0
 1648              	.LLST3:
 1649 00a8 00000000 		.4byte	.LFB36
 1650 00ac 02000000 		.4byte	.LCFI9
 1651 00b0 0200     		.2byte	0x2
 1652 00b2 7D       		.byte	0x7d
 1653 00b3 00       		.sleb128 0
 1654 00b4 02000000 		.4byte	.LCFI9
 1655 00b8 04000000 		.4byte	.LCFI10
 1656 00bc 0200     		.2byte	0x2
 1657 00be 7D       		.byte	0x7d
 1658 00bf 08       		.sleb128 8
 1659 00c0 04000000 		.4byte	.LCFI10
 1660 00c4 06000000 		.4byte	.LCFI11
 1661 00c8 0200     		.2byte	0x2
 1662 00ca 7D       		.byte	0x7d
 1663 00cb 10       		.sleb128 16
 1664 00cc 06000000 		.4byte	.LCFI11
 1665 00d0 4C000000 		.4byte	.LFE36
 1666 00d4 0200     		.2byte	0x2
 1667 00d6 77       		.byte	0x77
 1668 00d7 10       		.sleb128 16
 1669 00d8 00000000 		.4byte	0
 1670 00dc 00000000 		.4byte	0
 1671              	.LLST4:
 1672 00e0 00000000 		.4byte	.LFB37
 1673 00e4 02000000 		.4byte	.LCFI12
ARM GAS  C:\Users\Sam\AppData\Local\Temp\ccfz4KIl.s 			page 32


 1674 00e8 0200     		.2byte	0x2
 1675 00ea 7D       		.byte	0x7d
 1676 00eb 00       		.sleb128 0
 1677 00ec 02000000 		.4byte	.LCFI12
 1678 00f0 04000000 		.4byte	.LCFI13
 1679 00f4 0200     		.2byte	0x2
 1680 00f6 7D       		.byte	0x7d
 1681 00f7 08       		.sleb128 8
 1682 00f8 04000000 		.4byte	.LCFI13
 1683 00fc 06000000 		.4byte	.LCFI14
 1684 0100 0200     		.2byte	0x2
 1685 0102 7D       		.byte	0x7d
 1686 0103 18       		.sleb128 24
 1687 0104 06000000 		.4byte	.LCFI14
 1688 0108 72000000 		.4byte	.LFE37
 1689 010c 0200     		.2byte	0x2
 1690 010e 77       		.byte	0x77
 1691 010f 18       		.sleb128 24
 1692 0110 00000000 		.4byte	0
 1693 0114 00000000 		.4byte	0
 1694              	.LLST5:
 1695 0118 00000000 		.4byte	.LFB38
 1696 011c 02000000 		.4byte	.LCFI15
 1697 0120 0200     		.2byte	0x2
 1698 0122 7D       		.byte	0x7d
 1699 0123 00       		.sleb128 0
 1700 0124 02000000 		.4byte	.LCFI15
 1701 0128 04000000 		.4byte	.LCFI16
 1702 012c 0200     		.2byte	0x2
 1703 012e 7D       		.byte	0x7d
 1704 012f 08       		.sleb128 8
 1705 0130 04000000 		.4byte	.LCFI16
 1706 0134 06000000 		.4byte	.LCFI17
 1707 0138 0200     		.2byte	0x2
 1708 013a 7D       		.byte	0x7d
 1709 013b 10       		.sleb128 16
 1710 013c 06000000 		.4byte	.LCFI17
 1711 0140 2C000000 		.4byte	.LFE38
 1712 0144 0200     		.2byte	0x2
 1713 0146 77       		.byte	0x77
 1714 0147 10       		.sleb128 16
 1715 0148 00000000 		.4byte	0
 1716 014c 00000000 		.4byte	0
 1717              	.LLST6:
 1718 0150 00000000 		.4byte	.LFB39
 1719 0154 02000000 		.4byte	.LCFI18
 1720 0158 0200     		.2byte	0x2
 1721 015a 7D       		.byte	0x7d
 1722 015b 00       		.sleb128 0
 1723 015c 02000000 		.4byte	.LCFI18
 1724 0160 04000000 		.4byte	.LCFI19
 1725 0164 0200     		.2byte	0x2
 1726 0166 7D       		.byte	0x7d
 1727 0167 0C       		.sleb128 12
 1728 0168 04000000 		.4byte	.LCFI19
 1729 016c 06000000 		.4byte	.LCFI20
 1730 0170 0200     		.2byte	0x2
ARM GAS  C:\Users\Sam\AppData\Local\Temp\ccfz4KIl.s 			page 33


 1731 0172 7D       		.byte	0x7d
 1732 0173 20       		.sleb128 32
 1733 0174 06000000 		.4byte	.LCFI20
 1734 0178 D6000000 		.4byte	.LFE39
 1735 017c 0200     		.2byte	0x2
 1736 017e 77       		.byte	0x77
 1737 017f 20       		.sleb128 32
 1738 0180 00000000 		.4byte	0
 1739 0184 00000000 		.4byte	0
 1740              	.LLST7:
 1741 0188 00000000 		.4byte	.LFB40
 1742 018c 02000000 		.4byte	.LCFI21
 1743 0190 0200     		.2byte	0x2
 1744 0192 7D       		.byte	0x7d
 1745 0193 00       		.sleb128 0
 1746 0194 02000000 		.4byte	.LCFI21
 1747 0198 04000000 		.4byte	.LCFI22
 1748 019c 0200     		.2byte	0x2
 1749 019e 7D       		.byte	0x7d
 1750 019f 0C       		.sleb128 12
 1751 01a0 04000000 		.4byte	.LCFI22
 1752 01a4 06000000 		.4byte	.LCFI23
 1753 01a8 0200     		.2byte	0x2
 1754 01aa 7D       		.byte	0x7d
 1755 01ab 20       		.sleb128 32
 1756 01ac 06000000 		.4byte	.LCFI23
 1757 01b0 9E000000 		.4byte	.LFE40
 1758 01b4 0200     		.2byte	0x2
 1759 01b6 77       		.byte	0x77
 1760 01b7 20       		.sleb128 32
 1761 01b8 00000000 		.4byte	0
 1762 01bc 00000000 		.4byte	0
 1763              	.LLST8:
 1764 01c0 00000000 		.4byte	.LFB41
 1765 01c4 02000000 		.4byte	.LCFI24
 1766 01c8 0200     		.2byte	0x2
 1767 01ca 7D       		.byte	0x7d
 1768 01cb 00       		.sleb128 0
 1769 01cc 02000000 		.4byte	.LCFI24
 1770 01d0 04000000 		.4byte	.LCFI25
 1771 01d4 0200     		.2byte	0x2
 1772 01d6 7D       		.byte	0x7d
 1773 01d7 08       		.sleb128 8
 1774 01d8 04000000 		.4byte	.LCFI25
 1775 01dc 06000000 		.4byte	.LCFI26
 1776 01e0 0200     		.2byte	0x2
 1777 01e2 7D       		.byte	0x7d
 1778 01e3 18       		.sleb128 24
 1779 01e4 06000000 		.4byte	.LCFI26
 1780 01e8 82000000 		.4byte	.LFE41
 1781 01ec 0200     		.2byte	0x2
 1782 01ee 77       		.byte	0x77
 1783 01ef 18       		.sleb128 24
 1784 01f0 00000000 		.4byte	0
 1785 01f4 00000000 		.4byte	0
 1786              	.LLST9:
 1787 01f8 00000000 		.4byte	.LFB42
ARM GAS  C:\Users\Sam\AppData\Local\Temp\ccfz4KIl.s 			page 34


 1788 01fc 02000000 		.4byte	.LCFI27
 1789 0200 0200     		.2byte	0x2
 1790 0202 7D       		.byte	0x7d
 1791 0203 00       		.sleb128 0
 1792 0204 02000000 		.4byte	.LCFI27
 1793 0208 04000000 		.4byte	.LCFI28
 1794 020c 0200     		.2byte	0x2
 1795 020e 7D       		.byte	0x7d
 1796 020f 08       		.sleb128 8
 1797 0210 04000000 		.4byte	.LCFI28
 1798 0214 06000000 		.4byte	.LCFI29
 1799 0218 0200     		.2byte	0x2
 1800 021a 7D       		.byte	0x7d
 1801 021b 10       		.sleb128 16
 1802 021c 06000000 		.4byte	.LCFI29
 1803 0220 2C000000 		.4byte	.LFE42
 1804 0224 0200     		.2byte	0x2
 1805 0226 77       		.byte	0x77
 1806 0227 10       		.sleb128 16
 1807 0228 00000000 		.4byte	0
 1808 022c 00000000 		.4byte	0
 1809              		.section	.debug_aranges,"",%progbits
 1810 0000 64000000 		.4byte	0x64
 1811 0004 0200     		.2byte	0x2
 1812 0006 00000000 		.4byte	.Ldebug_info0
 1813 000a 04       		.byte	0x4
 1814 000b 00       		.byte	0
 1815 000c 0000     		.2byte	0
 1816 000e 0000     		.2byte	0
 1817 0010 00000000 		.4byte	.LFB33
 1818 0014 94000000 		.4byte	.LFE33-.LFB33
 1819 0018 00000000 		.4byte	.LFB34
 1820 001c 2E000000 		.4byte	.LFE34-.LFB34
 1821 0020 00000000 		.4byte	.LFB35
 1822 0024 8A000000 		.4byte	.LFE35-.LFB35
 1823 0028 00000000 		.4byte	.LFB36
 1824 002c 4C000000 		.4byte	.LFE36-.LFB36
 1825 0030 00000000 		.4byte	.LFB37
 1826 0034 72000000 		.4byte	.LFE37-.LFB37
 1827 0038 00000000 		.4byte	.LFB38
 1828 003c 2C000000 		.4byte	.LFE38-.LFB38
 1829 0040 00000000 		.4byte	.LFB39
 1830 0044 D6000000 		.4byte	.LFE39-.LFB39
 1831 0048 00000000 		.4byte	.LFB40
 1832 004c 9E000000 		.4byte	.LFE40-.LFB40
 1833 0050 00000000 		.4byte	.LFB41
 1834 0054 82000000 		.4byte	.LFE41-.LFB41
 1835 0058 00000000 		.4byte	.LFB42
 1836 005c 2C000000 		.4byte	.LFE42-.LFB42
 1837 0060 00000000 		.4byte	0
 1838 0064 00000000 		.4byte	0
 1839              		.section	.debug_ranges,"",%progbits
 1840              	.Ldebug_ranges0:
 1841 0000 00000000 		.4byte	.LFB33
 1842 0004 94000000 		.4byte	.LFE33
 1843 0008 00000000 		.4byte	.LFB34
 1844 000c 2E000000 		.4byte	.LFE34
ARM GAS  C:\Users\Sam\AppData\Local\Temp\ccfz4KIl.s 			page 35


 1845 0010 00000000 		.4byte	.LFB35
 1846 0014 8A000000 		.4byte	.LFE35
 1847 0018 00000000 		.4byte	.LFB36
 1848 001c 4C000000 		.4byte	.LFE36
 1849 0020 00000000 		.4byte	.LFB37
 1850 0024 72000000 		.4byte	.LFE37
 1851 0028 00000000 		.4byte	.LFB38
 1852 002c 2C000000 		.4byte	.LFE38
 1853 0030 00000000 		.4byte	.LFB39
 1854 0034 D6000000 		.4byte	.LFE39
 1855 0038 00000000 		.4byte	.LFB40
 1856 003c 9E000000 		.4byte	.LFE40
 1857 0040 00000000 		.4byte	.LFB41
 1858 0044 82000000 		.4byte	.LFE41
 1859 0048 00000000 		.4byte	.LFB42
 1860 004c 2C000000 		.4byte	.LFE42
 1861 0050 00000000 		.4byte	0
 1862 0054 00000000 		.4byte	0
 1863              		.section	.debug_line,"",%progbits
 1864              	.Ldebug_line0:
 1865 0000 CB010000 		.section	.debug_str,"MS",%progbits,1
 1865      0200CD00 
 1865      00000201 
 1865      FB0E0D00 
 1865      01010101 
 1866              	.LASF26:
 1867 0000 49324357 		.ascii	"I2CWriteBytes\000"
 1867      72697465 
 1867      42797465 
 1867      7300
 1868              	.LASF18:
 1869 000e 76616C75 		.ascii	"value\000"
 1869      6500
 1870              	.LASF20:
 1871 0014 49324352 		.ascii	"I2CReadByte\000"
 1871      65616442 
 1871      79746500 
 1872              	.LASF11:
 1873 0020 666C6F61 		.ascii	"float\000"
 1873      7400
 1874              	.LASF1:
 1875 0026 756E7369 		.ascii	"unsigned char\000"
 1875      676E6564 
 1875      20636861 
 1875      7200
 1876              	.LASF34:
 1877 0034 49324357 		.ascii	"I2CWriteWord\000"
 1877      72697465 
 1877      576F7264 
 1877      00
 1878              	.LASF24:
 1879 0041 49324352 		.ascii	"I2CReadBit\000"
 1879      65616442 
 1879      697400
 1880              	.LASF16:
 1881 004c 72656741 		.ascii	"regAddr\000"
 1881      64647200 
ARM GAS  C:\Users\Sam\AppData\Local\Temp\ccfz4KIl.s 			page 36


 1882              	.LASF7:
 1883 0054 6C6F6E67 		.ascii	"long unsigned int\000"
 1883      20756E73 
 1883      69676E65 
 1883      6420696E 
 1883      7400
 1884              	.LASF5:
 1885 0066 73686F72 		.ascii	"short unsigned int\000"
 1885      7420756E 
 1885      7369676E 
 1885      65642069 
 1885      6E7400
 1886              	.LASF27:
 1887 0079 49324357 		.ascii	"I2CWriteByte\000"
 1887      72697465 
 1887      42797465 
 1887      00
 1888              	.LASF12:
 1889 0086 646F7562 		.ascii	"double\000"
 1889      6C6500
 1890              	.LASF22:
 1891 008d 62697453 		.ascii	"bitStart\000"
 1891      74617274 
 1891      00
 1892              	.LASF29:
 1893 0096 49324357 		.ascii	"I2CWriteBit\000"
 1893      72697465 
 1893      42697400 
 1894              	.LASF10:
 1895 00a2 756E7369 		.ascii	"unsigned int\000"
 1895      676E6564 
 1895      20696E74 
 1895      00
 1896              	.LASF9:
 1897 00af 6C6F6E67 		.ascii	"long long unsigned int\000"
 1897      206C6F6E 
 1897      6720756E 
 1897      7369676E 
 1897      65642069 
 1898              	.LASF3:
 1899 00c6 75696E74 		.ascii	"uint8_t\000"
 1899      385F7400 
 1900              	.LASF14:
 1901 00ce 73697A65 		.ascii	"sizetype\000"
 1901      74797065 
 1901      00
 1902              	.LASF8:
 1903 00d7 6C6F6E67 		.ascii	"long long int\000"
 1903      206C6F6E 
 1903      6720696E 
 1903      7400
 1904              	.LASF23:
 1905 00e5 6D61736B 		.ascii	"mask\000"
 1905      00
 1906              	.LASF21:
 1907 00ea 49324352 		.ascii	"I2CReadBits\000"
 1907      65616442 
ARM GAS  C:\Users\Sam\AppData\Local\Temp\ccfz4KIl.s 			page 37


 1907      69747300 
 1908              	.LASF2:
 1909 00f6 73686F72 		.ascii	"short int\000"
 1909      7420696E 
 1909      7400
 1910              	.LASF15:
 1911 0100 64657641 		.ascii	"devAddr\000"
 1911      64647200 
 1912              	.LASF4:
 1913 0108 75696E74 		.ascii	"uint16_t\000"
 1913      31365F74 
 1913      00
 1914              	.LASF31:
 1915 0111 474E5520 		.ascii	"GNU C 4.7.3 20130312 (release) [ARM/embedded-4_7-br"
 1915      4320342E 
 1915      372E3320 
 1915      32303133 
 1915      30333132 
 1916 0144 616E6368 		.ascii	"anch revision 196615]\000"
 1916      20726576 
 1916      6973696F 
 1916      6E203139 
 1916      36363135 
 1917              	.LASF30:
 1918 015a 49324357 		.ascii	"I2CWriteWords\000"
 1918      72697465 
 1918      576F7264 
 1918      7300
 1919              	.LASF6:
 1920 0168 6C6F6E67 		.ascii	"long int\000"
 1920      20696E74 
 1920      00
 1921              	.LASF13:
 1922 0171 63686172 		.ascii	"char\000"
 1922      00
 1923              	.LASF19:
 1924 0176 49324352 		.ascii	"I2CReadBytes\000"
 1924      65616442 
 1924      79746573 
 1924      00
 1925              	.LASF0:
 1926 0183 7369676E 		.ascii	"signed char\000"
 1926      65642063 
 1926      68617200 
 1927              	.LASF33:
 1928 018f 433A5C55 		.ascii	"C:\\Users\\Sam\\Documents\\GitHub\\MPU-6050\\Exampl"
 1928      73657273 
 1928      5C53616D 
 1928      5C446F63 
 1928      756D656E 
 1929 01bc 65735C32 		.ascii	"es\\2 MPU-6050-PSoC-CalibrateOffsets\\MPU-6050-PSoC"
 1929      204D5055 
 1929      2D363035 
 1929      302D5053 
 1929      6F432D43 
 1930 01ed 2D43616C 		.ascii	"-CalibrateOffsets.cydsn\000"
 1930      69627261 
ARM GAS  C:\Users\Sam\AppData\Local\Temp\ccfz4KIl.s 			page 38


 1930      74654F66 
 1930      66736574 
 1930      732E6379 
 1931              	.LASF32:
 1932 0205 2E5C6932 		.ascii	".\\i2cFunctions.c\000"
 1932      6346756E 
 1932      6374696F 
 1932      6E732E63 
 1932      00
 1933              	.LASF28:
 1934 0216 49324357 		.ascii	"I2CWriteBits\000"
 1934      72697465 
 1934      42697473 
 1934      00
 1935              	.LASF25:
 1936 0223 6269744E 		.ascii	"bitNum\000"
 1936      756D00
 1937              	.LASF17:
 1938 022a 6C656E67 		.ascii	"length\000"
 1938      746800
 1939              		.ident	"GCC: (GNU Tools for ARM Embedded Processors) 4.7.3 20130312 (release) [ARM/embedded-4_7-br
