ARM GAS  C:\Users\Sam\AppData\Local\Temp\ccLt7Nkp.s 			page 1


   1              		.cpu cortex-m0
   2              		.fpu softvfp
   3              		.eabi_attribute 20, 1
   4              		.eabi_attribute 21, 1
   5              		.eabi_attribute 23, 3
   6              		.eabi_attribute 24, 1
   7              		.eabi_attribute 25, 1
   8              		.eabi_attribute 26, 1
   9              		.eabi_attribute 30, 6
  10              		.eabi_attribute 34, 0
  11              		.eabi_attribute 18, 4
  12              		.code	16
  13              		.file	"main.c"
  14              		.text
  15              	.Ltext0:
  16              		.cfi_sections	.debug_frame
  17              		.comm	devAddr,1,1
  18              		.comm	buffer,22,4
  19              		.comm	buf,200,4
  20              		.global	i
  21              		.bss
  22              		.align	2
  23              		.type	i, %object
  24              		.size	i, 4
  25              	i:
  26 0000 00000000 		.space	4
  27              		.comm	CAX,2,2
  28              		.comm	CAY,2,2
  29              		.comm	CAZ,2,2
  30              		.comm	CGX,2,2
  31              		.comm	CGY,2,2
  32              		.comm	CGZ,2,2
  33              		.comm	CT,2,2
  34              		.comm	AXoff,4,4
  35              		.comm	AYoff,4,4
  36              		.comm	AZoff,4,4
  37              		.comm	GXoff,4,4
  38              		.comm	GYoff,4,4
  39              		.comm	GZoff,4,4
  40              		.section	.rodata
  41              		.align	2
  42              	.LC0:
  43 0000 4D505536 		.ascii	"MPU6050 connection successful\012\015\000"
  43      30353020 
  43      636F6E6E 
  43      65637469 
  43      6F6E2073 
  44              		.align	2
  45              	.LC2:
  46 0020 4D505536 		.ascii	"MPU6050 connection failed\012\012\015\000"
  46      30353020 
  46      636F6E6E 
  46      65637469 
  46      6F6E2066 
  47 003d 000000   		.align	2
  48              	.LC4:
  49 0040 53746172 		.ascii	"Starting to calibrate values from sensor..\012\015\000"
ARM GAS  C:\Users\Sam\AppData\Local\Temp\ccLt7Nkp.s 			page 2


  49      74696E67 
  49      20746F20 
  49      63616C69 
  49      62726174 
  50 006d 000000   		.align	2
  51              	.LC8:
  52 0070 54657374 		.ascii	"Test Number: %d \012\015\000"
  52      204E756D 
  52      6265723A 
  52      20256420 
  52      0A0D00
  53              		.global	__aeabi_i2f
  54              		.global	__aeabi_fadd
  55 0083 00       		.align	2
  56              	.LC23:
  57 0084 41583A25 		.ascii	"AX:%d, AY:%d, AZ:%d || GX:%d, GY:%d, GZ:%d,\011\000"
  57      642C2041 
  57      593A2564 
  57      2C20415A 
  57      3A256420 
  58 00b1 000000   		.align	2
  59              	.LC25:
  60 00b4 0A0D00   		.ascii	"\012\015\000"
  61              		.global	__aeabi_fdiv
  62 00b7 00       		.align	2
  63              	.LC27:
  64 00b8 0A0A5465 		.ascii	"\012\012Test finished, offset values are shown belo"
  64      73742066 
  64      696E6973 
  64      6865642C 
  64      206F6666 
  65 00e5 770A0A0D 		.ascii	"w\012\012\015\000"
  65      00
  66              		.global	__aeabi_f2iz
  67 00ea 0000     		.align	2
  68              	.LC29:
  69 00ec 41586F66 		.ascii	"AXoff:%d, AYoff:%d, AZoff:%d || GXoff:%d, GYoff:%d,"
  69      663A2564 
  69      2C204159 
  69      6F66663A 
  69      25642C20 
  70 011f 20475A6F 		.ascii	" GZoff:%d,\011\000"
  70      66663A25 
  70      642C0900 
  71 012b 00       		.section	.text.main,"ax",%progbits
  72              		.align	2
  73              		.global	main
  74              		.code	16
  75              		.thumb_func
  76              		.type	main, %function
  77              	main:
  78              	.LFB33:
  79              		.file 1 ".\\main.c"
   1:.\main.c      **** /* ========================================
   2:.\main.c      ****  *
   3:.\main.c      ****  * Copyright Samuel Walsh, 2014
   4:.\main.c      ****  * All Rights Reserved
ARM GAS  C:\Users\Sam\AppData\Local\Temp\ccLt7Nkp.s 			page 3


   5:.\main.c      ****  * UNPUBLISHED, LICENSED SOFTWARE.
   6:.\main.c      ****  *
   7:.\main.c      ****  * CONFIDENTIAL AND PROPRIETARY INFORMATION
   8:.\main.c      ****  * WHICH IS THE PROPERTY OF Samuel Walsh.
   9:.\main.c      ****  *
  10:.\main.c      ****  * ========================================
  11:.\main.c      **** */
  12:.\main.c      **** #include <project.h>
  13:.\main.c      **** #include <mpu6050.h>
  14:.\main.c      **** #include <stdio.h>
  15:.\main.c      **** 
  16:.\main.c      **** #define numberOfTests   100
  17:.\main.c      **** 
  18:.\main.c      **** char buf[200]; //just to hold text values in for writing to UART
  19:.\main.c      **** int i = 0; //for loop increment variable
  20:.\main.c      ****    
  21:.\main.c      **** int16_t CAX, CAY, CAZ; //current acceleration values
  22:.\main.c      **** int16_t CGX, CGY, CGZ; //current gyroscope values
  23:.\main.c      **** int16_t CT;            //current temperature
  24:.\main.c      ****    
  25:.\main.c      **** float   AXoff, AYoff, AZoff; //accelerometer offset values
  26:.\main.c      **** float   GXoff, GYoff, GZoff; //gyroscope offset values
  27:.\main.c      ****     
  28:.\main.c      **** int main()
  29:.\main.c      **** { 
  80              		.loc 1 29 0
  81              		.cfi_startproc
  82 0000 F0B5     		push	{r4, r5, r6, r7, lr}
  83              	.LCFI0:
  84              		.cfi_def_cfa_offset 20
  85              		.cfi_offset 4, -20
  86              		.cfi_offset 5, -16
  87              		.cfi_offset 6, -12
  88              		.cfi_offset 7, -8
  89              		.cfi_offset 14, -4
  90 0002 4F46     		mov	r7, r9
  91 0004 4646     		mov	r6, r8
  92 0006 C0B4     		push	{r6, r7}
  93              	.LCFI1:
  94              		.cfi_def_cfa_offset 28
  95              		.cfi_offset 8, -28
  96              		.cfi_offset 9, -24
  97 0008 87B0     		sub	sp, sp, #28
  98              	.LCFI2:
  99              		.cfi_def_cfa_offset 56
 100 000a 04AF     		add	r7, sp, #16
 101              	.LCFI3:
 102              		.cfi_def_cfa 7, 40
  30:.\main.c      **** 	I2C_MPU6050_Start();
 103              		.loc 1 30 0
 104 000c FFF7FEFF 		bl	I2C_MPU6050_Start
  31:.\main.c      **** 	SERIAL_Start();
 105              		.loc 1 31 0
 106 0010 FFF7FEFF 		bl	SERIAL_Start
  32:.\main.c      **** 	
  33:.\main.c      ****     CyGlobalIntEnable;
 107              		.loc 1 33 0
ARM GAS  C:\Users\Sam\AppData\Local\Temp\ccLt7Nkp.s 			page 4


 108              	@ 33 ".\main.c" 1
 109 0014 62B6     		CPSIE   i
 110              	@ 0 "" 2
  34:.\main.c      **** 
  35:.\main.c      **** 	MPU6050_init();
 111              		.loc 1 35 0
 112              		.code	16
 113 0016 FFF7FEFF 		bl	MPU6050_init
  36:.\main.c      **** 	MPU6050_initialize();
 114              		.loc 1 36 0
 115 001a FFF7FEFF 		bl	MPU6050_initialize
  37:.\main.c      **** 	SERIAL_UartPutString(MPU6050_testConnection() ? "MPU6050 connection successful\n\r" : "MPU6050 con
 116              		.loc 1 37 0
 117 001e FFF7FEFF 		bl	MPU6050_testConnection
 118 0022 031C     		mov	r3, r0
 119 0024 002B     		cmp	r3, #0
 120 0026 01D0     		beq	.L2
 121              		.loc 1 37 0 is_stmt 0 discriminator 1
 122 0028 9B4B     		ldr	r3, .L7
 123 002a 00E0     		b	.L3
 124              	.L2:
 125              		.loc 1 37 0 discriminator 2
 126 002c 9B4B     		ldr	r3, .L7+4
 127              	.L3:
 128              		.loc 1 37 0 discriminator 3
 129 002e 181C     		mov	r0, r3
 130 0030 FFF7FEFF 		bl	SERIAL_UartPutString
  38:.\main.c      ****     
  39:.\main.c      ****     SERIAL_UartPutString("Starting to calibrate values from sensor..\n\r");
 131              		.loc 1 39 0 is_stmt 1 discriminator 3
 132 0034 9A4B     		ldr	r3, .L7+8
 133 0036 181C     		mov	r0, r3
 134 0038 FFF7FEFF 		bl	SERIAL_UartPutString
  40:.\main.c      ****      
  41:.\main.c      ****     //Count and average the first n values, defined by numberOfTests above..
  42:.\main.c      ****     for(i=0; i<numberOfTests; i++)
 135              		.loc 1 42 0 discriminator 3
 136 003c 994B     		ldr	r3, .L7+12
 137 003e 0022     		mov	r2, #0
 138 0040 1A60     		str	r2, [r3]
 139 0042 ACE0     		b	.L4
 140              	.L5:
  43:.\main.c      ****     {
  44:.\main.c      ****       sprintf(buf, "Test Number: %d \n\r", i);
 141              		.loc 1 44 0 discriminator 2
 142 0044 974B     		ldr	r3, .L7+12
 143 0046 1B68     		ldr	r3, [r3]
 144 0048 9749     		ldr	r1, .L7+16
 145 004a 984A     		ldr	r2, .L7+20
 146 004c 081C     		mov	r0, r1
 147 004e 111C     		mov	r1, r2
 148 0050 1A1C     		mov	r2, r3
 149 0052 FFF7FEFF 		bl	sprintf
  45:.\main.c      ****       SERIAL_UartPutString(buf);
 150              		.loc 1 45 0 discriminator 2
 151 0056 944B     		ldr	r3, .L7+16
 152 0058 181C     		mov	r0, r3
ARM GAS  C:\Users\Sam\AppData\Local\Temp\ccLt7Nkp.s 			page 5


 153 005a FFF7FEFF 		bl	SERIAL_UartPutString
  46:.\main.c      ****     
  47:.\main.c      ****       MPU6050_getMotion6t(&CAX, &CAY, &CAZ, &CGX, &CGY, &CGZ, &CT);
 154              		.loc 1 47 0 discriminator 2
 155 005e 9448     		ldr	r0, .L7+24
 156 0060 9449     		ldr	r1, .L7+28
 157 0062 954A     		ldr	r2, .L7+32
 158 0064 954B     		ldr	r3, .L7+36
 159 0066 964C     		ldr	r4, .L7+40
 160 0068 0094     		str	r4, [sp]
 161 006a 964C     		ldr	r4, .L7+44
 162 006c 0194     		str	r4, [sp, #4]
 163 006e 964C     		ldr	r4, .L7+48
 164 0070 0294     		str	r4, [sp, #8]
 165 0072 FFF7FEFF 		bl	MPU6050_getMotion6t
  48:.\main.c      ****       AXoff += CAX;
 166              		.loc 1 48 0 discriminator 2
 167 0076 8E4B     		ldr	r3, .L7+24
 168 0078 1B88     		ldrh	r3, [r3]
 169 007a 1BB2     		sxth	r3, r3
 170 007c 181C     		mov	r0, r3
 171 007e FFF7FEFF 		bl	__aeabi_i2f
 172 0082 021C     		add	r2, r0, #0
 173 0084 914B     		ldr	r3, .L7+52
 174 0086 1B68     		ldr	r3, [r3]
 175 0088 101C     		add	r0, r2, #0
 176 008a 191C     		add	r1, r3, #0
 177 008c FFF7FEFF 		bl	__aeabi_fadd
 178 0090 031C     		add	r3, r0, #0
 179 0092 1A1C     		add	r2, r3, #0
 180 0094 8D4B     		ldr	r3, .L7+52
 181 0096 1A60     		str	r2, [r3]
  49:.\main.c      ****       AYoff += CAY;
 182              		.loc 1 49 0 discriminator 2
 183 0098 864B     		ldr	r3, .L7+28
 184 009a 1B88     		ldrh	r3, [r3]
 185 009c 1BB2     		sxth	r3, r3
 186 009e 181C     		mov	r0, r3
 187 00a0 FFF7FEFF 		bl	__aeabi_i2f
 188 00a4 021C     		add	r2, r0, #0
 189 00a6 8A4B     		ldr	r3, .L7+56
 190 00a8 1B68     		ldr	r3, [r3]
 191 00aa 101C     		add	r0, r2, #0
 192 00ac 191C     		add	r1, r3, #0
 193 00ae FFF7FEFF 		bl	__aeabi_fadd
 194 00b2 031C     		add	r3, r0, #0
 195 00b4 1A1C     		add	r2, r3, #0
 196 00b6 864B     		ldr	r3, .L7+56
 197 00b8 1A60     		str	r2, [r3]
  50:.\main.c      ****       AZoff += CAZ;
 198              		.loc 1 50 0 discriminator 2
 199 00ba 7F4B     		ldr	r3, .L7+32
 200 00bc 1B88     		ldrh	r3, [r3]
 201 00be 1BB2     		sxth	r3, r3
 202 00c0 181C     		mov	r0, r3
 203 00c2 FFF7FEFF 		bl	__aeabi_i2f
 204 00c6 021C     		add	r2, r0, #0
ARM GAS  C:\Users\Sam\AppData\Local\Temp\ccLt7Nkp.s 			page 6


 205 00c8 824B     		ldr	r3, .L7+60
 206 00ca 1B68     		ldr	r3, [r3]
 207 00cc 101C     		add	r0, r2, #0
 208 00ce 191C     		add	r1, r3, #0
 209 00d0 FFF7FEFF 		bl	__aeabi_fadd
 210 00d4 031C     		add	r3, r0, #0
 211 00d6 1A1C     		add	r2, r3, #0
 212 00d8 7E4B     		ldr	r3, .L7+60
 213 00da 1A60     		str	r2, [r3]
  51:.\main.c      ****       GXoff += CGX;
 214              		.loc 1 51 0 discriminator 2
 215 00dc 774B     		ldr	r3, .L7+36
 216 00de 1B88     		ldrh	r3, [r3]
 217 00e0 1BB2     		sxth	r3, r3
 218 00e2 181C     		mov	r0, r3
 219 00e4 FFF7FEFF 		bl	__aeabi_i2f
 220 00e8 021C     		add	r2, r0, #0
 221 00ea 7B4B     		ldr	r3, .L7+64
 222 00ec 1B68     		ldr	r3, [r3]
 223 00ee 101C     		add	r0, r2, #0
 224 00f0 191C     		add	r1, r3, #0
 225 00f2 FFF7FEFF 		bl	__aeabi_fadd
 226 00f6 031C     		add	r3, r0, #0
 227 00f8 1A1C     		add	r2, r3, #0
 228 00fa 774B     		ldr	r3, .L7+64
 229 00fc 1A60     		str	r2, [r3]
  52:.\main.c      ****       GYoff += CGY;
 230              		.loc 1 52 0 discriminator 2
 231 00fe 704B     		ldr	r3, .L7+40
 232 0100 1B88     		ldrh	r3, [r3]
 233 0102 1BB2     		sxth	r3, r3
 234 0104 181C     		mov	r0, r3
 235 0106 FFF7FEFF 		bl	__aeabi_i2f
 236 010a 021C     		add	r2, r0, #0
 237 010c 734B     		ldr	r3, .L7+68
 238 010e 1B68     		ldr	r3, [r3]
 239 0110 101C     		add	r0, r2, #0
 240 0112 191C     		add	r1, r3, #0
 241 0114 FFF7FEFF 		bl	__aeabi_fadd
 242 0118 031C     		add	r3, r0, #0
 243 011a 1A1C     		add	r2, r3, #0
 244 011c 6F4B     		ldr	r3, .L7+68
 245 011e 1A60     		str	r2, [r3]
  53:.\main.c      ****       GZoff += CGZ;
 246              		.loc 1 53 0 discriminator 2
 247 0120 684B     		ldr	r3, .L7+44
 248 0122 1B88     		ldrh	r3, [r3]
 249 0124 1BB2     		sxth	r3, r3
 250 0126 181C     		mov	r0, r3
 251 0128 FFF7FEFF 		bl	__aeabi_i2f
 252 012c 021C     		add	r2, r0, #0
 253 012e 6C4B     		ldr	r3, .L7+72
 254 0130 1B68     		ldr	r3, [r3]
 255 0132 101C     		add	r0, r2, #0
 256 0134 191C     		add	r1, r3, #0
 257 0136 FFF7FEFF 		bl	__aeabi_fadd
 258 013a 031C     		add	r3, r0, #0
ARM GAS  C:\Users\Sam\AppData\Local\Temp\ccLt7Nkp.s 			page 7


 259 013c 1A1C     		add	r2, r3, #0
 260 013e 684B     		ldr	r3, .L7+72
 261 0140 1A60     		str	r2, [r3]
  54:.\main.c      ****        
  55:.\main.c      ****       sprintf(buf, "AX:%d, AY:%d, AZ:%d || GX:%d, GY:%d, GZ:%d,\t", CAX,CAY,CAZ,CGX,CGY,CGZ);
 262              		.loc 1 55 0 discriminator 2
 263 0142 5B4B     		ldr	r3, .L7+24
 264 0144 1B88     		ldrh	r3, [r3]
 265 0146 1AB2     		sxth	r2, r3
 266 0148 5A4B     		ldr	r3, .L7+28
 267 014a 1B88     		ldrh	r3, [r3]
 268 014c 18B2     		sxth	r0, r3
 269 014e 7860     		str	r0, [r7, #4]
 270 0150 5949     		ldr	r1, .L7+32
 271 0152 0988     		ldrh	r1, [r1]
 272 0154 0BB2     		sxth	r3, r1
 273 0156 9C46     		mov	ip, r3
 274 0158 5849     		ldr	r1, .L7+36
 275 015a 0988     		ldrh	r1, [r1]
 276 015c 0EB2     		sxth	r6, r1
 277 015e 5849     		ldr	r1, .L7+40
 278 0160 0988     		ldrh	r1, [r1]
 279 0162 0DB2     		sxth	r5, r1
 280 0164 5749     		ldr	r1, .L7+44
 281 0166 0988     		ldrh	r1, [r1]
 282 0168 0CB2     		sxth	r4, r1
 283 016a 4F48     		ldr	r0, .L7+16
 284 016c 5D49     		ldr	r1, .L7+76
 285 016e 6346     		mov	r3, ip
 286 0170 0093     		str	r3, [sp]
 287 0172 0196     		str	r6, [sp, #4]
 288 0174 0295     		str	r5, [sp, #8]
 289 0176 0394     		str	r4, [sp, #12]
 290 0178 7B68     		ldr	r3, [r7, #4]
 291 017a FFF7FEFF 		bl	sprintf
  56:.\main.c      ****       SERIAL_UartPutString(buf);
 292              		.loc 1 56 0 discriminator 2
 293 017e 4A4B     		ldr	r3, .L7+16
 294 0180 181C     		mov	r0, r3
 295 0182 FFF7FEFF 		bl	SERIAL_UartPutString
  57:.\main.c      ****       SERIAL_UartPutString("\n\r");
 296              		.loc 1 57 0 discriminator 2
 297 0186 584B     		ldr	r3, .L7+80
 298 0188 181C     		mov	r0, r3
 299 018a FFF7FEFF 		bl	SERIAL_UartPutString
  58:.\main.c      ****       CyDelay(25);
 300              		.loc 1 58 0 discriminator 2
 301 018e 1920     		mov	r0, #25
 302 0190 FFF7FEFF 		bl	CyDelay
  42:.\main.c      ****     for(i=0; i<numberOfTests; i++)
 303              		.loc 1 42 0 discriminator 2
 304 0194 434B     		ldr	r3, .L7+12
 305 0196 1B68     		ldr	r3, [r3]
 306 0198 5A1C     		add	r2, r3, #1
 307 019a 424B     		ldr	r3, .L7+12
 308 019c 1A60     		str	r2, [r3]
 309              	.L4:
ARM GAS  C:\Users\Sam\AppData\Local\Temp\ccLt7Nkp.s 			page 8


  42:.\main.c      ****     for(i=0; i<numberOfTests; i++)
 310              		.loc 1 42 0 is_stmt 0 discriminator 1
 311 019e 414B     		ldr	r3, .L7+12
 312 01a0 1B68     		ldr	r3, [r3]
 313 01a2 632B     		cmp	r3, #99
 314 01a4 00DC     		bgt	.LCB213
 315 01a6 4DE7     		b	.L5	@long jump
 316              	.LCB213:
  59:.\main.c      ****     }
  60:.\main.c      ****     
  61:.\main.c      ****     AXoff = AXoff/numberOfTests;
 317              		.loc 1 61 0 is_stmt 1
 318 01a8 484B     		ldr	r3, .L7+52
 319 01aa 1B68     		ldr	r3, [r3]
 320 01ac 181C     		add	r0, r3, #0
 321 01ae 4F49     		ldr	r1, .L7+84
 322 01b0 FFF7FEFF 		bl	__aeabi_fdiv
 323 01b4 031C     		add	r3, r0, #0
 324 01b6 1A1C     		add	r2, r3, #0
 325 01b8 444B     		ldr	r3, .L7+52
 326 01ba 1A60     		str	r2, [r3]
  62:.\main.c      ****     AYoff = AYoff/numberOfTests;
 327              		.loc 1 62 0
 328 01bc 444B     		ldr	r3, .L7+56
 329 01be 1B68     		ldr	r3, [r3]
 330 01c0 181C     		add	r0, r3, #0
 331 01c2 4A49     		ldr	r1, .L7+84
 332 01c4 FFF7FEFF 		bl	__aeabi_fdiv
 333 01c8 031C     		add	r3, r0, #0
 334 01ca 1A1C     		add	r2, r3, #0
 335 01cc 404B     		ldr	r3, .L7+56
 336 01ce 1A60     		str	r2, [r3]
  63:.\main.c      ****     AZoff = AZoff/numberOfTests;
 337              		.loc 1 63 0
 338 01d0 404B     		ldr	r3, .L7+60
 339 01d2 1B68     		ldr	r3, [r3]
 340 01d4 181C     		add	r0, r3, #0
 341 01d6 4549     		ldr	r1, .L7+84
 342 01d8 FFF7FEFF 		bl	__aeabi_fdiv
 343 01dc 031C     		add	r3, r0, #0
 344 01de 1A1C     		add	r2, r3, #0
 345 01e0 3C4B     		ldr	r3, .L7+60
 346 01e2 1A60     		str	r2, [r3]
  64:.\main.c      ****     GXoff = GXoff/numberOfTests;
 347              		.loc 1 64 0
 348 01e4 3C4B     		ldr	r3, .L7+64
 349 01e6 1B68     		ldr	r3, [r3]
 350 01e8 181C     		add	r0, r3, #0
 351 01ea 4049     		ldr	r1, .L7+84
 352 01ec FFF7FEFF 		bl	__aeabi_fdiv
 353 01f0 031C     		add	r3, r0, #0
 354 01f2 1A1C     		add	r2, r3, #0
 355 01f4 384B     		ldr	r3, .L7+64
 356 01f6 1A60     		str	r2, [r3]
  65:.\main.c      ****     GYoff = GYoff/numberOfTests;
 357              		.loc 1 65 0
 358 01f8 384B     		ldr	r3, .L7+68
ARM GAS  C:\Users\Sam\AppData\Local\Temp\ccLt7Nkp.s 			page 9


 359 01fa 1B68     		ldr	r3, [r3]
 360 01fc 181C     		add	r0, r3, #0
 361 01fe 3B49     		ldr	r1, .L7+84
 362 0200 FFF7FEFF 		bl	__aeabi_fdiv
 363 0204 031C     		add	r3, r0, #0
 364 0206 1A1C     		add	r2, r3, #0
 365 0208 344B     		ldr	r3, .L7+68
 366 020a 1A60     		str	r2, [r3]
  66:.\main.c      ****     GZoff = GZoff/numberOfTests;
 367              		.loc 1 66 0
 368 020c 344B     		ldr	r3, .L7+72
 369 020e 1B68     		ldr	r3, [r3]
 370 0210 181C     		add	r0, r3, #0
 371 0212 3649     		ldr	r1, .L7+84
 372 0214 FFF7FEFF 		bl	__aeabi_fdiv
 373 0218 031C     		add	r3, r0, #0
 374 021a 1A1C     		add	r2, r3, #0
 375 021c 304B     		ldr	r3, .L7+72
 376 021e 1A60     		str	r2, [r3]
  67:.\main.c      ****     
  68:.\main.c      ****     SERIAL_UartPutString("\n\nTest finished, offset values are shown below\n\n\r");
 377              		.loc 1 68 0
 378 0220 334B     		ldr	r3, .L7+88
 379 0222 181C     		mov	r0, r3
 380 0224 FFF7FEFF 		bl	SERIAL_UartPutString
  69:.\main.c      ****     sprintf(buf, "AXoff:%d, AYoff:%d, AZoff:%d || GXoff:%d, GYoff:%d, GZoff:%d,\t", (int)AXoff,(int
 381              		.loc 1 69 0
 382 0228 284B     		ldr	r3, .L7+52
 383 022a 1B68     		ldr	r3, [r3]
 384 022c 181C     		add	r0, r3, #0
 385 022e FFF7FEFF 		bl	__aeabi_f2iz
 386 0232 051C     		mov	r5, r0
 387 0234 264B     		ldr	r3, .L7+56
 388 0236 1B68     		ldr	r3, [r3]
 389 0238 181C     		add	r0, r3, #0
 390 023a FFF7FEFF 		bl	__aeabi_f2iz
 391 023e 041C     		mov	r4, r0
 392 0240 244B     		ldr	r3, .L7+60
 393 0242 1B68     		ldr	r3, [r3]
 394 0244 181C     		add	r0, r3, #0
 395 0246 FFF7FEFF 		bl	__aeabi_f2iz
 396 024a 8146     		mov	r9, r0
 397 024c 224B     		ldr	r3, .L7+64
 398 024e 1B68     		ldr	r3, [r3]
 399 0250 181C     		add	r0, r3, #0
 400 0252 FFF7FEFF 		bl	__aeabi_f2iz
 401 0256 8046     		mov	r8, r0
 402 0258 204B     		ldr	r3, .L7+68
 403 025a 1B68     		ldr	r3, [r3]
 404 025c 181C     		add	r0, r3, #0
 405 025e FFF7FEFF 		bl	__aeabi_f2iz
 406 0262 061C     		mov	r6, r0
 407 0264 1E4B     		ldr	r3, .L7+72
 408 0266 1B68     		ldr	r3, [r3]
 409 0268 181C     		add	r0, r3, #0
 410 026a FFF7FEFF 		bl	__aeabi_f2iz
 411 026e 011C     		mov	r1, r0
ARM GAS  C:\Users\Sam\AppData\Local\Temp\ccLt7Nkp.s 			page 10


 412 0270 0D4A     		ldr	r2, .L7+16
 413 0272 204B     		ldr	r3, .L7+92
 414 0274 4846     		mov	r0, r9
 415 0276 0090     		str	r0, [sp]
 416 0278 4046     		mov	r0, r8
 417 027a 0190     		str	r0, [sp, #4]
 418 027c 0296     		str	r6, [sp, #8]
 419 027e 0391     		str	r1, [sp, #12]
 420 0280 101C     		mov	r0, r2
 421 0282 191C     		mov	r1, r3
 422 0284 2A1C     		mov	r2, r5
 423 0286 231C     		mov	r3, r4
 424 0288 FFF7FEFF 		bl	sprintf
  70:.\main.c      ****     SERIAL_UartPutString(buf);
 425              		.loc 1 70 0
 426 028c 064B     		ldr	r3, .L7+16
 427 028e 181C     		mov	r0, r3
 428 0290 FFF7FEFF 		bl	SERIAL_UartPutString
 429              	.L6:
  71:.\main.c      ****     
  72:.\main.c      ****     while(1){}
 430              		.loc 1 72 0 discriminator 1
 431 0294 FEE7     		b	.L6
 432              	.L8:
 433 0296 C046     		.align	2
 434              	.L7:
 435 0298 00000000 		.word	.LC0
 436 029c 20000000 		.word	.LC2
 437 02a0 40000000 		.word	.LC4
 438 02a4 00000000 		.word	i
 439 02a8 00000000 		.word	buf
 440 02ac 70000000 		.word	.LC8
 441 02b0 00000000 		.word	CAX
 442 02b4 00000000 		.word	CAY
 443 02b8 00000000 		.word	CAZ
 444 02bc 00000000 		.word	CGX
 445 02c0 00000000 		.word	CGY
 446 02c4 00000000 		.word	CGZ
 447 02c8 00000000 		.word	CT
 448 02cc 00000000 		.word	AXoff
 449 02d0 00000000 		.word	AYoff
 450 02d4 00000000 		.word	AZoff
 451 02d8 00000000 		.word	GXoff
 452 02dc 00000000 		.word	GYoff
 453 02e0 00000000 		.word	GZoff
 454 02e4 84000000 		.word	.LC23
 455 02e8 B4000000 		.word	.LC25
 456 02ec 0000C842 		.word	1120403456
 457 02f0 B8000000 		.word	.LC27
 458 02f4 EC000000 		.word	.LC29
 459              		.cfi_endproc
 460              	.LFE33:
 461              		.size	main, .-main
 462              		.text
 463              	.Letext0:
 464              		.file 2 "c:\\program files (x86)\\cypress\\psoc creator\\3.0\\psoc creator\\import\\gnu_cs\\arm\\4
 465              		.file 3 "./mpu6050.h"
ARM GAS  C:\Users\Sam\AppData\Local\Temp\ccLt7Nkp.s 			page 11

