ARM GAS  C:\Users\Sam\AppData\Local\Temp\cc7p172P.s 			page 1


   1              		.cpu cortex-m0
   2              		.fpu softvfp
   3              		.eabi_attribute 20, 1
   4              		.eabi_attribute 21, 1
   5              		.eabi_attribute 23, 3
   6              		.eabi_attribute 24, 1
   7              		.eabi_attribute 25, 1
   8              		.eabi_attribute 26, 1
   9              		.eabi_attribute 30, 6
  10              		.eabi_attribute 34, 0
  11              		.eabi_attribute 18, 4
  12              		.code	16
  13              		.file	"SERIAL.c"
  14              		.text
  15              	.Ltext0:
  16              		.cfi_sections	.debug_frame
  17              		.global	SERIAL_initVar
  18              		.bss
  19              		.type	SERIAL_initVar, %object
  20              		.size	SERIAL_initVar, 1
  21              	SERIAL_initVar:
  22 0000 00       		.space	1
  23              		.global	SERIAL_customIntrHandler
  24 0001 000000   		.align	2
  25              		.type	SERIAL_customIntrHandler, %object
  26              		.size	SERIAL_customIntrHandler, 4
  27              	SERIAL_customIntrHandler:
  28 0004 00000000 		.space	4
  29              		.section	.text.SERIAL_Init,"ax",%progbits
  30              		.align	2
  31              		.global	SERIAL_Init
  32              		.code	16
  33              		.thumb_func
  34              		.type	SERIAL_Init, %function
  35              	SERIAL_Init:
  36              	.LFB0:
  37              		.file 1 ".\\Generated_Source\\PSoC4\\SERIAL.c"
   1:.\Generated_Source\PSoC4/SERIAL.c **** /*******************************************************************************
   2:.\Generated_Source\PSoC4/SERIAL.c **** * File Name: SERIAL.c
   3:.\Generated_Source\PSoC4/SERIAL.c **** * Version 1.20
   4:.\Generated_Source\PSoC4/SERIAL.c **** *
   5:.\Generated_Source\PSoC4/SERIAL.c **** * Description:
   6:.\Generated_Source\PSoC4/SERIAL.c **** *  This file provides the source code to the API for the SCB Component.
   7:.\Generated_Source\PSoC4/SERIAL.c **** *
   8:.\Generated_Source\PSoC4/SERIAL.c **** * Note:
   9:.\Generated_Source\PSoC4/SERIAL.c **** *
  10:.\Generated_Source\PSoC4/SERIAL.c **** *******************************************************************************
  11:.\Generated_Source\PSoC4/SERIAL.c **** * Copyright 2013-2014, Cypress Semiconductor Corporation.  All rights reserved.
  12:.\Generated_Source\PSoC4/SERIAL.c **** * You may use this file only in accordance with the license, terms, conditions,
  13:.\Generated_Source\PSoC4/SERIAL.c **** * disclaimers, and limitations in the end user license agreement accompanying
  14:.\Generated_Source\PSoC4/SERIAL.c **** * the software package with which this file was provided.
  15:.\Generated_Source\PSoC4/SERIAL.c **** *******************************************************************************/
  16:.\Generated_Source\PSoC4/SERIAL.c **** 
  17:.\Generated_Source\PSoC4/SERIAL.c **** #include "SERIAL_PVT.h"
  18:.\Generated_Source\PSoC4/SERIAL.c **** 
  19:.\Generated_Source\PSoC4/SERIAL.c **** #if(SERIAL_SCB_MODE_I2C_INC)
  20:.\Generated_Source\PSoC4/SERIAL.c ****     #include "SERIAL_I2C_PVT.h"
ARM GAS  C:\Users\Sam\AppData\Local\Temp\cc7p172P.s 			page 2


  21:.\Generated_Source\PSoC4/SERIAL.c **** #endif /* (SERIAL_SCB_MODE_I2C_INC) */
  22:.\Generated_Source\PSoC4/SERIAL.c **** 
  23:.\Generated_Source\PSoC4/SERIAL.c **** #if(SERIAL_SCB_MODE_EZI2C_INC)
  24:.\Generated_Source\PSoC4/SERIAL.c ****     #include "SERIAL_EZI2C_PVT.h"
  25:.\Generated_Source\PSoC4/SERIAL.c **** #endif /* (SERIAL_SCB_MODE_EZI2C_INC) */
  26:.\Generated_Source\PSoC4/SERIAL.c **** 
  27:.\Generated_Source\PSoC4/SERIAL.c **** #if(SERIAL_SCB_MODE_SPI_INC || SERIAL_SCB_MODE_UART_INC)
  28:.\Generated_Source\PSoC4/SERIAL.c ****     #include "SERIAL_SPI_UART_PVT.h"
  29:.\Generated_Source\PSoC4/SERIAL.c **** #endif /* (SERIAL_SCB_MODE_SPI_INC || SERIAL_SCB_MODE_UART_INC) */
  30:.\Generated_Source\PSoC4/SERIAL.c **** 
  31:.\Generated_Source\PSoC4/SERIAL.c **** 
  32:.\Generated_Source\PSoC4/SERIAL.c **** /***************************************
  33:.\Generated_Source\PSoC4/SERIAL.c **** *    Run Time Configuration Vars
  34:.\Generated_Source\PSoC4/SERIAL.c **** ***************************************/
  35:.\Generated_Source\PSoC4/SERIAL.c **** 
  36:.\Generated_Source\PSoC4/SERIAL.c **** /* Stores internal component configuration for unconfigured mode */
  37:.\Generated_Source\PSoC4/SERIAL.c **** #if(SERIAL_SCB_MODE_UNCONFIG_CONST_CFG)
  38:.\Generated_Source\PSoC4/SERIAL.c ****     /* Common config vars */
  39:.\Generated_Source\PSoC4/SERIAL.c ****     uint8 SERIAL_scbMode = SERIAL_SCB_MODE_UNCONFIG;
  40:.\Generated_Source\PSoC4/SERIAL.c ****     uint8 SERIAL_scbEnableWake;
  41:.\Generated_Source\PSoC4/SERIAL.c ****     uint8 SERIAL_scbEnableIntr;
  42:.\Generated_Source\PSoC4/SERIAL.c **** 
  43:.\Generated_Source\PSoC4/SERIAL.c ****     /* I2C config vars */
  44:.\Generated_Source\PSoC4/SERIAL.c ****     uint8 SERIAL_mode;
  45:.\Generated_Source\PSoC4/SERIAL.c ****     uint8 SERIAL_acceptAddr;
  46:.\Generated_Source\PSoC4/SERIAL.c **** 
  47:.\Generated_Source\PSoC4/SERIAL.c ****     /* SPI/UART config vars */
  48:.\Generated_Source\PSoC4/SERIAL.c ****     volatile uint8 * SERIAL_rxBuffer;
  49:.\Generated_Source\PSoC4/SERIAL.c ****     uint8  SERIAL_rxDataBits;
  50:.\Generated_Source\PSoC4/SERIAL.c ****     uint32 SERIAL_rxBufferSize;
  51:.\Generated_Source\PSoC4/SERIAL.c **** 
  52:.\Generated_Source\PSoC4/SERIAL.c ****     volatile uint8 * SERIAL_txBuffer;
  53:.\Generated_Source\PSoC4/SERIAL.c ****     uint8  SERIAL_txDataBits;
  54:.\Generated_Source\PSoC4/SERIAL.c ****     uint32 SERIAL_txBufferSize;
  55:.\Generated_Source\PSoC4/SERIAL.c **** 
  56:.\Generated_Source\PSoC4/SERIAL.c ****     /* EZI2C config vars */
  57:.\Generated_Source\PSoC4/SERIAL.c ****     uint8 SERIAL_numberOfAddr;
  58:.\Generated_Source\PSoC4/SERIAL.c ****     uint8 SERIAL_subAddrSize;
  59:.\Generated_Source\PSoC4/SERIAL.c **** #endif /* (SERIAL_SCB_MODE_UNCONFIG_CONST_CFG) */
  60:.\Generated_Source\PSoC4/SERIAL.c **** 
  61:.\Generated_Source\PSoC4/SERIAL.c **** 
  62:.\Generated_Source\PSoC4/SERIAL.c **** /***************************************
  63:.\Generated_Source\PSoC4/SERIAL.c **** *     Common SCB Vars
  64:.\Generated_Source\PSoC4/SERIAL.c **** ***************************************/
  65:.\Generated_Source\PSoC4/SERIAL.c **** 
  66:.\Generated_Source\PSoC4/SERIAL.c **** uint8 SERIAL_initVar = 0u;
  67:.\Generated_Source\PSoC4/SERIAL.c **** 
  68:.\Generated_Source\PSoC4/SERIAL.c **** #if !defined (CY_REMOVE_SERIAL_CUSTOM_INTR_HANDLER)
  69:.\Generated_Source\PSoC4/SERIAL.c ****     cyisraddress SERIAL_customIntrHandler = NULL;
  70:.\Generated_Source\PSoC4/SERIAL.c **** #endif /* !defined (CY_REMOVE_SERIAL_CUSTOM_INTR_HANDLER) */
  71:.\Generated_Source\PSoC4/SERIAL.c **** 
  72:.\Generated_Source\PSoC4/SERIAL.c **** 
  73:.\Generated_Source\PSoC4/SERIAL.c **** /***************************************
  74:.\Generated_Source\PSoC4/SERIAL.c **** *    Private Function Prototypes
  75:.\Generated_Source\PSoC4/SERIAL.c **** ***************************************/
  76:.\Generated_Source\PSoC4/SERIAL.c **** 
  77:.\Generated_Source\PSoC4/SERIAL.c **** static void SERIAL_ScbEnableIntr(void);
ARM GAS  C:\Users\Sam\AppData\Local\Temp\cc7p172P.s 			page 3


  78:.\Generated_Source\PSoC4/SERIAL.c **** static void SERIAL_ScbModeStop(void);
  79:.\Generated_Source\PSoC4/SERIAL.c **** 
  80:.\Generated_Source\PSoC4/SERIAL.c **** 
  81:.\Generated_Source\PSoC4/SERIAL.c **** /*******************************************************************************
  82:.\Generated_Source\PSoC4/SERIAL.c **** * Function Name: SERIAL_Init
  83:.\Generated_Source\PSoC4/SERIAL.c **** ********************************************************************************
  84:.\Generated_Source\PSoC4/SERIAL.c **** *
  85:.\Generated_Source\PSoC4/SERIAL.c **** * Summary:
  86:.\Generated_Source\PSoC4/SERIAL.c **** *  Initializes the SCB component to operate in one of the selected configurations:
  87:.\Generated_Source\PSoC4/SERIAL.c **** *  I2C, SPI, UART or EZ I2C.
  88:.\Generated_Source\PSoC4/SERIAL.c **** *  When the configuration is set to “Unconfigured SCB”, this function does
  89:.\Generated_Source\PSoC4/SERIAL.c **** *  not do any initialization. Use mode-specific initialization APIs instead:
  90:.\Generated_Source\PSoC4/SERIAL.c **** *  SCB_I2CInit, SCB_SpiInit, SCB_UartInit or SCB_EzI2CInit.
  91:.\Generated_Source\PSoC4/SERIAL.c **** *
  92:.\Generated_Source\PSoC4/SERIAL.c **** * Parameters:
  93:.\Generated_Source\PSoC4/SERIAL.c **** *  None
  94:.\Generated_Source\PSoC4/SERIAL.c **** *
  95:.\Generated_Source\PSoC4/SERIAL.c **** * Return:
  96:.\Generated_Source\PSoC4/SERIAL.c **** *  None
  97:.\Generated_Source\PSoC4/SERIAL.c **** *
  98:.\Generated_Source\PSoC4/SERIAL.c **** *******************************************************************************/
  99:.\Generated_Source\PSoC4/SERIAL.c **** void SERIAL_Init(void)
 100:.\Generated_Source\PSoC4/SERIAL.c **** {
  38              		.loc 1 100 0
  39              		.cfi_startproc
  40 0000 80B5     		push	{r7, lr}
  41              	.LCFI0:
  42              		.cfi_def_cfa_offset 8
  43              		.cfi_offset 7, -8
  44              		.cfi_offset 14, -4
  45 0002 00AF     		add	r7, sp, #0
  46              	.LCFI1:
  47              		.cfi_def_cfa_register 7
 101:.\Generated_Source\PSoC4/SERIAL.c **** #if(SERIAL_SCB_MODE_UNCONFIG_CONST_CFG)
 102:.\Generated_Source\PSoC4/SERIAL.c ****     if(SERIAL_SCB_MODE_UNCONFIG_RUNTM_CFG)
 103:.\Generated_Source\PSoC4/SERIAL.c ****     {
 104:.\Generated_Source\PSoC4/SERIAL.c ****         SERIAL_initVar = 0u; /* Clear init var */
 105:.\Generated_Source\PSoC4/SERIAL.c ****     }
 106:.\Generated_Source\PSoC4/SERIAL.c ****     else
 107:.\Generated_Source\PSoC4/SERIAL.c ****     {
 108:.\Generated_Source\PSoC4/SERIAL.c ****         /* Initialization was done before call */
 109:.\Generated_Source\PSoC4/SERIAL.c ****     }
 110:.\Generated_Source\PSoC4/SERIAL.c **** 
 111:.\Generated_Source\PSoC4/SERIAL.c **** #elif(SERIAL_SCB_MODE_I2C_CONST_CFG)
 112:.\Generated_Source\PSoC4/SERIAL.c ****     SERIAL_I2CInit();
 113:.\Generated_Source\PSoC4/SERIAL.c **** 
 114:.\Generated_Source\PSoC4/SERIAL.c **** #elif(SERIAL_SCB_MODE_SPI_CONST_CFG)
 115:.\Generated_Source\PSoC4/SERIAL.c ****     SERIAL_SpiInit();
 116:.\Generated_Source\PSoC4/SERIAL.c **** 
 117:.\Generated_Source\PSoC4/SERIAL.c **** #elif(SERIAL_SCB_MODE_UART_CONST_CFG)
 118:.\Generated_Source\PSoC4/SERIAL.c ****     SERIAL_UartInit();
  48              		.loc 1 118 0
  49 0004 FFF7FEFF 		bl	SERIAL_UartInit
 119:.\Generated_Source\PSoC4/SERIAL.c **** 
 120:.\Generated_Source\PSoC4/SERIAL.c **** #elif(SERIAL_SCB_MODE_EZI2C_CONST_CFG)
 121:.\Generated_Source\PSoC4/SERIAL.c ****     SERIAL_EzI2CInit();
 122:.\Generated_Source\PSoC4/SERIAL.c **** 
ARM GAS  C:\Users\Sam\AppData\Local\Temp\cc7p172P.s 			page 4


 123:.\Generated_Source\PSoC4/SERIAL.c **** #endif /* (SERIAL_SCB_MODE_UNCONFIG_CONST_CFG) */
 124:.\Generated_Source\PSoC4/SERIAL.c **** }
  50              		.loc 1 124 0
  51 0008 BD46     		mov	sp, r7
  52              		@ sp needed for prologue
  53 000a 80BD     		pop	{r7, pc}
  54              		.cfi_endproc
  55              	.LFE0:
  56              		.size	SERIAL_Init, .-SERIAL_Init
  57              		.section	.text.SERIAL_Enable,"ax",%progbits
  58              		.align	2
  59              		.global	SERIAL_Enable
  60              		.code	16
  61              		.thumb_func
  62              		.type	SERIAL_Enable, %function
  63              	SERIAL_Enable:
  64              	.LFB1:
 125:.\Generated_Source\PSoC4/SERIAL.c **** 
 126:.\Generated_Source\PSoC4/SERIAL.c **** 
 127:.\Generated_Source\PSoC4/SERIAL.c **** /*******************************************************************************
 128:.\Generated_Source\PSoC4/SERIAL.c **** * Function Name: SERIAL_Enable
 129:.\Generated_Source\PSoC4/SERIAL.c **** ********************************************************************************
 130:.\Generated_Source\PSoC4/SERIAL.c **** *
 131:.\Generated_Source\PSoC4/SERIAL.c **** * Summary:
 132:.\Generated_Source\PSoC4/SERIAL.c **** *  Enables the SCB component operation.
 133:.\Generated_Source\PSoC4/SERIAL.c **** *  The SCB configuration should be not changed when the component is enabled.
 134:.\Generated_Source\PSoC4/SERIAL.c **** *  Any configuration changes should be made after disabling the component.
 135:.\Generated_Source\PSoC4/SERIAL.c **** *
 136:.\Generated_Source\PSoC4/SERIAL.c **** * Parameters:
 137:.\Generated_Source\PSoC4/SERIAL.c **** *  None
 138:.\Generated_Source\PSoC4/SERIAL.c **** *
 139:.\Generated_Source\PSoC4/SERIAL.c **** * Return:
 140:.\Generated_Source\PSoC4/SERIAL.c **** *  None
 141:.\Generated_Source\PSoC4/SERIAL.c **** *
 142:.\Generated_Source\PSoC4/SERIAL.c **** *******************************************************************************/
 143:.\Generated_Source\PSoC4/SERIAL.c **** void SERIAL_Enable(void)
 144:.\Generated_Source\PSoC4/SERIAL.c **** {
  65              		.loc 1 144 0
  66              		.cfi_startproc
  67 0000 80B5     		push	{r7, lr}
  68              	.LCFI2:
  69              		.cfi_def_cfa_offset 8
  70              		.cfi_offset 7, -8
  71              		.cfi_offset 14, -4
  72 0002 00AF     		add	r7, sp, #0
  73              	.LCFI3:
  74              		.cfi_def_cfa_register 7
 145:.\Generated_Source\PSoC4/SERIAL.c **** #if(SERIAL_SCB_MODE_UNCONFIG_CONST_CFG)
 146:.\Generated_Source\PSoC4/SERIAL.c ****     /* Enable SCB block, only if it is already configured */
 147:.\Generated_Source\PSoC4/SERIAL.c ****     if(!SERIAL_SCB_MODE_UNCONFIG_RUNTM_CFG)
 148:.\Generated_Source\PSoC4/SERIAL.c ****     {
 149:.\Generated_Source\PSoC4/SERIAL.c ****         SERIAL_CTRL_REG |= SERIAL_CTRL_ENABLED;
 150:.\Generated_Source\PSoC4/SERIAL.c **** 
 151:.\Generated_Source\PSoC4/SERIAL.c ****         SERIAL_ScbEnableIntr();
 152:.\Generated_Source\PSoC4/SERIAL.c ****     }
 153:.\Generated_Source\PSoC4/SERIAL.c **** #else
 154:.\Generated_Source\PSoC4/SERIAL.c ****     SERIAL_CTRL_REG |= SERIAL_CTRL_ENABLED;
ARM GAS  C:\Users\Sam\AppData\Local\Temp\cc7p172P.s 			page 5


  75              		.loc 1 154 0
  76 0004 054B     		ldr	r3, .L3
  77 0006 054A     		ldr	r2, .L3
  78 0008 1268     		ldr	r2, [r2]
  79 000a 8021     		mov	r1, #128
  80 000c 0906     		lsl	r1, r1, #24
  81 000e 0A43     		orr	r2, r1
  82 0010 1A60     		str	r2, [r3]
 155:.\Generated_Source\PSoC4/SERIAL.c **** 
 156:.\Generated_Source\PSoC4/SERIAL.c ****     SERIAL_ScbEnableIntr();
  83              		.loc 1 156 0
  84 0012 FFF7FEFF 		bl	SERIAL_ScbEnableIntr
 157:.\Generated_Source\PSoC4/SERIAL.c **** #endif /* (SERIAL_SCB_MODE_UNCONFIG_CONST_CFG) */
 158:.\Generated_Source\PSoC4/SERIAL.c **** }
  85              		.loc 1 158 0
  86 0016 BD46     		mov	sp, r7
  87              		@ sp needed for prologue
  88 0018 80BD     		pop	{r7, pc}
  89              	.L4:
  90 001a C046     		.align	2
  91              	.L3:
  92 001c 00000640 		.word	1074135040
  93              		.cfi_endproc
  94              	.LFE1:
  95              		.size	SERIAL_Enable, .-SERIAL_Enable
  96              		.section	.text.SERIAL_Start,"ax",%progbits
  97              		.align	2
  98              		.global	SERIAL_Start
  99              		.code	16
 100              		.thumb_func
 101              		.type	SERIAL_Start, %function
 102              	SERIAL_Start:
 103              	.LFB2:
 159:.\Generated_Source\PSoC4/SERIAL.c **** 
 160:.\Generated_Source\PSoC4/SERIAL.c **** 
 161:.\Generated_Source\PSoC4/SERIAL.c **** /*******************************************************************************
 162:.\Generated_Source\PSoC4/SERIAL.c **** * Function Name: SERIAL_Start
 163:.\Generated_Source\PSoC4/SERIAL.c **** ********************************************************************************
 164:.\Generated_Source\PSoC4/SERIAL.c **** *
 165:.\Generated_Source\PSoC4/SERIAL.c **** * Summary:
 166:.\Generated_Source\PSoC4/SERIAL.c **** *  Invokes SCB_Init() and SCB_Enable().
 167:.\Generated_Source\PSoC4/SERIAL.c **** *  After this function call, the component is enabled and ready for operation.
 168:.\Generated_Source\PSoC4/SERIAL.c **** *  When configuration is set to “Unconfigured SCB”, the component must first be
 169:.\Generated_Source\PSoC4/SERIAL.c **** *  initialized to operate in one of the following configurations: I2C, SPI, UART
 170:.\Generated_Source\PSoC4/SERIAL.c **** *  or EZ I2C. Otherwise this function does not enable the component.
 171:.\Generated_Source\PSoC4/SERIAL.c **** *
 172:.\Generated_Source\PSoC4/SERIAL.c **** * Parameters:
 173:.\Generated_Source\PSoC4/SERIAL.c **** *  None
 174:.\Generated_Source\PSoC4/SERIAL.c **** *
 175:.\Generated_Source\PSoC4/SERIAL.c **** * Return:
 176:.\Generated_Source\PSoC4/SERIAL.c **** *  None
 177:.\Generated_Source\PSoC4/SERIAL.c **** *
 178:.\Generated_Source\PSoC4/SERIAL.c **** * Global variables:
 179:.\Generated_Source\PSoC4/SERIAL.c **** *  SERIAL_initVar - used to check initial configuration, modified
 180:.\Generated_Source\PSoC4/SERIAL.c **** *  on first function call.
 181:.\Generated_Source\PSoC4/SERIAL.c **** *
 182:.\Generated_Source\PSoC4/SERIAL.c **** *******************************************************************************/
ARM GAS  C:\Users\Sam\AppData\Local\Temp\cc7p172P.s 			page 6


 183:.\Generated_Source\PSoC4/SERIAL.c **** void SERIAL_Start(void)
 184:.\Generated_Source\PSoC4/SERIAL.c **** {
 104              		.loc 1 184 0
 105              		.cfi_startproc
 106 0000 80B5     		push	{r7, lr}
 107              	.LCFI4:
 108              		.cfi_def_cfa_offset 8
 109              		.cfi_offset 7, -8
 110              		.cfi_offset 14, -4
 111 0002 00AF     		add	r7, sp, #0
 112              	.LCFI5:
 113              		.cfi_def_cfa_register 7
 185:.\Generated_Source\PSoC4/SERIAL.c ****     if(0u == SERIAL_initVar)
 114              		.loc 1 185 0
 115 0004 064B     		ldr	r3, .L7
 116 0006 1B78     		ldrb	r3, [r3]
 117 0008 002B     		cmp	r3, #0
 118 000a 04D1     		bne	.L6
 186:.\Generated_Source\PSoC4/SERIAL.c ****     {
 187:.\Generated_Source\PSoC4/SERIAL.c ****         SERIAL_Init();
 119              		.loc 1 187 0
 120 000c FFF7FEFF 		bl	SERIAL_Init
 188:.\Generated_Source\PSoC4/SERIAL.c ****         SERIAL_initVar = 1u; /* Component was initialized */
 121              		.loc 1 188 0
 122 0010 034B     		ldr	r3, .L7
 123 0012 0122     		mov	r2, #1
 124 0014 1A70     		strb	r2, [r3]
 125              	.L6:
 189:.\Generated_Source\PSoC4/SERIAL.c ****     }
 190:.\Generated_Source\PSoC4/SERIAL.c **** 
 191:.\Generated_Source\PSoC4/SERIAL.c ****     SERIAL_Enable();
 126              		.loc 1 191 0
 127 0016 FFF7FEFF 		bl	SERIAL_Enable
 192:.\Generated_Source\PSoC4/SERIAL.c **** }
 128              		.loc 1 192 0
 129 001a BD46     		mov	sp, r7
 130              		@ sp needed for prologue
 131 001c 80BD     		pop	{r7, pc}
 132              	.L8:
 133 001e C046     		.align	2
 134              	.L7:
 135 0020 00000000 		.word	SERIAL_initVar
 136              		.cfi_endproc
 137              	.LFE2:
 138              		.size	SERIAL_Start, .-SERIAL_Start
 139              		.section	.text.SERIAL_Stop,"ax",%progbits
 140              		.align	2
 141              		.global	SERIAL_Stop
 142              		.code	16
 143              		.thumb_func
 144              		.type	SERIAL_Stop, %function
 145              	SERIAL_Stop:
 146              	.LFB3:
 193:.\Generated_Source\PSoC4/SERIAL.c **** 
 194:.\Generated_Source\PSoC4/SERIAL.c **** 
 195:.\Generated_Source\PSoC4/SERIAL.c **** /*******************************************************************************
 196:.\Generated_Source\PSoC4/SERIAL.c **** * Function Name: SERIAL_Stop
ARM GAS  C:\Users\Sam\AppData\Local\Temp\cc7p172P.s 			page 7


 197:.\Generated_Source\PSoC4/SERIAL.c **** ********************************************************************************
 198:.\Generated_Source\PSoC4/SERIAL.c **** *
 199:.\Generated_Source\PSoC4/SERIAL.c **** * Summary:
 200:.\Generated_Source\PSoC4/SERIAL.c **** *  Disables the SCB component and its interrupt.
 201:.\Generated_Source\PSoC4/SERIAL.c **** *
 202:.\Generated_Source\PSoC4/SERIAL.c **** * Parameters:
 203:.\Generated_Source\PSoC4/SERIAL.c **** *  None
 204:.\Generated_Source\PSoC4/SERIAL.c **** *
 205:.\Generated_Source\PSoC4/SERIAL.c **** * Return:
 206:.\Generated_Source\PSoC4/SERIAL.c **** *  None
 207:.\Generated_Source\PSoC4/SERIAL.c **** *
 208:.\Generated_Source\PSoC4/SERIAL.c **** *******************************************************************************/
 209:.\Generated_Source\PSoC4/SERIAL.c **** void SERIAL_Stop(void)
 210:.\Generated_Source\PSoC4/SERIAL.c **** {
 147              		.loc 1 210 0
 148              		.cfi_startproc
 149 0000 80B5     		push	{r7, lr}
 150              	.LCFI6:
 151              		.cfi_def_cfa_offset 8
 152              		.cfi_offset 7, -8
 153              		.cfi_offset 14, -4
 154 0002 00AF     		add	r7, sp, #0
 155              	.LCFI7:
 156              		.cfi_def_cfa_register 7
 211:.\Generated_Source\PSoC4/SERIAL.c **** #if(SERIAL_SCB_IRQ_INTERNAL)
 212:.\Generated_Source\PSoC4/SERIAL.c ****     SERIAL_DisableInt();
 213:.\Generated_Source\PSoC4/SERIAL.c **** #endif /* (SERIAL_SCB_IRQ_INTERNAL) */
 214:.\Generated_Source\PSoC4/SERIAL.c **** 
 215:.\Generated_Source\PSoC4/SERIAL.c ****     SERIAL_CTRL_REG &= (uint32) ~SERIAL_CTRL_ENABLED;  /* Disable SCB block */
 157              		.loc 1 215 0
 158 0004 044B     		ldr	r3, .L10
 159 0006 044A     		ldr	r2, .L10
 160 0008 1268     		ldr	r2, [r2]
 161 000a 5200     		lsl	r2, r2, #1
 162 000c 5208     		lsr	r2, r2, #1
 163 000e 1A60     		str	r2, [r3]
 216:.\Generated_Source\PSoC4/SERIAL.c **** 
 217:.\Generated_Source\PSoC4/SERIAL.c **** #if(SERIAL_SCB_IRQ_INTERNAL)
 218:.\Generated_Source\PSoC4/SERIAL.c ****     SERIAL_ClearPendingInt();
 219:.\Generated_Source\PSoC4/SERIAL.c **** #endif /* (SERIAL_SCB_IRQ_INTERNAL) */
 220:.\Generated_Source\PSoC4/SERIAL.c **** 
 221:.\Generated_Source\PSoC4/SERIAL.c ****     SERIAL_ScbModeStop(); /* Calls scbMode specific Stop function */
 164              		.loc 1 221 0
 165 0010 FFF7FEFF 		bl	SERIAL_ScbModeStop
 222:.\Generated_Source\PSoC4/SERIAL.c **** }
 166              		.loc 1 222 0
 167 0014 BD46     		mov	sp, r7
 168              		@ sp needed for prologue
 169 0016 80BD     		pop	{r7, pc}
 170              	.L11:
 171              		.align	2
 172              	.L10:
 173 0018 00000640 		.word	1074135040
 174              		.cfi_endproc
 175              	.LFE3:
 176              		.size	SERIAL_Stop, .-SERIAL_Stop
 177              		.section	.text.SERIAL_SetCustomInterruptHandler,"ax",%progbits
ARM GAS  C:\Users\Sam\AppData\Local\Temp\cc7p172P.s 			page 8


 178              		.align	2
 179              		.global	SERIAL_SetCustomInterruptHandler
 180              		.code	16
 181              		.thumb_func
 182              		.type	SERIAL_SetCustomInterruptHandler, %function
 183              	SERIAL_SetCustomInterruptHandler:
 184              	.LFB4:
 223:.\Generated_Source\PSoC4/SERIAL.c **** 
 224:.\Generated_Source\PSoC4/SERIAL.c **** 
 225:.\Generated_Source\PSoC4/SERIAL.c **** /*******************************************************************************
 226:.\Generated_Source\PSoC4/SERIAL.c **** * Function Name: SERIAL_SetCustomInterruptHandler
 227:.\Generated_Source\PSoC4/SERIAL.c **** ********************************************************************************
 228:.\Generated_Source\PSoC4/SERIAL.c **** *
 229:.\Generated_Source\PSoC4/SERIAL.c **** * Summary:
 230:.\Generated_Source\PSoC4/SERIAL.c **** *  Registers a function to be called by the internal interrupt handler.
 231:.\Generated_Source\PSoC4/SERIAL.c **** *  First the function that is registered is called, then the internal interrupt
 232:.\Generated_Source\PSoC4/SERIAL.c **** *  handler performs any operations such as software buffer management functions
 233:.\Generated_Source\PSoC4/SERIAL.c **** *  before the interrupt returns.  It is the user's responsibility not to break the
 234:.\Generated_Source\PSoC4/SERIAL.c **** *  software buffer operations. Only one custom handler is supported, which is
 235:.\Generated_Source\PSoC4/SERIAL.c **** *  the function provided by the most recent call.
 236:.\Generated_Source\PSoC4/SERIAL.c **** *  At initialization time no custom handler is registered.
 237:.\Generated_Source\PSoC4/SERIAL.c **** *
 238:.\Generated_Source\PSoC4/SERIAL.c **** * Parameters:
 239:.\Generated_Source\PSoC4/SERIAL.c **** *  func: Pointer to the function to register.
 240:.\Generated_Source\PSoC4/SERIAL.c **** *        The value NULL indicates to remove the current custom interrupt
 241:.\Generated_Source\PSoC4/SERIAL.c **** *        handler.
 242:.\Generated_Source\PSoC4/SERIAL.c **** *
 243:.\Generated_Source\PSoC4/SERIAL.c **** * Return:
 244:.\Generated_Source\PSoC4/SERIAL.c **** *  None
 245:.\Generated_Source\PSoC4/SERIAL.c **** *
 246:.\Generated_Source\PSoC4/SERIAL.c **** *******************************************************************************/
 247:.\Generated_Source\PSoC4/SERIAL.c **** void SERIAL_SetCustomInterruptHandler(cyisraddress func)
 248:.\Generated_Source\PSoC4/SERIAL.c **** {
 185              		.loc 1 248 0
 186              		.cfi_startproc
 187 0000 80B5     		push	{r7, lr}
 188              	.LCFI8:
 189              		.cfi_def_cfa_offset 8
 190              		.cfi_offset 7, -8
 191              		.cfi_offset 14, -4
 192 0002 82B0     		sub	sp, sp, #8
 193              	.LCFI9:
 194              		.cfi_def_cfa_offset 16
 195 0004 00AF     		add	r7, sp, #0
 196              	.LCFI10:
 197              		.cfi_def_cfa_register 7
 198 0006 7860     		str	r0, [r7, #4]
 249:.\Generated_Source\PSoC4/SERIAL.c **** #if !defined (CY_REMOVE_SERIAL_CUSTOM_INTR_HANDLER)
 250:.\Generated_Source\PSoC4/SERIAL.c ****     SERIAL_customIntrHandler = func; /* Register interrupt handler */
 199              		.loc 1 250 0
 200 0008 024B     		ldr	r3, .L13
 201 000a 7A68     		ldr	r2, [r7, #4]
 202 000c 1A60     		str	r2, [r3]
 251:.\Generated_Source\PSoC4/SERIAL.c **** #else
 252:.\Generated_Source\PSoC4/SERIAL.c ****     if(NULL != func)
 253:.\Generated_Source\PSoC4/SERIAL.c ****     {
 254:.\Generated_Source\PSoC4/SERIAL.c ****         /* Suppress compiler warning */
ARM GAS  C:\Users\Sam\AppData\Local\Temp\cc7p172P.s 			page 9


 255:.\Generated_Source\PSoC4/SERIAL.c ****     }
 256:.\Generated_Source\PSoC4/SERIAL.c **** #endif /* !defined (CY_REMOVE_SERIAL_CUSTOM_INTR_HANDLER) */
 257:.\Generated_Source\PSoC4/SERIAL.c **** }
 203              		.loc 1 257 0
 204 000e BD46     		mov	sp, r7
 205 0010 02B0     		add	sp, sp, #8
 206              		@ sp needed for prologue
 207 0012 80BD     		pop	{r7, pc}
 208              	.L14:
 209              		.align	2
 210              	.L13:
 211 0014 00000000 		.word	SERIAL_customIntrHandler
 212              		.cfi_endproc
 213              	.LFE4:
 214              		.size	SERIAL_SetCustomInterruptHandler, .-SERIAL_SetCustomInterruptHandler
 215              		.section	.text.SERIAL_ScbEnableIntr,"ax",%progbits
 216              		.align	2
 217              		.code	16
 218              		.thumb_func
 219              		.type	SERIAL_ScbEnableIntr, %function
 220              	SERIAL_ScbEnableIntr:
 221              	.LFB5:
 258:.\Generated_Source\PSoC4/SERIAL.c **** 
 259:.\Generated_Source\PSoC4/SERIAL.c **** 
 260:.\Generated_Source\PSoC4/SERIAL.c **** /*******************************************************************************
 261:.\Generated_Source\PSoC4/SERIAL.c **** * Function Name: SERIAL_ScbModeEnableIntr
 262:.\Generated_Source\PSoC4/SERIAL.c **** ********************************************************************************
 263:.\Generated_Source\PSoC4/SERIAL.c **** *
 264:.\Generated_Source\PSoC4/SERIAL.c **** * Summary:
 265:.\Generated_Source\PSoC4/SERIAL.c **** *  Enables an interrupt for a specific mode.
 266:.\Generated_Source\PSoC4/SERIAL.c **** *
 267:.\Generated_Source\PSoC4/SERIAL.c **** * Parameters:
 268:.\Generated_Source\PSoC4/SERIAL.c **** *  None
 269:.\Generated_Source\PSoC4/SERIAL.c **** *
 270:.\Generated_Source\PSoC4/SERIAL.c **** * Return:
 271:.\Generated_Source\PSoC4/SERIAL.c **** *  None
 272:.\Generated_Source\PSoC4/SERIAL.c **** *
 273:.\Generated_Source\PSoC4/SERIAL.c **** *******************************************************************************/
 274:.\Generated_Source\PSoC4/SERIAL.c **** static void SERIAL_ScbEnableIntr(void)
 275:.\Generated_Source\PSoC4/SERIAL.c **** {
 222              		.loc 1 275 0
 223              		.cfi_startproc
 224 0000 80B5     		push	{r7, lr}
 225              	.LCFI11:
 226              		.cfi_def_cfa_offset 8
 227              		.cfi_offset 7, -8
 228              		.cfi_offset 14, -4
 229 0002 00AF     		add	r7, sp, #0
 230              	.LCFI12:
 231              		.cfi_def_cfa_register 7
 276:.\Generated_Source\PSoC4/SERIAL.c **** #if(SERIAL_SCB_IRQ_INTERNAL)
 277:.\Generated_Source\PSoC4/SERIAL.c ****     #if(SERIAL_SCB_MODE_UNCONFIG_CONST_CFG)
 278:.\Generated_Source\PSoC4/SERIAL.c ****         /* Enable interrupt in the NVIC */
 279:.\Generated_Source\PSoC4/SERIAL.c ****         if(0u != SERIAL_scbEnableIntr)
 280:.\Generated_Source\PSoC4/SERIAL.c ****         {
 281:.\Generated_Source\PSoC4/SERIAL.c ****             SERIAL_EnableInt();
 282:.\Generated_Source\PSoC4/SERIAL.c ****         }
ARM GAS  C:\Users\Sam\AppData\Local\Temp\cc7p172P.s 			page 10


 283:.\Generated_Source\PSoC4/SERIAL.c ****     #else
 284:.\Generated_Source\PSoC4/SERIAL.c ****         SERIAL_EnableInt();
 285:.\Generated_Source\PSoC4/SERIAL.c **** 
 286:.\Generated_Source\PSoC4/SERIAL.c ****     #endif /* (SERIAL_SCB_MODE_UNCONFIG_CONST_CFG) */
 287:.\Generated_Source\PSoC4/SERIAL.c **** #endif /* (SERIAL_SCB_IRQ_INTERNAL) */
 288:.\Generated_Source\PSoC4/SERIAL.c **** }
 232              		.loc 1 288 0
 233 0004 BD46     		mov	sp, r7
 234              		@ sp needed for prologue
 235 0006 80BD     		pop	{r7, pc}
 236              		.cfi_endproc
 237              	.LFE5:
 238              		.size	SERIAL_ScbEnableIntr, .-SERIAL_ScbEnableIntr
 239              		.section	.text.SERIAL_ScbModeStop,"ax",%progbits
 240              		.align	2
 241              		.code	16
 242              		.thumb_func
 243              		.type	SERIAL_ScbModeStop, %function
 244              	SERIAL_ScbModeStop:
 245              	.LFB6:
 289:.\Generated_Source\PSoC4/SERIAL.c **** 
 290:.\Generated_Source\PSoC4/SERIAL.c **** 
 291:.\Generated_Source\PSoC4/SERIAL.c **** /*******************************************************************************
 292:.\Generated_Source\PSoC4/SERIAL.c **** * Function Name: SERIAL_ScbModeStop
 293:.\Generated_Source\PSoC4/SERIAL.c **** ********************************************************************************
 294:.\Generated_Source\PSoC4/SERIAL.c **** *
 295:.\Generated_Source\PSoC4/SERIAL.c **** * Summary:
 296:.\Generated_Source\PSoC4/SERIAL.c **** *  Calls the Stop function for a specific operation mode.
 297:.\Generated_Source\PSoC4/SERIAL.c **** *
 298:.\Generated_Source\PSoC4/SERIAL.c **** * Parameters:
 299:.\Generated_Source\PSoC4/SERIAL.c **** *  None
 300:.\Generated_Source\PSoC4/SERIAL.c **** *
 301:.\Generated_Source\PSoC4/SERIAL.c **** * Return:
 302:.\Generated_Source\PSoC4/SERIAL.c **** *  None
 303:.\Generated_Source\PSoC4/SERIAL.c **** *
 304:.\Generated_Source\PSoC4/SERIAL.c **** *******************************************************************************/
 305:.\Generated_Source\PSoC4/SERIAL.c **** static void SERIAL_ScbModeStop(void)
 306:.\Generated_Source\PSoC4/SERIAL.c **** {
 246              		.loc 1 306 0
 247              		.cfi_startproc
 248 0000 80B5     		push	{r7, lr}
 249              	.LCFI13:
 250              		.cfi_def_cfa_offset 8
 251              		.cfi_offset 7, -8
 252              		.cfi_offset 14, -4
 253 0002 00AF     		add	r7, sp, #0
 254              	.LCFI14:
 255              		.cfi_def_cfa_register 7
 307:.\Generated_Source\PSoC4/SERIAL.c **** #if(SERIAL_SCB_MODE_UNCONFIG_CONST_CFG)
 308:.\Generated_Source\PSoC4/SERIAL.c ****     if(SERIAL_SCB_MODE_I2C_RUNTM_CFG)
 309:.\Generated_Source\PSoC4/SERIAL.c ****     {
 310:.\Generated_Source\PSoC4/SERIAL.c ****         SERIAL_I2CStop();
 311:.\Generated_Source\PSoC4/SERIAL.c ****     }
 312:.\Generated_Source\PSoC4/SERIAL.c ****     else if(SERIAL_SCB_MODE_EZI2C_RUNTM_CFG)
 313:.\Generated_Source\PSoC4/SERIAL.c ****     {
 314:.\Generated_Source\PSoC4/SERIAL.c ****         SERIAL_EzI2CStop();
 315:.\Generated_Source\PSoC4/SERIAL.c ****     }
ARM GAS  C:\Users\Sam\AppData\Local\Temp\cc7p172P.s 			page 11


 316:.\Generated_Source\PSoC4/SERIAL.c ****     else
 317:.\Generated_Source\PSoC4/SERIAL.c ****     {
 318:.\Generated_Source\PSoC4/SERIAL.c ****         /* Do nohing for other modes */
 319:.\Generated_Source\PSoC4/SERIAL.c ****     }
 320:.\Generated_Source\PSoC4/SERIAL.c **** #elif(SERIAL_SCB_MODE_I2C_CONST_CFG)
 321:.\Generated_Source\PSoC4/SERIAL.c ****     SERIAL_I2CStop();
 322:.\Generated_Source\PSoC4/SERIAL.c **** 
 323:.\Generated_Source\PSoC4/SERIAL.c **** #elif(SERIAL_SCB_MODE_EZI2C_CONST_CFG)
 324:.\Generated_Source\PSoC4/SERIAL.c ****     SERIAL_EzI2CStop();
 325:.\Generated_Source\PSoC4/SERIAL.c **** 
 326:.\Generated_Source\PSoC4/SERIAL.c **** #endif /* (SERIAL_SCB_MODE_UNCONFIG_CONST_CFG) */
 327:.\Generated_Source\PSoC4/SERIAL.c **** }
 256              		.loc 1 327 0
 257 0004 BD46     		mov	sp, r7
 258              		@ sp needed for prologue
 259 0006 80BD     		pop	{r7, pc}
 260              		.cfi_endproc
 261              	.LFE6:
 262              		.size	SERIAL_ScbModeStop, .-SERIAL_ScbModeStop
 263              		.text
 264              	.Letext0:
 265              		.file 2 "./Generated_Source/PSoC4/cytypes.h"