ARM GAS  C:\Users\Sam\AppData\Local\Temp\cchFDXAg.s 			page 1


   1              		.cpu cortex-m0
   2              		.fpu softvfp
   3              		.eabi_attribute 20, 1
   4              		.eabi_attribute 21, 1
   5              		.eabi_attribute 23, 3
   6              		.eabi_attribute 24, 1
   7              		.eabi_attribute 25, 1
   8              		.eabi_attribute 26, 1
   9              		.eabi_attribute 30, 6
  10              		.eabi_attribute 34, 0
  11              		.eabi_attribute 18, 4
  12              		.code	16
  13              		.file	"SERIAL_UART.c"
  14              		.text
  15              	.Ltext0:
  16              		.cfi_sections	.debug_frame
  17              		.section	.text.SERIAL_UartInit,"ax",%progbits
  18              		.align	2
  19              		.global	SERIAL_UartInit
  20              		.code	16
  21              		.thumb_func
  22              		.type	SERIAL_UartInit, %function
  23              	SERIAL_UartInit:
  24              	.LFB0:
  25              		.file 1 ".\\Generated_Source\\PSoC4\\SERIAL_UART.c"
   1:.\Generated_Source\PSoC4/SERIAL_UART.c **** /*******************************************************************************
   2:.\Generated_Source\PSoC4/SERIAL_UART.c **** * File Name: SERIAL_UART.c
   3:.\Generated_Source\PSoC4/SERIAL_UART.c **** * Version 1.20
   4:.\Generated_Source\PSoC4/SERIAL_UART.c **** *
   5:.\Generated_Source\PSoC4/SERIAL_UART.c **** * Description:
   6:.\Generated_Source\PSoC4/SERIAL_UART.c **** *  This file provides the source code to the API for the SCB Component in
   7:.\Generated_Source\PSoC4/SERIAL_UART.c **** *  UART mode.
   8:.\Generated_Source\PSoC4/SERIAL_UART.c **** *
   9:.\Generated_Source\PSoC4/SERIAL_UART.c **** * Note:
  10:.\Generated_Source\PSoC4/SERIAL_UART.c **** *
  11:.\Generated_Source\PSoC4/SERIAL_UART.c **** *******************************************************************************
  12:.\Generated_Source\PSoC4/SERIAL_UART.c **** * Copyright 2013-2014, Cypress Semiconductor Corporation.  All rights reserved.
  13:.\Generated_Source\PSoC4/SERIAL_UART.c **** * You may use this file only in accordance with the license, terms, conditions,
  14:.\Generated_Source\PSoC4/SERIAL_UART.c **** * disclaimers, and limitations in the end user license agreement accompanying
  15:.\Generated_Source\PSoC4/SERIAL_UART.c **** * the software package with which this file was provided.
  16:.\Generated_Source\PSoC4/SERIAL_UART.c **** *******************************************************************************/
  17:.\Generated_Source\PSoC4/SERIAL_UART.c **** 
  18:.\Generated_Source\PSoC4/SERIAL_UART.c **** #include "SERIAL_PVT.h"
  19:.\Generated_Source\PSoC4/SERIAL_UART.c **** #include "SERIAL_SPI_UART_PVT.h"
  20:.\Generated_Source\PSoC4/SERIAL_UART.c **** 
  21:.\Generated_Source\PSoC4/SERIAL_UART.c **** 
  22:.\Generated_Source\PSoC4/SERIAL_UART.c **** #if(SERIAL_SCB_MODE_UNCONFIG_CONST_CFG)
  23:.\Generated_Source\PSoC4/SERIAL_UART.c **** 
  24:.\Generated_Source\PSoC4/SERIAL_UART.c ****     /***************************************
  25:.\Generated_Source\PSoC4/SERIAL_UART.c ****     *  Config Structure Initialization
  26:.\Generated_Source\PSoC4/SERIAL_UART.c ****     ***************************************/
  27:.\Generated_Source\PSoC4/SERIAL_UART.c **** 
  28:.\Generated_Source\PSoC4/SERIAL_UART.c ****     const SERIAL_UART_INIT_STRUCT SERIAL_configUart =
  29:.\Generated_Source\PSoC4/SERIAL_UART.c ****     {
  30:.\Generated_Source\PSoC4/SERIAL_UART.c ****         SERIAL_UART_SUB_MODE,
  31:.\Generated_Source\PSoC4/SERIAL_UART.c ****         SERIAL_UART_DIRECTION,
  32:.\Generated_Source\PSoC4/SERIAL_UART.c ****         SERIAL_UART_DATA_BITS_NUM,
ARM GAS  C:\Users\Sam\AppData\Local\Temp\cchFDXAg.s 			page 2


  33:.\Generated_Source\PSoC4/SERIAL_UART.c ****         SERIAL_UART_PARITY_TYPE,
  34:.\Generated_Source\PSoC4/SERIAL_UART.c ****         SERIAL_UART_STOP_BITS_NUM,
  35:.\Generated_Source\PSoC4/SERIAL_UART.c ****         SERIAL_UART_OVS_FACTOR,
  36:.\Generated_Source\PSoC4/SERIAL_UART.c ****         SERIAL_UART_IRDA_LOW_POWER,
  37:.\Generated_Source\PSoC4/SERIAL_UART.c ****         SERIAL_UART_MEDIAN_FILTER_ENABLE,
  38:.\Generated_Source\PSoC4/SERIAL_UART.c ****         SERIAL_UART_RETRY_ON_NACK,
  39:.\Generated_Source\PSoC4/SERIAL_UART.c ****         SERIAL_UART_IRDA_POLARITY,
  40:.\Generated_Source\PSoC4/SERIAL_UART.c ****         SERIAL_UART_DROP_ON_PARITY_ERR,
  41:.\Generated_Source\PSoC4/SERIAL_UART.c ****         SERIAL_UART_DROP_ON_FRAME_ERR,
  42:.\Generated_Source\PSoC4/SERIAL_UART.c ****         SERIAL_UART_WAKE_ENABLE,
  43:.\Generated_Source\PSoC4/SERIAL_UART.c ****         0u,
  44:.\Generated_Source\PSoC4/SERIAL_UART.c ****         NULL,
  45:.\Generated_Source\PSoC4/SERIAL_UART.c ****         0u,
  46:.\Generated_Source\PSoC4/SERIAL_UART.c ****         NULL,
  47:.\Generated_Source\PSoC4/SERIAL_UART.c ****         SERIAL_UART_MP_MODE_ENABLE,
  48:.\Generated_Source\PSoC4/SERIAL_UART.c ****         SERIAL_UART_MP_ACCEPT_ADDRESS,
  49:.\Generated_Source\PSoC4/SERIAL_UART.c ****         SERIAL_UART_MP_RX_ADDRESS,
  50:.\Generated_Source\PSoC4/SERIAL_UART.c ****         SERIAL_UART_MP_RX_ADDRESS_MASK,
  51:.\Generated_Source\PSoC4/SERIAL_UART.c ****         (uint32) SERIAL_SCB_IRQ_INTERNAL,
  52:.\Generated_Source\PSoC4/SERIAL_UART.c ****         SERIAL_UART_INTR_RX_MASK,
  53:.\Generated_Source\PSoC4/SERIAL_UART.c ****         SERIAL_UART_RX_TRIGGER_LEVEL,
  54:.\Generated_Source\PSoC4/SERIAL_UART.c ****         SERIAL_UART_INTR_TX_MASK,
  55:.\Generated_Source\PSoC4/SERIAL_UART.c ****         SERIAL_UART_TX_TRIGGER_LEVEL
  56:.\Generated_Source\PSoC4/SERIAL_UART.c ****     };
  57:.\Generated_Source\PSoC4/SERIAL_UART.c **** 
  58:.\Generated_Source\PSoC4/SERIAL_UART.c **** 
  59:.\Generated_Source\PSoC4/SERIAL_UART.c ****     /*******************************************************************************
  60:.\Generated_Source\PSoC4/SERIAL_UART.c ****     * Function Name: SERIAL_UartInit
  61:.\Generated_Source\PSoC4/SERIAL_UART.c ****     ********************************************************************************
  62:.\Generated_Source\PSoC4/SERIAL_UART.c ****     *
  63:.\Generated_Source\PSoC4/SERIAL_UART.c ****     * Summary:
  64:.\Generated_Source\PSoC4/SERIAL_UART.c ****     *  Configures the SCB for the UART operation.
  65:.\Generated_Source\PSoC4/SERIAL_UART.c ****     *
  66:.\Generated_Source\PSoC4/SERIAL_UART.c ****     * Parameters:
  67:.\Generated_Source\PSoC4/SERIAL_UART.c ****     *  config:  Pointer to a structure that contains the following ordered list of
  68:.\Generated_Source\PSoC4/SERIAL_UART.c ****     *           fields. These fields match the selections available in the
  69:.\Generated_Source\PSoC4/SERIAL_UART.c ****     *           customizer.
  70:.\Generated_Source\PSoC4/SERIAL_UART.c ****     *
  71:.\Generated_Source\PSoC4/SERIAL_UART.c ****     * Return:
  72:.\Generated_Source\PSoC4/SERIAL_UART.c ****     *  None
  73:.\Generated_Source\PSoC4/SERIAL_UART.c ****     *
  74:.\Generated_Source\PSoC4/SERIAL_UART.c ****     *******************************************************************************/
  75:.\Generated_Source\PSoC4/SERIAL_UART.c ****     void SERIAL_UartInit(const SERIAL_UART_INIT_STRUCT *config)
  76:.\Generated_Source\PSoC4/SERIAL_UART.c ****     {
  77:.\Generated_Source\PSoC4/SERIAL_UART.c ****         if(NULL == config)
  78:.\Generated_Source\PSoC4/SERIAL_UART.c ****         {
  79:.\Generated_Source\PSoC4/SERIAL_UART.c ****             CYASSERT(0u != 0u); /* Halt execution due bad function parameter */
  80:.\Generated_Source\PSoC4/SERIAL_UART.c ****         }
  81:.\Generated_Source\PSoC4/SERIAL_UART.c ****         else
  82:.\Generated_Source\PSoC4/SERIAL_UART.c ****         {
  83:.\Generated_Source\PSoC4/SERIAL_UART.c ****             /* Configure pins */
  84:.\Generated_Source\PSoC4/SERIAL_UART.c ****             SERIAL_SetPins(SERIAL_SCB_MODE_UART, config->mode, config->direction);
  85:.\Generated_Source\PSoC4/SERIAL_UART.c **** 
  86:.\Generated_Source\PSoC4/SERIAL_UART.c ****             /* Store internal configuration */
  87:.\Generated_Source\PSoC4/SERIAL_UART.c ****             SERIAL_scbMode       = (uint8) SERIAL_SCB_MODE_UART;
  88:.\Generated_Source\PSoC4/SERIAL_UART.c ****             SERIAL_scbEnableWake = (uint8) config->enableWake;
  89:.\Generated_Source\PSoC4/SERIAL_UART.c ****             SERIAL_scbEnableIntr = (uint8) config->enableInterrupt;
ARM GAS  C:\Users\Sam\AppData\Local\Temp\cchFDXAg.s 			page 3


  90:.\Generated_Source\PSoC4/SERIAL_UART.c **** 
  91:.\Generated_Source\PSoC4/SERIAL_UART.c ****             /* Set RX direction internal variables */
  92:.\Generated_Source\PSoC4/SERIAL_UART.c ****             SERIAL_rxBuffer      =         config->rxBuffer;
  93:.\Generated_Source\PSoC4/SERIAL_UART.c ****             SERIAL_rxDataBits    = (uint8) config->dataBits;
  94:.\Generated_Source\PSoC4/SERIAL_UART.c ****             SERIAL_rxBufferSize  = (uint8) config->rxBufferSize;
  95:.\Generated_Source\PSoC4/SERIAL_UART.c **** 
  96:.\Generated_Source\PSoC4/SERIAL_UART.c ****             /* Set TX direction internal variables */
  97:.\Generated_Source\PSoC4/SERIAL_UART.c ****             SERIAL_txBuffer      =         config->txBuffer;
  98:.\Generated_Source\PSoC4/SERIAL_UART.c ****             SERIAL_txDataBits    = (uint8) config->dataBits;
  99:.\Generated_Source\PSoC4/SERIAL_UART.c ****             SERIAL_txBufferSize  = (uint8) config->txBufferSize;
 100:.\Generated_Source\PSoC4/SERIAL_UART.c **** 
 101:.\Generated_Source\PSoC4/SERIAL_UART.c ****             /* Configure UART interface */
 102:.\Generated_Source\PSoC4/SERIAL_UART.c ****             if(SERIAL_UART_MODE_IRDA == config->mode)
 103:.\Generated_Source\PSoC4/SERIAL_UART.c ****             {
 104:.\Generated_Source\PSoC4/SERIAL_UART.c ****                 /* OVS settings: IrDA */
 105:.\Generated_Source\PSoC4/SERIAL_UART.c ****                 SERIAL_CTRL_REG  = ((0u != config->enableIrdaLowPower) ?
 106:.\Generated_Source\PSoC4/SERIAL_UART.c ****                                                 (SERIAL_UART_GET_CTRL_OVS_IRDA_LP(config->oversampl
 107:.\Generated_Source\PSoC4/SERIAL_UART.c ****                                                 (SERIAL_CTRL_OVS_IRDA_OVS16));
 108:.\Generated_Source\PSoC4/SERIAL_UART.c ****             }
 109:.\Generated_Source\PSoC4/SERIAL_UART.c ****             else
 110:.\Generated_Source\PSoC4/SERIAL_UART.c ****             {
 111:.\Generated_Source\PSoC4/SERIAL_UART.c ****                 /* OVS settings: UART and SmartCard */
 112:.\Generated_Source\PSoC4/SERIAL_UART.c ****                 SERIAL_CTRL_REG  = SERIAL_GET_CTRL_OVS(config->oversample);
 113:.\Generated_Source\PSoC4/SERIAL_UART.c ****             }
 114:.\Generated_Source\PSoC4/SERIAL_UART.c **** 
 115:.\Generated_Source\PSoC4/SERIAL_UART.c ****             SERIAL_CTRL_REG     |= SERIAL_GET_CTRL_ADDR_ACCEPT(config->multiprocAcceptAddr) |
 116:.\Generated_Source\PSoC4/SERIAL_UART.c ****                                              SERIAL_CTRL_UART;
 117:.\Generated_Source\PSoC4/SERIAL_UART.c **** 
 118:.\Generated_Source\PSoC4/SERIAL_UART.c ****             /* Configure sub-mode: UART, SmartCard or IrDA */
 119:.\Generated_Source\PSoC4/SERIAL_UART.c ****             SERIAL_UART_CTRL_REG = SERIAL_GET_UART_CTRL_MODE(config->mode);
 120:.\Generated_Source\PSoC4/SERIAL_UART.c **** 
 121:.\Generated_Source\PSoC4/SERIAL_UART.c ****             /* Configure RX direction */
 122:.\Generated_Source\PSoC4/SERIAL_UART.c ****             SERIAL_UART_RX_CTRL_REG = SERIAL_GET_UART_RX_CTRL_MODE(config->stopBits)              |
 123:.\Generated_Source\PSoC4/SERIAL_UART.c ****                                         SERIAL_GET_UART_RX_CTRL_POLARITY(config->enableInvertedRx) 
 124:.\Generated_Source\PSoC4/SERIAL_UART.c ****                                         SERIAL_GET_UART_RX_CTRL_MP_MODE(config->enableMultiproc)   
 125:.\Generated_Source\PSoC4/SERIAL_UART.c ****                                         SERIAL_GET_UART_RX_CTRL_DROP_ON_PARITY_ERR(config->dropOnPa
 126:.\Generated_Source\PSoC4/SERIAL_UART.c ****                                         SERIAL_GET_UART_RX_CTRL_DROP_ON_FRAME_ERR(config->dropOnFra
 127:.\Generated_Source\PSoC4/SERIAL_UART.c **** 
 128:.\Generated_Source\PSoC4/SERIAL_UART.c ****             if(SERIAL_UART_PARITY_NONE != config->parity)
 129:.\Generated_Source\PSoC4/SERIAL_UART.c ****             {
 130:.\Generated_Source\PSoC4/SERIAL_UART.c ****                SERIAL_UART_RX_CTRL_REG |= SERIAL_GET_UART_RX_CTRL_PARITY(config->parity) |
 131:.\Generated_Source\PSoC4/SERIAL_UART.c ****                                                     SERIAL_UART_RX_CTRL_PARITY_ENABLED;
 132:.\Generated_Source\PSoC4/SERIAL_UART.c ****             }
 133:.\Generated_Source\PSoC4/SERIAL_UART.c **** 
 134:.\Generated_Source\PSoC4/SERIAL_UART.c ****             SERIAL_RX_CTRL_REG      = SERIAL_GET_RX_CTRL_DATA_WIDTH(config->dataBits)       |
 135:.\Generated_Source\PSoC4/SERIAL_UART.c ****                                                 SERIAL_GET_RX_CTRL_MEDIAN(config->enableMedianFilte
 136:.\Generated_Source\PSoC4/SERIAL_UART.c ****                                                 SERIAL_GET_UART_RX_CTRL_ENABLED(config->direction);
 137:.\Generated_Source\PSoC4/SERIAL_UART.c **** 
 138:.\Generated_Source\PSoC4/SERIAL_UART.c ****             SERIAL_RX_FIFO_CTRL_REG = SERIAL_GET_RX_FIFO_CTRL_TRIGGER_LEVEL(config->rxTriggerLevel)
 139:.\Generated_Source\PSoC4/SERIAL_UART.c **** 
 140:.\Generated_Source\PSoC4/SERIAL_UART.c ****             /* Configure MP address */
 141:.\Generated_Source\PSoC4/SERIAL_UART.c ****             SERIAL_RX_MATCH_REG     = SERIAL_GET_RX_MATCH_ADDR(config->multiprocAddr) |
 142:.\Generated_Source\PSoC4/SERIAL_UART.c ****                                                 SERIAL_GET_RX_MATCH_MASK(config->multiprocAddrMask)
 143:.\Generated_Source\PSoC4/SERIAL_UART.c **** 
 144:.\Generated_Source\PSoC4/SERIAL_UART.c ****             /* Configure RX direction */
 145:.\Generated_Source\PSoC4/SERIAL_UART.c ****             SERIAL_UART_TX_CTRL_REG = SERIAL_GET_UART_TX_CTRL_MODE(config->stopBits) |
 146:.\Generated_Source\PSoC4/SERIAL_UART.c ****                                                 SERIAL_GET_UART_TX_CTRL_RETRY_NACK(config->enableRe
ARM GAS  C:\Users\Sam\AppData\Local\Temp\cchFDXAg.s 			page 4


 147:.\Generated_Source\PSoC4/SERIAL_UART.c **** 
 148:.\Generated_Source\PSoC4/SERIAL_UART.c ****             if(SERIAL_UART_PARITY_NONE != config->parity)
 149:.\Generated_Source\PSoC4/SERIAL_UART.c ****             {
 150:.\Generated_Source\PSoC4/SERIAL_UART.c ****                SERIAL_UART_TX_CTRL_REG |= SERIAL_GET_UART_TX_CTRL_PARITY(config->parity) |
 151:.\Generated_Source\PSoC4/SERIAL_UART.c ****                                                     SERIAL_UART_TX_CTRL_PARITY_ENABLED;
 152:.\Generated_Source\PSoC4/SERIAL_UART.c ****             }
 153:.\Generated_Source\PSoC4/SERIAL_UART.c **** 
 154:.\Generated_Source\PSoC4/SERIAL_UART.c ****             SERIAL_TX_CTRL_REG      = SERIAL_GET_TX_CTRL_DATA_WIDTH(config->dataBits)    |
 155:.\Generated_Source\PSoC4/SERIAL_UART.c ****                                                 SERIAL_GET_UART_TX_CTRL_ENABLED(config->direction);
 156:.\Generated_Source\PSoC4/SERIAL_UART.c **** 
 157:.\Generated_Source\PSoC4/SERIAL_UART.c ****             SERIAL_TX_FIFO_CTRL_REG = SERIAL_GET_TX_FIFO_CTRL_TRIGGER_LEVEL(config->txTriggerLevel)
 158:.\Generated_Source\PSoC4/SERIAL_UART.c **** 
 159:.\Generated_Source\PSoC4/SERIAL_UART.c **** 
 160:.\Generated_Source\PSoC4/SERIAL_UART.c **** 
 161:.\Generated_Source\PSoC4/SERIAL_UART.c ****             /* Configure interrupt with UART handler but do not enable it */
 162:.\Generated_Source\PSoC4/SERIAL_UART.c ****             CyIntDisable    (SERIAL_ISR_NUMBER);
 163:.\Generated_Source\PSoC4/SERIAL_UART.c ****             CyIntSetPriority(SERIAL_ISR_NUMBER, SERIAL_ISR_PRIORITY);
 164:.\Generated_Source\PSoC4/SERIAL_UART.c ****             (void) CyIntSetVector(SERIAL_ISR_NUMBER, &SERIAL_SPI_UART_ISR);
 165:.\Generated_Source\PSoC4/SERIAL_UART.c **** 
 166:.\Generated_Source\PSoC4/SERIAL_UART.c ****             /* Configure WAKE interrupt */
 167:.\Generated_Source\PSoC4/SERIAL_UART.c ****         #if(SERIAL_UART_RX_WAKEUP_IRQ)
 168:.\Generated_Source\PSoC4/SERIAL_UART.c ****             CyIntDisable    (SERIAL_RX_WAKE_ISR_NUMBER);
 169:.\Generated_Source\PSoC4/SERIAL_UART.c ****             CyIntSetPriority(SERIAL_RX_WAKE_ISR_NUMBER, SERIAL_RX_WAKE_ISR_PRIORITY);
 170:.\Generated_Source\PSoC4/SERIAL_UART.c ****             (void) CyIntSetVector(SERIAL_RX_WAKE_ISR_NUMBER, &SERIAL_UART_WAKEUP_ISR);
 171:.\Generated_Source\PSoC4/SERIAL_UART.c ****         #endif /* (SERIAL_UART_RX_WAKEUP_IRQ) */
 172:.\Generated_Source\PSoC4/SERIAL_UART.c **** 
 173:.\Generated_Source\PSoC4/SERIAL_UART.c ****             /* Configure interrupt sources */
 174:.\Generated_Source\PSoC4/SERIAL_UART.c ****             SERIAL_INTR_I2C_EC_MASK_REG = SERIAL_NO_INTR_SOURCES;
 175:.\Generated_Source\PSoC4/SERIAL_UART.c ****             SERIAL_INTR_SPI_EC_MASK_REG = SERIAL_NO_INTR_SOURCES;
 176:.\Generated_Source\PSoC4/SERIAL_UART.c ****             SERIAL_INTR_SLAVE_MASK_REG  = SERIAL_NO_INTR_SOURCES;
 177:.\Generated_Source\PSoC4/SERIAL_UART.c ****             SERIAL_INTR_MASTER_MASK_REG = SERIAL_NO_INTR_SOURCES;
 178:.\Generated_Source\PSoC4/SERIAL_UART.c ****             SERIAL_INTR_RX_MASK_REG     = config->rxInterruptMask;
 179:.\Generated_Source\PSoC4/SERIAL_UART.c ****             SERIAL_INTR_TX_MASK_REG     = config->txInterruptMask;
 180:.\Generated_Source\PSoC4/SERIAL_UART.c **** 
 181:.\Generated_Source\PSoC4/SERIAL_UART.c ****             /* Clear RX buffer indexes */
 182:.\Generated_Source\PSoC4/SERIAL_UART.c ****             SERIAL_rxBufferHead     = 0u;
 183:.\Generated_Source\PSoC4/SERIAL_UART.c ****             SERIAL_rxBufferTail     = 0u;
 184:.\Generated_Source\PSoC4/SERIAL_UART.c ****             SERIAL_rxBufferOverflow = 0u;
 185:.\Generated_Source\PSoC4/SERIAL_UART.c **** 
 186:.\Generated_Source\PSoC4/SERIAL_UART.c ****             /* Clrea TX buffer indexes */
 187:.\Generated_Source\PSoC4/SERIAL_UART.c ****             SERIAL_txBufferHead = 0u;
 188:.\Generated_Source\PSoC4/SERIAL_UART.c ****             SERIAL_txBufferTail = 0u;
 189:.\Generated_Source\PSoC4/SERIAL_UART.c ****         }
 190:.\Generated_Source\PSoC4/SERIAL_UART.c ****     }
 191:.\Generated_Source\PSoC4/SERIAL_UART.c **** 
 192:.\Generated_Source\PSoC4/SERIAL_UART.c **** #else
 193:.\Generated_Source\PSoC4/SERIAL_UART.c **** 
 194:.\Generated_Source\PSoC4/SERIAL_UART.c ****     /*******************************************************************************
 195:.\Generated_Source\PSoC4/SERIAL_UART.c ****     * Function Name: SERIAL_UartInit
 196:.\Generated_Source\PSoC4/SERIAL_UART.c ****     ********************************************************************************
 197:.\Generated_Source\PSoC4/SERIAL_UART.c ****     *
 198:.\Generated_Source\PSoC4/SERIAL_UART.c ****     * Summary:
 199:.\Generated_Source\PSoC4/SERIAL_UART.c ****     *  Configures the SCB for the UART operation.
 200:.\Generated_Source\PSoC4/SERIAL_UART.c ****     *
 201:.\Generated_Source\PSoC4/SERIAL_UART.c ****     * Parameters:
 202:.\Generated_Source\PSoC4/SERIAL_UART.c ****     *  None
 203:.\Generated_Source\PSoC4/SERIAL_UART.c ****     *
ARM GAS  C:\Users\Sam\AppData\Local\Temp\cchFDXAg.s 			page 5


 204:.\Generated_Source\PSoC4/SERIAL_UART.c ****     * Return:
 205:.\Generated_Source\PSoC4/SERIAL_UART.c ****     *  None
 206:.\Generated_Source\PSoC4/SERIAL_UART.c ****     *
 207:.\Generated_Source\PSoC4/SERIAL_UART.c ****     *******************************************************************************/
 208:.\Generated_Source\PSoC4/SERIAL_UART.c ****     void SERIAL_UartInit(void)
 209:.\Generated_Source\PSoC4/SERIAL_UART.c ****     {
  26              		.loc 1 209 0
  27              		.cfi_startproc
  28 0000 80B5     		push	{r7, lr}
  29              	.LCFI0:
  30              		.cfi_def_cfa_offset 8
  31              		.cfi_offset 7, -8
  32              		.cfi_offset 14, -4
  33 0002 00AF     		add	r7, sp, #0
  34              	.LCFI1:
  35              		.cfi_def_cfa_register 7
 210:.\Generated_Source\PSoC4/SERIAL_UART.c ****         /* Configure UART interface */
 211:.\Generated_Source\PSoC4/SERIAL_UART.c ****         SERIAL_CTRL_REG = SERIAL_UART_DEFAULT_CTRL;
  36              		.loc 1 211 0
  37 0004 174B     		ldr	r3, .L2
  38 0006 184A     		ldr	r2, .L2+4
  39 0008 1A60     		str	r2, [r3]
 212:.\Generated_Source\PSoC4/SERIAL_UART.c **** 
 213:.\Generated_Source\PSoC4/SERIAL_UART.c ****         /* Configure sub-mode: UART, SmartCard or IrDA */
 214:.\Generated_Source\PSoC4/SERIAL_UART.c ****         SERIAL_UART_CTRL_REG = SERIAL_UART_DEFAULT_UART_CTRL;
  40              		.loc 1 214 0
  41 000a 184B     		ldr	r3, .L2+8
  42 000c 0022     		mov	r2, #0
  43 000e 1A60     		str	r2, [r3]
 215:.\Generated_Source\PSoC4/SERIAL_UART.c **** 
 216:.\Generated_Source\PSoC4/SERIAL_UART.c ****         /* Configure RX direction */
 217:.\Generated_Source\PSoC4/SERIAL_UART.c ****         SERIAL_UART_RX_CTRL_REG = SERIAL_UART_DEFAULT_UART_RX_CTRL;
  44              		.loc 1 217 0
  45 0010 174B     		ldr	r3, .L2+12
  46 0012 0122     		mov	r2, #1
  47 0014 1A60     		str	r2, [r3]
 218:.\Generated_Source\PSoC4/SERIAL_UART.c ****         SERIAL_RX_CTRL_REG      = SERIAL_UART_DEFAULT_RX_CTRL;
  48              		.loc 1 218 0
  49 0016 174B     		ldr	r3, .L2+16
  50 0018 174A     		ldr	r2, .L2+20
  51 001a 1A60     		str	r2, [r3]
 219:.\Generated_Source\PSoC4/SERIAL_UART.c ****         SERIAL_RX_FIFO_CTRL_REG = SERIAL_UART_DEFAULT_RX_FIFO_CTRL;
  52              		.loc 1 219 0
  53 001c 174B     		ldr	r3, .L2+24
  54 001e 0722     		mov	r2, #7
  55 0020 1A60     		str	r2, [r3]
 220:.\Generated_Source\PSoC4/SERIAL_UART.c ****         SERIAL_RX_MATCH_REG     = SERIAL_UART_DEFAULT_RX_MATCH_REG;
  56              		.loc 1 220 0
  57 0022 174B     		ldr	r3, .L2+28
  58 0024 0022     		mov	r2, #0
  59 0026 1A60     		str	r2, [r3]
 221:.\Generated_Source\PSoC4/SERIAL_UART.c **** 
 222:.\Generated_Source\PSoC4/SERIAL_UART.c ****         /* Configure TX direction */
 223:.\Generated_Source\PSoC4/SERIAL_UART.c ****         SERIAL_UART_TX_CTRL_REG = SERIAL_UART_DEFAULT_UART_TX_CTRL;
  60              		.loc 1 223 0
  61 0028 164B     		ldr	r3, .L2+32
  62 002a 0122     		mov	r2, #1
ARM GAS  C:\Users\Sam\AppData\Local\Temp\cchFDXAg.s 			page 6


  63 002c 1A60     		str	r2, [r3]
 224:.\Generated_Source\PSoC4/SERIAL_UART.c ****         SERIAL_TX_CTRL_REG      = SERIAL_UART_DEFAULT_TX_CTRL;
  64              		.loc 1 224 0
  65 002e 164B     		ldr	r3, .L2+36
  66 0030 114A     		ldr	r2, .L2+20
  67 0032 1A60     		str	r2, [r3]
 225:.\Generated_Source\PSoC4/SERIAL_UART.c ****         SERIAL_TX_FIFO_CTRL_REG = SERIAL_UART_DEFAULT_TX_FIFO_CTRL;
  68              		.loc 1 225 0
  69 0034 154B     		ldr	r3, .L2+40
  70 0036 0022     		mov	r2, #0
  71 0038 1A60     		str	r2, [r3]
 226:.\Generated_Source\PSoC4/SERIAL_UART.c **** 
 227:.\Generated_Source\PSoC4/SERIAL_UART.c ****         /* Configure interrupt with UART handler but do not enable it */
 228:.\Generated_Source\PSoC4/SERIAL_UART.c ****     #if(SERIAL_SCB_IRQ_INTERNAL)
 229:.\Generated_Source\PSoC4/SERIAL_UART.c ****         CyIntDisable    (SERIAL_ISR_NUMBER);
 230:.\Generated_Source\PSoC4/SERIAL_UART.c ****         CyIntSetPriority(SERIAL_ISR_NUMBER, SERIAL_ISR_PRIORITY);
 231:.\Generated_Source\PSoC4/SERIAL_UART.c ****         (void) CyIntSetVector(SERIAL_ISR_NUMBER, &SERIAL_SPI_UART_ISR);
 232:.\Generated_Source\PSoC4/SERIAL_UART.c ****     #endif /* (SERIAL_SCB_IRQ_INTERNAL) */
 233:.\Generated_Source\PSoC4/SERIAL_UART.c **** 
 234:.\Generated_Source\PSoC4/SERIAL_UART.c ****         /* Configure WAKE interrupt */
 235:.\Generated_Source\PSoC4/SERIAL_UART.c ****     #if(SERIAL_UART_RX_WAKEUP_IRQ)
 236:.\Generated_Source\PSoC4/SERIAL_UART.c ****         CyIntDisable    (SERIAL_RX_WAKE_ISR_NUMBER);
 237:.\Generated_Source\PSoC4/SERIAL_UART.c ****         CyIntSetPriority(SERIAL_RX_WAKE_ISR_NUMBER, SERIAL_RX_WAKE_ISR_PRIORITY);
 238:.\Generated_Source\PSoC4/SERIAL_UART.c ****         (void) CyIntSetVector(SERIAL_RX_WAKE_ISR_NUMBER, &SERIAL_UART_WAKEUP_ISR);
 239:.\Generated_Source\PSoC4/SERIAL_UART.c ****     #endif /* (SERIAL_UART_RX_WAKEUP_IRQ) */
 240:.\Generated_Source\PSoC4/SERIAL_UART.c **** 
 241:.\Generated_Source\PSoC4/SERIAL_UART.c ****         /* Configure interrupt sources */
 242:.\Generated_Source\PSoC4/SERIAL_UART.c ****         SERIAL_INTR_I2C_EC_MASK_REG = SERIAL_UART_DEFAULT_INTR_I2C_EC_MASK;
  72              		.loc 1 242 0
  73 003a 154B     		ldr	r3, .L2+44
  74 003c 0022     		mov	r2, #0
  75 003e 1A60     		str	r2, [r3]
 243:.\Generated_Source\PSoC4/SERIAL_UART.c ****         SERIAL_INTR_SPI_EC_MASK_REG = SERIAL_UART_DEFAULT_INTR_SPI_EC_MASK;
  76              		.loc 1 243 0
  77 0040 144B     		ldr	r3, .L2+48
  78 0042 0022     		mov	r2, #0
  79 0044 1A60     		str	r2, [r3]
 244:.\Generated_Source\PSoC4/SERIAL_UART.c ****         SERIAL_INTR_SLAVE_MASK_REG  = SERIAL_UART_DEFAULT_INTR_SLAVE_MASK;
  80              		.loc 1 244 0
  81 0046 144B     		ldr	r3, .L2+52
  82 0048 0022     		mov	r2, #0
  83 004a 1A60     		str	r2, [r3]
 245:.\Generated_Source\PSoC4/SERIAL_UART.c ****         SERIAL_INTR_MASTER_MASK_REG = SERIAL_UART_DEFAULT_INTR_MASTER_MASK;
  84              		.loc 1 245 0
  85 004c 134B     		ldr	r3, .L2+56
  86 004e 0022     		mov	r2, #0
  87 0050 1A60     		str	r2, [r3]
 246:.\Generated_Source\PSoC4/SERIAL_UART.c ****         SERIAL_INTR_RX_MASK_REG     = SERIAL_UART_DEFAULT_INTR_RX_MASK;
  88              		.loc 1 246 0
  89 0052 134B     		ldr	r3, .L2+60
  90 0054 0022     		mov	r2, #0
  91 0056 1A60     		str	r2, [r3]
 247:.\Generated_Source\PSoC4/SERIAL_UART.c ****         SERIAL_INTR_TX_MASK_REG     = SERIAL_UART_DEFAULT_INTR_TX_MASK;
  92              		.loc 1 247 0
  93 0058 124B     		ldr	r3, .L2+64
  94 005a 0022     		mov	r2, #0
  95 005c 1A60     		str	r2, [r3]
ARM GAS  C:\Users\Sam\AppData\Local\Temp\cchFDXAg.s 			page 7


 248:.\Generated_Source\PSoC4/SERIAL_UART.c **** 
 249:.\Generated_Source\PSoC4/SERIAL_UART.c ****     #if(SERIAL_INTERNAL_RX_SW_BUFFER_CONST)
 250:.\Generated_Source\PSoC4/SERIAL_UART.c ****         SERIAL_rxBufferHead     = 0u;
 251:.\Generated_Source\PSoC4/SERIAL_UART.c ****         SERIAL_rxBufferTail     = 0u;
 252:.\Generated_Source\PSoC4/SERIAL_UART.c ****         SERIAL_rxBufferOverflow = 0u;
 253:.\Generated_Source\PSoC4/SERIAL_UART.c ****     #endif /* (SERIAL_INTERNAL_RX_SW_BUFFER_CONST) */
 254:.\Generated_Source\PSoC4/SERIAL_UART.c **** 
 255:.\Generated_Source\PSoC4/SERIAL_UART.c ****     #if(SERIAL_INTERNAL_TX_SW_BUFFER_CONST)
 256:.\Generated_Source\PSoC4/SERIAL_UART.c ****         SERIAL_txBufferHead = 0u;
 257:.\Generated_Source\PSoC4/SERIAL_UART.c ****         SERIAL_txBufferTail = 0u;
 258:.\Generated_Source\PSoC4/SERIAL_UART.c ****     #endif /* (SERIAL_INTERNAL_TX_SW_BUFFER_CONST) */
 259:.\Generated_Source\PSoC4/SERIAL_UART.c ****     }
  96              		.loc 1 259 0
  97 005e BD46     		mov	sp, r7
  98              		@ sp needed for prologue
  99 0060 80BD     		pop	{r7, pc}
 100              	.L3:
 101 0062 C046     		.align	2
 102              	.L2:
 103 0064 00000640 		.word	1074135040
 104 0068 0B000002 		.word	33554443
 105 006c 40000640 		.word	1074135104
 106 0070 48000640 		.word	1074135112
 107 0074 00030640 		.word	1074135808
 108 0078 07000080 		.word	-2147483641
 109 007c 04030640 		.word	1074135812
 110 0080 10030640 		.word	1074135824
 111 0084 44000640 		.word	1074135108
 112 0088 00020640 		.word	1074135552
 113 008c 04020640 		.word	1074135556
 114 0090 880E0640 		.word	1074138760
 115 0094 C80E0640 		.word	1074138824
 116 0098 480F0640 		.word	1074138952
 117 009c 080F0640 		.word	1074138888
 118 00a0 C80F0640 		.word	1074139080
 119 00a4 880F0640 		.word	1074139016
 120              		.cfi_endproc
 121              	.LFE0:
 122              		.size	SERIAL_UartInit, .-SERIAL_UartInit
 123              		.section	.text.SERIAL_UartSetRxAddress,"ax",%progbits
 124              		.align	2
 125              		.global	SERIAL_UartSetRxAddress
 126              		.code	16
 127              		.thumb_func
 128              		.type	SERIAL_UartSetRxAddress, %function
 129              	SERIAL_UartSetRxAddress:
 130              	.LFB1:
 260:.\Generated_Source\PSoC4/SERIAL_UART.c **** #endif /* (SERIAL_SCB_MODE_UNCONFIG_CONST_CFG) */
 261:.\Generated_Source\PSoC4/SERIAL_UART.c **** 
 262:.\Generated_Source\PSoC4/SERIAL_UART.c **** 
 263:.\Generated_Source\PSoC4/SERIAL_UART.c **** /*******************************************************************************
 264:.\Generated_Source\PSoC4/SERIAL_UART.c **** * Function Name: SERIAL_UartSetRxAddress
 265:.\Generated_Source\PSoC4/SERIAL_UART.c **** ********************************************************************************
 266:.\Generated_Source\PSoC4/SERIAL_UART.c **** *
 267:.\Generated_Source\PSoC4/SERIAL_UART.c **** * Summary:
 268:.\Generated_Source\PSoC4/SERIAL_UART.c **** *  Sets the hardware detectable receiver address for the UART in the Multiprocessor
 269:.\Generated_Source\PSoC4/SERIAL_UART.c **** *  mode.
ARM GAS  C:\Users\Sam\AppData\Local\Temp\cchFDXAg.s 			page 8


 270:.\Generated_Source\PSoC4/SERIAL_UART.c **** *
 271:.\Generated_Source\PSoC4/SERIAL_UART.c **** * Parameters:
 272:.\Generated_Source\PSoC4/SERIAL_UART.c **** *  address: Address for hardware address detection.
 273:.\Generated_Source\PSoC4/SERIAL_UART.c **** *
 274:.\Generated_Source\PSoC4/SERIAL_UART.c **** * Return:
 275:.\Generated_Source\PSoC4/SERIAL_UART.c **** *  None
 276:.\Generated_Source\PSoC4/SERIAL_UART.c **** *
 277:.\Generated_Source\PSoC4/SERIAL_UART.c **** *******************************************************************************/
 278:.\Generated_Source\PSoC4/SERIAL_UART.c **** void SERIAL_UartSetRxAddress(uint32 address)
 279:.\Generated_Source\PSoC4/SERIAL_UART.c **** {
 131              		.loc 1 279 0
 132              		.cfi_startproc
 133 0000 80B5     		push	{r7, lr}
 134              	.LCFI2:
 135              		.cfi_def_cfa_offset 8
 136              		.cfi_offset 7, -8
 137              		.cfi_offset 14, -4
 138 0002 84B0     		sub	sp, sp, #16
 139              	.LCFI3:
 140              		.cfi_def_cfa_offset 24
 141 0004 00AF     		add	r7, sp, #0
 142              	.LCFI4:
 143              		.cfi_def_cfa_register 7
 144 0006 7860     		str	r0, [r7, #4]
 280:.\Generated_Source\PSoC4/SERIAL_UART.c ****      uint32 matchReg;
 281:.\Generated_Source\PSoC4/SERIAL_UART.c **** 
 282:.\Generated_Source\PSoC4/SERIAL_UART.c ****     matchReg = SERIAL_RX_MATCH_REG;
 145              		.loc 1 282 0
 146 0008 094B     		ldr	r3, .L5
 147 000a 1B68     		ldr	r3, [r3]
 148 000c FB60     		str	r3, [r7, #12]
 283:.\Generated_Source\PSoC4/SERIAL_UART.c **** 
 284:.\Generated_Source\PSoC4/SERIAL_UART.c ****     matchReg &= ((uint32) ~SERIAL_RX_MATCH_ADDR_MASK); /* Clear address bits */
 149              		.loc 1 284 0
 150 000e FB68     		ldr	r3, [r7, #12]
 151 0010 FF22     		mov	r2, #255
 152 0012 9343     		bic	r3, r2
 153 0014 FB60     		str	r3, [r7, #12]
 285:.\Generated_Source\PSoC4/SERIAL_UART.c ****     matchReg |= ((uint32)  (address & SERIAL_RX_MATCH_ADDR_MASK)); /* Set address  */
 154              		.loc 1 285 0
 155 0016 7A68     		ldr	r2, [r7, #4]
 156 0018 FF23     		mov	r3, #255
 157 001a 1340     		and	r3, r2
 158 001c FA68     		ldr	r2, [r7, #12]
 159 001e 1343     		orr	r3, r2
 160 0020 FB60     		str	r3, [r7, #12]
 286:.\Generated_Source\PSoC4/SERIAL_UART.c **** 
 287:.\Generated_Source\PSoC4/SERIAL_UART.c ****     SERIAL_RX_MATCH_REG = matchReg;
 161              		.loc 1 287 0
 162 0022 034B     		ldr	r3, .L5
 163 0024 FA68     		ldr	r2, [r7, #12]
 164 0026 1A60     		str	r2, [r3]
 288:.\Generated_Source\PSoC4/SERIAL_UART.c **** }
 165              		.loc 1 288 0
 166 0028 BD46     		mov	sp, r7
 167 002a 04B0     		add	sp, sp, #16
 168              		@ sp needed for prologue
ARM GAS  C:\Users\Sam\AppData\Local\Temp\cchFDXAg.s 			page 9


 169 002c 80BD     		pop	{r7, pc}
 170              	.L6:
 171 002e C046     		.align	2
 172              	.L5:
 173 0030 10030640 		.word	1074135824
 174              		.cfi_endproc
 175              	.LFE1:
 176              		.size	SERIAL_UartSetRxAddress, .-SERIAL_UartSetRxAddress
 177              		.section	.text.SERIAL_UartSetRxAddressMask,"ax",%progbits
 178              		.align	2
 179              		.global	SERIAL_UartSetRxAddressMask
 180              		.code	16
 181              		.thumb_func
 182              		.type	SERIAL_UartSetRxAddressMask, %function
 183              	SERIAL_UartSetRxAddressMask:
 184              	.LFB2:
 289:.\Generated_Source\PSoC4/SERIAL_UART.c **** 
 290:.\Generated_Source\PSoC4/SERIAL_UART.c **** 
 291:.\Generated_Source\PSoC4/SERIAL_UART.c **** /*******************************************************************************
 292:.\Generated_Source\PSoC4/SERIAL_UART.c **** * Function Name: SERIAL_UartSetRxAddressMask
 293:.\Generated_Source\PSoC4/SERIAL_UART.c **** ********************************************************************************
 294:.\Generated_Source\PSoC4/SERIAL_UART.c **** *
 295:.\Generated_Source\PSoC4/SERIAL_UART.c **** * Summary:
 296:.\Generated_Source\PSoC4/SERIAL_UART.c **** *  Sets the hardware address mask for the UART in the Multiprocessor mode.
 297:.\Generated_Source\PSoC4/SERIAL_UART.c **** *
 298:.\Generated_Source\PSoC4/SERIAL_UART.c **** * Parameters:
 299:.\Generated_Source\PSoC4/SERIAL_UART.c **** *  addressMask: Address mask.
 300:.\Generated_Source\PSoC4/SERIAL_UART.c **** *   0 - address bit does not care while comparison.
 301:.\Generated_Source\PSoC4/SERIAL_UART.c **** *   1 - address bit is significant while comparison.
 302:.\Generated_Source\PSoC4/SERIAL_UART.c **** *
 303:.\Generated_Source\PSoC4/SERIAL_UART.c **** * Return:
 304:.\Generated_Source\PSoC4/SERIAL_UART.c **** *  None
 305:.\Generated_Source\PSoC4/SERIAL_UART.c **** *
 306:.\Generated_Source\PSoC4/SERIAL_UART.c **** *******************************************************************************/
 307:.\Generated_Source\PSoC4/SERIAL_UART.c **** void SERIAL_UartSetRxAddressMask(uint32 addressMask)
 308:.\Generated_Source\PSoC4/SERIAL_UART.c **** {
 185              		.loc 1 308 0
 186              		.cfi_startproc
 187 0000 80B5     		push	{r7, lr}
 188              	.LCFI5:
 189              		.cfi_def_cfa_offset 8
 190              		.cfi_offset 7, -8
 191              		.cfi_offset 14, -4
 192 0002 84B0     		sub	sp, sp, #16
 193              	.LCFI6:
 194              		.cfi_def_cfa_offset 24
 195 0004 00AF     		add	r7, sp, #0
 196              	.LCFI7:
 197              		.cfi_def_cfa_register 7
 198 0006 7860     		str	r0, [r7, #4]
 309:.\Generated_Source\PSoC4/SERIAL_UART.c ****     uint32 matchReg;
 310:.\Generated_Source\PSoC4/SERIAL_UART.c **** 
 311:.\Generated_Source\PSoC4/SERIAL_UART.c ****     matchReg = SERIAL_RX_MATCH_REG;
 199              		.loc 1 311 0
 200 0008 084B     		ldr	r3, .L8
 201 000a 1B68     		ldr	r3, [r3]
 202 000c FB60     		str	r3, [r7, #12]
ARM GAS  C:\Users\Sam\AppData\Local\Temp\cchFDXAg.s 			page 10


 312:.\Generated_Source\PSoC4/SERIAL_UART.c **** 
 313:.\Generated_Source\PSoC4/SERIAL_UART.c ****     matchReg &= ((uint32) ~SERIAL_RX_MATCH_MASK_MASK); /* Clear address mask bits */
 203              		.loc 1 313 0
 204 000e FA68     		ldr	r2, [r7, #12]
 205 0010 074B     		ldr	r3, .L8+4
 206 0012 1340     		and	r3, r2
 207 0014 FB60     		str	r3, [r7, #12]
 314:.\Generated_Source\PSoC4/SERIAL_UART.c ****     matchReg |= ((uint32) (addressMask << SERIAL_RX_MATCH_MASK_POS));
 208              		.loc 1 314 0
 209 0016 7B68     		ldr	r3, [r7, #4]
 210 0018 1B04     		lsl	r3, r3, #16
 211 001a FA68     		ldr	r2, [r7, #12]
 212 001c 1343     		orr	r3, r2
 213 001e FB60     		str	r3, [r7, #12]
 315:.\Generated_Source\PSoC4/SERIAL_UART.c **** 
 316:.\Generated_Source\PSoC4/SERIAL_UART.c ****     SERIAL_RX_MATCH_REG = matchReg;
 214              		.loc 1 316 0
 215 0020 024B     		ldr	r3, .L8
 216 0022 FA68     		ldr	r2, [r7, #12]
 217 0024 1A60     		str	r2, [r3]
 317:.\Generated_Source\PSoC4/SERIAL_UART.c **** }
 218              		.loc 1 317 0
 219 0026 BD46     		mov	sp, r7
 220 0028 04B0     		add	sp, sp, #16
 221              		@ sp needed for prologue
 222 002a 80BD     		pop	{r7, pc}
 223              	.L9:
 224              		.align	2
 225              	.L8:
 226 002c 10030640 		.word	1074135824
 227 0030 FFFF00FF 		.word	-16711681
 228              		.cfi_endproc
 229              	.LFE2:
 230              		.size	SERIAL_UartSetRxAddressMask, .-SERIAL_UartSetRxAddressMask
 231              		.section	.text.SERIAL_UartGetChar,"ax",%progbits
 232              		.align	2
 233              		.global	SERIAL_UartGetChar
 234              		.code	16
 235              		.thumb_func
 236              		.type	SERIAL_UartGetChar, %function
 237              	SERIAL_UartGetChar:
 238              	.LFB3:
 318:.\Generated_Source\PSoC4/SERIAL_UART.c **** 
 319:.\Generated_Source\PSoC4/SERIAL_UART.c **** 
 320:.\Generated_Source\PSoC4/SERIAL_UART.c **** #if(SERIAL_UART_RX_DIRECTION)
 321:.\Generated_Source\PSoC4/SERIAL_UART.c ****     /*******************************************************************************
 322:.\Generated_Source\PSoC4/SERIAL_UART.c ****     * Function Name: SERIAL_UartGetChar
 323:.\Generated_Source\PSoC4/SERIAL_UART.c ****     ********************************************************************************
 324:.\Generated_Source\PSoC4/SERIAL_UART.c ****     *
 325:.\Generated_Source\PSoC4/SERIAL_UART.c ****     * Summary:
 326:.\Generated_Source\PSoC4/SERIAL_UART.c ****     *  Retrieves the next data element from the receive buffer.
 327:.\Generated_Source\PSoC4/SERIAL_UART.c ****     *  This function is designed for ASCII characters and returns a char
 328:.\Generated_Source\PSoC4/SERIAL_UART.c ****     *  where 1 to 255 are valid characters and 0 indicates an error occurred or
 329:.\Generated_Source\PSoC4/SERIAL_UART.c ****     *  no data present.
 330:.\Generated_Source\PSoC4/SERIAL_UART.c ****     *  - The RX software buffer is disabled: returns the data element retrieved from the RX FIFO.
 331:.\Generated_Source\PSoC4/SERIAL_UART.c ****     *    Undefined data will be returned if the RX FIFO is empty.
 332:.\Generated_Source\PSoC4/SERIAL_UART.c ****     *  - The RX software buffer is enabled: returns the data element from the software receive
ARM GAS  C:\Users\Sam\AppData\Local\Temp\cchFDXAg.s 			page 11


 333:.\Generated_Source\PSoC4/SERIAL_UART.c ****     *    buffer.
 334:.\Generated_Source\PSoC4/SERIAL_UART.c ****     *
 335:.\Generated_Source\PSoC4/SERIAL_UART.c ****     * Parameters:
 336:.\Generated_Source\PSoC4/SERIAL_UART.c ****     *  None
 337:.\Generated_Source\PSoC4/SERIAL_UART.c ****     *
 338:.\Generated_Source\PSoC4/SERIAL_UART.c ****     * Return:
 339:.\Generated_Source\PSoC4/SERIAL_UART.c ****     *  The next data element from the receive buffer.
 340:.\Generated_Source\PSoC4/SERIAL_UART.c ****     *  ASCII character values from 1 to 255 are valid.
 341:.\Generated_Source\PSoC4/SERIAL_UART.c ****     *  A returned zero signifies an error condition or no data available.
 342:.\Generated_Source\PSoC4/SERIAL_UART.c ****     *
 343:.\Generated_Source\PSoC4/SERIAL_UART.c ****     *******************************************************************************/
 344:.\Generated_Source\PSoC4/SERIAL_UART.c ****     uint32 SERIAL_UartGetChar(void)
 345:.\Generated_Source\PSoC4/SERIAL_UART.c ****     {
 239              		.loc 1 345 0
 240              		.cfi_startproc
 241 0000 80B5     		push	{r7, lr}
 242              	.LCFI8:
 243              		.cfi_def_cfa_offset 8
 244              		.cfi_offset 7, -8
 245              		.cfi_offset 14, -4
 246 0002 82B0     		sub	sp, sp, #8
 247              	.LCFI9:
 248              		.cfi_def_cfa_offset 16
 249 0004 00AF     		add	r7, sp, #0
 250              	.LCFI10:
 251              		.cfi_def_cfa_register 7
 346:.\Generated_Source\PSoC4/SERIAL_UART.c ****         uint32 rxData = 0u;
 252              		.loc 1 346 0
 253 0006 0023     		mov	r3, #0
 254 0008 7B60     		str	r3, [r7, #4]
 347:.\Generated_Source\PSoC4/SERIAL_UART.c **** 
 348:.\Generated_Source\PSoC4/SERIAL_UART.c ****         /* Read data only if there is data to read */
 349:.\Generated_Source\PSoC4/SERIAL_UART.c ****         if(0u != SERIAL_SpiUartGetRxBufferSize())
 255              		.loc 1 349 0
 256 000a FFF7FEFF 		bl	SERIAL_SpiUartGetRxBufferSize
 257 000e 031C     		mov	r3, r0
 258 0010 002B     		cmp	r3, #0
 259 0012 03D0     		beq	.L11
 350:.\Generated_Source\PSoC4/SERIAL_UART.c ****         {
 351:.\Generated_Source\PSoC4/SERIAL_UART.c ****             rxData = SERIAL_SpiUartReadRxData();
 260              		.loc 1 351 0
 261 0014 FFF7FEFF 		bl	SERIAL_SpiUartReadRxData
 262 0018 031C     		mov	r3, r0
 263 001a 7B60     		str	r3, [r7, #4]
 264              	.L11:
 352:.\Generated_Source\PSoC4/SERIAL_UART.c ****         }
 353:.\Generated_Source\PSoC4/SERIAL_UART.c **** 
 354:.\Generated_Source\PSoC4/SERIAL_UART.c ****         if(SERIAL_CHECK_INTR_RX(SERIAL_INTR_RX_ERR))
 265              		.loc 1 354 0
 266 001c 084B     		ldr	r3, .L14
 267 001e 1A68     		ldr	r2, [r3]
 268 0020 D823     		mov	r3, #216
 269 0022 9B00     		lsl	r3, r3, #2
 270 0024 1340     		and	r3, r2
 271 0026 05D0     		beq	.L12
 355:.\Generated_Source\PSoC4/SERIAL_UART.c ****         {
 356:.\Generated_Source\PSoC4/SERIAL_UART.c ****             rxData = 0u; /* Error occurred: return zero */
ARM GAS  C:\Users\Sam\AppData\Local\Temp\cchFDXAg.s 			page 12


 272              		.loc 1 356 0
 273 0028 0023     		mov	r3, #0
 274 002a 7B60     		str	r3, [r7, #4]
 357:.\Generated_Source\PSoC4/SERIAL_UART.c ****             SERIAL_ClearRxInterruptSource(SERIAL_INTR_RX_ERR);
 275              		.loc 1 357 0
 276 002c 044B     		ldr	r3, .L14
 277 002e D822     		mov	r2, #216
 278 0030 9200     		lsl	r2, r2, #2
 279 0032 1A60     		str	r2, [r3]
 280              	.L12:
 358:.\Generated_Source\PSoC4/SERIAL_UART.c ****         }
 359:.\Generated_Source\PSoC4/SERIAL_UART.c **** 
 360:.\Generated_Source\PSoC4/SERIAL_UART.c ****         return(rxData);
 281              		.loc 1 360 0
 282 0034 7B68     		ldr	r3, [r7, #4]
 361:.\Generated_Source\PSoC4/SERIAL_UART.c ****     }
 283              		.loc 1 361 0
 284 0036 181C     		mov	r0, r3
 285 0038 BD46     		mov	sp, r7
 286 003a 02B0     		add	sp, sp, #8
 287              		@ sp needed for prologue
 288 003c 80BD     		pop	{r7, pc}
 289              	.L15:
 290 003e C046     		.align	2
 291              	.L14:
 292 0040 C00F0640 		.word	1074139072
 293              		.cfi_endproc
 294              	.LFE3:
 295              		.size	SERIAL_UartGetChar, .-SERIAL_UartGetChar
 296              		.section	.text.SERIAL_UartGetByte,"ax",%progbits
 297              		.align	2
 298              		.global	SERIAL_UartGetByte
 299              		.code	16
 300              		.thumb_func
 301              		.type	SERIAL_UartGetByte, %function
 302              	SERIAL_UartGetByte:
 303              	.LFB4:
 362:.\Generated_Source\PSoC4/SERIAL_UART.c **** 
 363:.\Generated_Source\PSoC4/SERIAL_UART.c **** 
 364:.\Generated_Source\PSoC4/SERIAL_UART.c ****     /*******************************************************************************
 365:.\Generated_Source\PSoC4/SERIAL_UART.c ****     * Function Name: SERIAL_UartGetByte
 366:.\Generated_Source\PSoC4/SERIAL_UART.c ****     ********************************************************************************
 367:.\Generated_Source\PSoC4/SERIAL_UART.c ****     *
 368:.\Generated_Source\PSoC4/SERIAL_UART.c ****     * Summary:
 369:.\Generated_Source\PSoC4/SERIAL_UART.c ****     *  Retrieves the next data element from the receive buffer, returns the received byte
 370:.\Generated_Source\PSoC4/SERIAL_UART.c ****     *  and error condition.
 371:.\Generated_Source\PSoC4/SERIAL_UART.c ****     *   - The RX software buffer is disabled: returns the data element retrieved from the RX FIFO.
 372:.\Generated_Source\PSoC4/SERIAL_UART.c ****     *     Undefined data will be returned if the RX FIFO is empty.
 373:.\Generated_Source\PSoC4/SERIAL_UART.c ****     *   - The RX software buffer is enabled: returns data element from the software receive
 374:.\Generated_Source\PSoC4/SERIAL_UART.c ****     *     buffer.
 375:.\Generated_Source\PSoC4/SERIAL_UART.c ****     *
 376:.\Generated_Source\PSoC4/SERIAL_UART.c ****     * Parameters:
 377:.\Generated_Source\PSoC4/SERIAL_UART.c ****     *  None
 378:.\Generated_Source\PSoC4/SERIAL_UART.c ****     *
 379:.\Generated_Source\PSoC4/SERIAL_UART.c ****     * Return:
 380:.\Generated_Source\PSoC4/SERIAL_UART.c ****     *  Bits 15-8 contains status and bits 7-0 contains the next data element from
 381:.\Generated_Source\PSoC4/SERIAL_UART.c ****     *  receive buffer. If the bits 15-8 are non-zero, an error has occurred.
ARM GAS  C:\Users\Sam\AppData\Local\Temp\cchFDXAg.s 			page 13


 382:.\Generated_Source\PSoC4/SERIAL_UART.c ****     *
 383:.\Generated_Source\PSoC4/SERIAL_UART.c ****     *******************************************************************************/
 384:.\Generated_Source\PSoC4/SERIAL_UART.c ****     uint32 SERIAL_UartGetByte(void)
 385:.\Generated_Source\PSoC4/SERIAL_UART.c ****     {
 304              		.loc 1 385 0
 305              		.cfi_startproc
 306 0000 80B5     		push	{r7, lr}
 307              	.LCFI11:
 308              		.cfi_def_cfa_offset 8
 309              		.cfi_offset 7, -8
 310              		.cfi_offset 14, -4
 311 0002 84B0     		sub	sp, sp, #16
 312              	.LCFI12:
 313              		.cfi_def_cfa_offset 24
 314 0004 00AF     		add	r7, sp, #0
 315              	.LCFI13:
 316              		.cfi_def_cfa_register 7
 386:.\Generated_Source\PSoC4/SERIAL_UART.c ****         uint32 rxData;
 387:.\Generated_Source\PSoC4/SERIAL_UART.c ****         uint32 tmpStatus;
 388:.\Generated_Source\PSoC4/SERIAL_UART.c ****         uint32 intSourceMask;
 389:.\Generated_Source\PSoC4/SERIAL_UART.c **** 
 390:.\Generated_Source\PSoC4/SERIAL_UART.c ****         intSourceMask = SERIAL_SpiUartDisableIntRx();
 317              		.loc 1 390 0
 318 0006 FFF7FEFF 		bl	SERIAL_SpiUartDisableIntRx
 319 000a 031C     		mov	r3, r0
 320 000c BB60     		str	r3, [r7, #8]
 391:.\Generated_Source\PSoC4/SERIAL_UART.c **** 
 392:.\Generated_Source\PSoC4/SERIAL_UART.c ****         if(0u != SERIAL_SpiUartGetRxBufferSize())
 321              		.loc 1 392 0
 322 000e FFF7FEFF 		bl	SERIAL_SpiUartGetRxBufferSize
 323 0012 031C     		mov	r3, r0
 324 0014 002B     		cmp	r3, #0
 325 0016 07D0     		beq	.L17
 393:.\Generated_Source\PSoC4/SERIAL_UART.c ****         {
 394:.\Generated_Source\PSoC4/SERIAL_UART.c ****              /*
 395:.\Generated_Source\PSoC4/SERIAL_UART.c ****              * Enable interrupt to receive more bytes: at least one byte is in
 396:.\Generated_Source\PSoC4/SERIAL_UART.c ****              * buffer.
 397:.\Generated_Source\PSoC4/SERIAL_UART.c ****              */
 398:.\Generated_Source\PSoC4/SERIAL_UART.c ****             SERIAL_SpiUartEnableIntRx(intSourceMask);
 326              		.loc 1 398 0
 327 0018 104B     		ldr	r3, .L20
 328 001a BA68     		ldr	r2, [r7, #8]
 329 001c 1A60     		str	r2, [r3]
 399:.\Generated_Source\PSoC4/SERIAL_UART.c **** 
 400:.\Generated_Source\PSoC4/SERIAL_UART.c ****             /* Get received byte */
 401:.\Generated_Source\PSoC4/SERIAL_UART.c ****             rxData = SERIAL_SpiUartReadRxData();
 330              		.loc 1 401 0
 331 001e FFF7FEFF 		bl	SERIAL_SpiUartReadRxData
 332 0022 031C     		mov	r3, r0
 333 0024 FB60     		str	r3, [r7, #12]
 334 0026 05E0     		b	.L18
 335              	.L17:
 402:.\Generated_Source\PSoC4/SERIAL_UART.c ****         }
 403:.\Generated_Source\PSoC4/SERIAL_UART.c ****         else
 404:.\Generated_Source\PSoC4/SERIAL_UART.c ****         {
 405:.\Generated_Source\PSoC4/SERIAL_UART.c ****             /*
 406:.\Generated_Source\PSoC4/SERIAL_UART.c ****             * Read byte directly from RX FIFO: the underflow is raised in case
ARM GAS  C:\Users\Sam\AppData\Local\Temp\cchFDXAg.s 			page 14


 407:.\Generated_Source\PSoC4/SERIAL_UART.c ****             * of empty. In other case the first received byte will be read.
 408:.\Generated_Source\PSoC4/SERIAL_UART.c ****             */
 409:.\Generated_Source\PSoC4/SERIAL_UART.c ****             rxData = SERIAL_RX_FIFO_RD_REG;
 336              		.loc 1 409 0
 337 0028 0D4B     		ldr	r3, .L20+4
 338 002a 1B68     		ldr	r3, [r3]
 339 002c FB60     		str	r3, [r7, #12]
 410:.\Generated_Source\PSoC4/SERIAL_UART.c **** 
 411:.\Generated_Source\PSoC4/SERIAL_UART.c ****             /*
 412:.\Generated_Source\PSoC4/SERIAL_UART.c ****             * Enable interrupt to receive more bytes.
 413:.\Generated_Source\PSoC4/SERIAL_UART.c ****             * The RX_NOT_EMPTY interrupt is cleared by the interrupt routine in case
 414:.\Generated_Source\PSoC4/SERIAL_UART.c ****             * the byte was received and read above.
 415:.\Generated_Source\PSoC4/SERIAL_UART.c ****             */
 416:.\Generated_Source\PSoC4/SERIAL_UART.c ****             SERIAL_SpiUartEnableIntRx(intSourceMask);
 340              		.loc 1 416 0
 341 002e 0B4B     		ldr	r3, .L20
 342 0030 BA68     		ldr	r2, [r7, #8]
 343 0032 1A60     		str	r2, [r3]
 344              	.L18:
 417:.\Generated_Source\PSoC4/SERIAL_UART.c ****         }
 418:.\Generated_Source\PSoC4/SERIAL_UART.c **** 
 419:.\Generated_Source\PSoC4/SERIAL_UART.c ****         /* Get and clear RX error mask */
 420:.\Generated_Source\PSoC4/SERIAL_UART.c ****         tmpStatus = (SERIAL_GetRxInterruptSource() & SERIAL_INTR_RX_ERR);
 345              		.loc 1 420 0
 346 0034 0B4B     		ldr	r3, .L20+8
 347 0036 1A68     		ldr	r2, [r3]
 348 0038 D823     		mov	r3, #216
 349 003a 9B00     		lsl	r3, r3, #2
 350 003c 1340     		and	r3, r2
 351 003e 7B60     		str	r3, [r7, #4]
 421:.\Generated_Source\PSoC4/SERIAL_UART.c ****         SERIAL_ClearRxInterruptSource(SERIAL_INTR_RX_ERR);
 352              		.loc 1 421 0
 353 0040 084B     		ldr	r3, .L20+8
 354 0042 D822     		mov	r2, #216
 355 0044 9200     		lsl	r2, r2, #2
 356 0046 1A60     		str	r2, [r3]
 422:.\Generated_Source\PSoC4/SERIAL_UART.c **** 
 423:.\Generated_Source\PSoC4/SERIAL_UART.c ****         /*
 424:.\Generated_Source\PSoC4/SERIAL_UART.c ****         * Put together data and error status:
 425:.\Generated_Source\PSoC4/SERIAL_UART.c ****         * MP mode and accept address: the 9th bit is set to notify mark.
 426:.\Generated_Source\PSoC4/SERIAL_UART.c ****         */
 427:.\Generated_Source\PSoC4/SERIAL_UART.c ****         rxData |= ((uint32) (tmpStatus << 8u));
 357              		.loc 1 427 0
 358 0048 7B68     		ldr	r3, [r7, #4]
 359 004a 1B02     		lsl	r3, r3, #8
 360 004c FA68     		ldr	r2, [r7, #12]
 361 004e 1343     		orr	r3, r2
 362 0050 FB60     		str	r3, [r7, #12]
 428:.\Generated_Source\PSoC4/SERIAL_UART.c **** 
 429:.\Generated_Source\PSoC4/SERIAL_UART.c ****         return(rxData);
 363              		.loc 1 429 0
 364 0052 FB68     		ldr	r3, [r7, #12]
 430:.\Generated_Source\PSoC4/SERIAL_UART.c ****     }
 365              		.loc 1 430 0
 366 0054 181C     		mov	r0, r3
 367 0056 BD46     		mov	sp, r7
 368 0058 04B0     		add	sp, sp, #16
ARM GAS  C:\Users\Sam\AppData\Local\Temp\cchFDXAg.s 			page 15


 369              		@ sp needed for prologue
 370 005a 80BD     		pop	{r7, pc}
 371              	.L21:
 372              		.align	2
 373              	.L20:
 374 005c C80F0640 		.word	1074139080
 375 0060 40030640 		.word	1074135872
 376 0064 C00F0640 		.word	1074139072
 377              		.cfi_endproc
 378              	.LFE4:
 379              		.size	SERIAL_UartGetByte, .-SERIAL_UartGetByte
 380              		.section	.text.SERIAL_UartPutString,"ax",%progbits
 381              		.align	2
 382              		.global	SERIAL_UartPutString
 383              		.code	16
 384              		.thumb_func
 385              		.type	SERIAL_UartPutString, %function
 386              	SERIAL_UartPutString:
 387              	.LFB5:
 431:.\Generated_Source\PSoC4/SERIAL_UART.c **** 
 432:.\Generated_Source\PSoC4/SERIAL_UART.c **** #endif /* (SERIAL_UART_RX_DIRECTION) */
 433:.\Generated_Source\PSoC4/SERIAL_UART.c **** 
 434:.\Generated_Source\PSoC4/SERIAL_UART.c **** 
 435:.\Generated_Source\PSoC4/SERIAL_UART.c **** #if(SERIAL_UART_TX_DIRECTION)
 436:.\Generated_Source\PSoC4/SERIAL_UART.c ****     /*******************************************************************************
 437:.\Generated_Source\PSoC4/SERIAL_UART.c ****     * Function Name: SERIAL_UartPutString
 438:.\Generated_Source\PSoC4/SERIAL_UART.c ****     ********************************************************************************
 439:.\Generated_Source\PSoC4/SERIAL_UART.c ****     *
 440:.\Generated_Source\PSoC4/SERIAL_UART.c ****     * Summary:
 441:.\Generated_Source\PSoC4/SERIAL_UART.c ****     *  Places a NULL terminated string in the transmit buffer to be sent at the
 442:.\Generated_Source\PSoC4/SERIAL_UART.c ****     *  next available bus time.
 443:.\Generated_Source\PSoC4/SERIAL_UART.c ****     *  This function is blocking and waits until there is space available to put
 444:.\Generated_Source\PSoC4/SERIAL_UART.c ****     *  all the requested data into the  transmit buffer.
 445:.\Generated_Source\PSoC4/SERIAL_UART.c ****     *
 446:.\Generated_Source\PSoC4/SERIAL_UART.c ****     * Parameters:
 447:.\Generated_Source\PSoC4/SERIAL_UART.c ****     *  string: pointer to the null terminated string array to be placed in the
 448:.\Generated_Source\PSoC4/SERIAL_UART.c ****     *          transmit buffer.
 449:.\Generated_Source\PSoC4/SERIAL_UART.c ****     *
 450:.\Generated_Source\PSoC4/SERIAL_UART.c ****     * Return:
 451:.\Generated_Source\PSoC4/SERIAL_UART.c ****     *  None
 452:.\Generated_Source\PSoC4/SERIAL_UART.c ****     *
 453:.\Generated_Source\PSoC4/SERIAL_UART.c ****     *******************************************************************************/
 454:.\Generated_Source\PSoC4/SERIAL_UART.c ****     void SERIAL_UartPutString(const char8 string[])
 455:.\Generated_Source\PSoC4/SERIAL_UART.c ****     {
 388              		.loc 1 455 0
 389              		.cfi_startproc
 390 0000 80B5     		push	{r7, lr}
 391              	.LCFI14:
 392              		.cfi_def_cfa_offset 8
 393              		.cfi_offset 7, -8
 394              		.cfi_offset 14, -4
 395 0002 84B0     		sub	sp, sp, #16
 396              	.LCFI15:
 397              		.cfi_def_cfa_offset 24
 398 0004 00AF     		add	r7, sp, #0
 399              	.LCFI16:
 400              		.cfi_def_cfa_register 7
ARM GAS  C:\Users\Sam\AppData\Local\Temp\cchFDXAg.s 			page 16


 401 0006 7860     		str	r0, [r7, #4]
 456:.\Generated_Source\PSoC4/SERIAL_UART.c ****         uint32 bufIndex;
 457:.\Generated_Source\PSoC4/SERIAL_UART.c **** 
 458:.\Generated_Source\PSoC4/SERIAL_UART.c ****         bufIndex = 0u;
 402              		.loc 1 458 0
 403 0008 0023     		mov	r3, #0
 404 000a FB60     		str	r3, [r7, #12]
 459:.\Generated_Source\PSoC4/SERIAL_UART.c **** 
 460:.\Generated_Source\PSoC4/SERIAL_UART.c ****         /* Block the control flow until all data has been sent */
 461:.\Generated_Source\PSoC4/SERIAL_UART.c ****         while(string[bufIndex] != ((char8) 0))
 405              		.loc 1 461 0
 406 000c 09E0     		b	.L23
 407              	.L24:
 462:.\Generated_Source\PSoC4/SERIAL_UART.c ****         {
 463:.\Generated_Source\PSoC4/SERIAL_UART.c ****             SERIAL_UartPutChar((uint32) string[bufIndex]);
 408              		.loc 1 463 0
 409 000e 7A68     		ldr	r2, [r7, #4]
 410 0010 FB68     		ldr	r3, [r7, #12]
 411 0012 D318     		add	r3, r2, r3
 412 0014 1B78     		ldrb	r3, [r3]
 413 0016 181C     		mov	r0, r3
 414 0018 FFF7FEFF 		bl	SERIAL_SpiUartWriteTxData
 464:.\Generated_Source\PSoC4/SERIAL_UART.c ****             bufIndex++;
 415              		.loc 1 464 0
 416 001c FB68     		ldr	r3, [r7, #12]
 417 001e 0133     		add	r3, r3, #1
 418 0020 FB60     		str	r3, [r7, #12]
 419              	.L23:
 461:.\Generated_Source\PSoC4/SERIAL_UART.c ****         while(string[bufIndex] != ((char8) 0))
 420              		.loc 1 461 0 discriminator 1
 421 0022 7A68     		ldr	r2, [r7, #4]
 422 0024 FB68     		ldr	r3, [r7, #12]
 423 0026 D318     		add	r3, r2, r3
 424 0028 1B78     		ldrb	r3, [r3]
 425 002a 002B     		cmp	r3, #0
 426 002c EFD1     		bne	.L24
 465:.\Generated_Source\PSoC4/SERIAL_UART.c ****         }
 466:.\Generated_Source\PSoC4/SERIAL_UART.c ****     }
 427              		.loc 1 466 0
 428 002e BD46     		mov	sp, r7
 429 0030 04B0     		add	sp, sp, #16
 430              		@ sp needed for prologue
 431 0032 80BD     		pop	{r7, pc}
 432              		.cfi_endproc
 433              	.LFE5:
 434              		.size	SERIAL_UartPutString, .-SERIAL_UartPutString
 435              		.section	.text.SERIAL_UartPutCRLF,"ax",%progbits
 436              		.align	2
 437              		.global	SERIAL_UartPutCRLF
 438              		.code	16
 439              		.thumb_func
 440              		.type	SERIAL_UartPutCRLF, %function
 441              	SERIAL_UartPutCRLF:
 442              	.LFB6:
 467:.\Generated_Source\PSoC4/SERIAL_UART.c **** 
 468:.\Generated_Source\PSoC4/SERIAL_UART.c **** 
 469:.\Generated_Source\PSoC4/SERIAL_UART.c ****     /*******************************************************************************
ARM GAS  C:\Users\Sam\AppData\Local\Temp\cchFDXAg.s 			page 17


 470:.\Generated_Source\PSoC4/SERIAL_UART.c ****     * Function Name: SERIAL_UartPutCRLF
 471:.\Generated_Source\PSoC4/SERIAL_UART.c ****     ********************************************************************************
 472:.\Generated_Source\PSoC4/SERIAL_UART.c ****     *
 473:.\Generated_Source\PSoC4/SERIAL_UART.c ****     * Summary:
 474:.\Generated_Source\PSoC4/SERIAL_UART.c ****     *  Places a byte of data followed by a carriage return (0x0D) and line feed (0x0A)
 475:.\Generated_Source\PSoC4/SERIAL_UART.c ****     *  into the transmit buffer.
 476:.\Generated_Source\PSoC4/SERIAL_UART.c ****     *  This function is blocking and waits until there is space available to put
 477:.\Generated_Source\PSoC4/SERIAL_UART.c ****     *  all the requested data into the  transmit buffer.
 478:.\Generated_Source\PSoC4/SERIAL_UART.c ****     *
 479:.\Generated_Source\PSoC4/SERIAL_UART.c ****     * Parameters:
 480:.\Generated_Source\PSoC4/SERIAL_UART.c ****     *  txDataByte : the data to be transmitted.
 481:.\Generated_Source\PSoC4/SERIAL_UART.c ****     *
 482:.\Generated_Source\PSoC4/SERIAL_UART.c ****     * Return:
 483:.\Generated_Source\PSoC4/SERIAL_UART.c ****     *  None
 484:.\Generated_Source\PSoC4/SERIAL_UART.c ****     *
 485:.\Generated_Source\PSoC4/SERIAL_UART.c ****     *******************************************************************************/
 486:.\Generated_Source\PSoC4/SERIAL_UART.c ****     void SERIAL_UartPutCRLF(uint32 txDataByte)
 487:.\Generated_Source\PSoC4/SERIAL_UART.c ****     {
 443              		.loc 1 487 0
 444              		.cfi_startproc
 445 0000 80B5     		push	{r7, lr}
 446              	.LCFI17:
 447              		.cfi_def_cfa_offset 8
 448              		.cfi_offset 7, -8
 449              		.cfi_offset 14, -4
 450 0002 82B0     		sub	sp, sp, #8
 451              	.LCFI18:
 452              		.cfi_def_cfa_offset 16
 453 0004 00AF     		add	r7, sp, #0
 454              	.LCFI19:
 455              		.cfi_def_cfa_register 7
 456 0006 7860     		str	r0, [r7, #4]
 488:.\Generated_Source\PSoC4/SERIAL_UART.c ****         SERIAL_UartPutChar(txDataByte);  /* Blocks control flow until all data has been sent */
 457              		.loc 1 488 0
 458 0008 7B68     		ldr	r3, [r7, #4]
 459 000a 181C     		mov	r0, r3
 460 000c FFF7FEFF 		bl	SERIAL_SpiUartWriteTxData
 489:.\Generated_Source\PSoC4/SERIAL_UART.c ****         SERIAL_UartPutChar(0x0Du);       /* Blocks control flow until all data has been sent */
 461              		.loc 1 489 0
 462 0010 0D20     		mov	r0, #13
 463 0012 FFF7FEFF 		bl	SERIAL_SpiUartWriteTxData
 490:.\Generated_Source\PSoC4/SERIAL_UART.c ****         SERIAL_UartPutChar(0x0Au);       /* Blocks control flow until all data has been sent */
 464              		.loc 1 490 0
 465 0016 0A20     		mov	r0, #10
 466 0018 FFF7FEFF 		bl	SERIAL_SpiUartWriteTxData
 491:.\Generated_Source\PSoC4/SERIAL_UART.c ****     }
 467              		.loc 1 491 0
 468 001c BD46     		mov	sp, r7
 469 001e 02B0     		add	sp, sp, #8
 470              		@ sp needed for prologue
 471 0020 80BD     		pop	{r7, pc}
 472              		.cfi_endproc
 473              	.LFE6:
 474              		.size	SERIAL_UartPutCRLF, .-SERIAL_UartPutCRLF
 475 0022 C046     		.text
 476              	.Letext0:
 477              		.file 2 "./Generated_Source/PSoC4/cytypes.h"
ARM GAS  C:\Users\Sam\AppData\Local\Temp\cchFDXAg.s 			page 18

