ARM GAS  C:\Users\Sam\AppData\Local\Temp\cc63VrGp.s 			page 1


   1              		.cpu cortex-m0
   2              		.fpu softvfp
   3              		.eabi_attribute 20, 1
   4              		.eabi_attribute 21, 1
   5              		.eabi_attribute 23, 3
   6              		.eabi_attribute 24, 1
   7              		.eabi_attribute 25, 1
   8              		.eabi_attribute 26, 1
   9              		.eabi_attribute 30, 6
  10              		.eabi_attribute 34, 0
  11              		.eabi_attribute 18, 4
  12              		.code	16
  13              		.file	"SERIAL_SPI_UART.c"
  14              		.text
  15              	.Ltext0:
  16              		.cfi_sections	.debug_frame
  17              		.section	.text.SERIAL_SpiUartReadRxData,"ax",%progbits
  18              		.align	2
  19              		.global	SERIAL_SpiUartReadRxData
  20              		.code	16
  21              		.thumb_func
  22              		.type	SERIAL_SpiUartReadRxData, %function
  23              	SERIAL_SpiUartReadRxData:
  24              	.LFB0:
  25              		.file 1 ".\\Generated_Source\\PSoC4\\SERIAL_SPI_UART.c"
   1:.\Generated_Source\PSoC4/SERIAL_SPI_UART.c **** /*******************************************************************************
   2:.\Generated_Source\PSoC4/SERIAL_SPI_UART.c **** * File Name: SERIAL_SPI_UART.c
   3:.\Generated_Source\PSoC4/SERIAL_SPI_UART.c **** * Version 1.20
   4:.\Generated_Source\PSoC4/SERIAL_SPI_UART.c **** *
   5:.\Generated_Source\PSoC4/SERIAL_SPI_UART.c **** * Description:
   6:.\Generated_Source\PSoC4/SERIAL_SPI_UART.c **** *  This file provides the source code to the API for the SCB Component in
   7:.\Generated_Source\PSoC4/SERIAL_SPI_UART.c **** *  SPI and UART modes.
   8:.\Generated_Source\PSoC4/SERIAL_SPI_UART.c **** *
   9:.\Generated_Source\PSoC4/SERIAL_SPI_UART.c **** * Note:
  10:.\Generated_Source\PSoC4/SERIAL_SPI_UART.c **** *
  11:.\Generated_Source\PSoC4/SERIAL_SPI_UART.c **** *******************************************************************************
  12:.\Generated_Source\PSoC4/SERIAL_SPI_UART.c **** * Copyright 2013-2014, Cypress Semiconductor Corporation.  All rights reserved.
  13:.\Generated_Source\PSoC4/SERIAL_SPI_UART.c **** * You may use this file only in accordance with the license, terms, conditions,
  14:.\Generated_Source\PSoC4/SERIAL_SPI_UART.c **** * disclaimers, and limitations in the end user license agreement accompanying
  15:.\Generated_Source\PSoC4/SERIAL_SPI_UART.c **** * the software package with which this file was provided.
  16:.\Generated_Source\PSoC4/SERIAL_SPI_UART.c **** *******************************************************************************/
  17:.\Generated_Source\PSoC4/SERIAL_SPI_UART.c **** 
  18:.\Generated_Source\PSoC4/SERIAL_SPI_UART.c **** #include "SERIAL_PVT.h"
  19:.\Generated_Source\PSoC4/SERIAL_SPI_UART.c **** #include "SERIAL_SPI_UART_PVT.h"
  20:.\Generated_Source\PSoC4/SERIAL_SPI_UART.c **** 
  21:.\Generated_Source\PSoC4/SERIAL_SPI_UART.c **** /***************************************
  22:.\Generated_Source\PSoC4/SERIAL_SPI_UART.c **** *        SPI/UART Private Vars
  23:.\Generated_Source\PSoC4/SERIAL_SPI_UART.c **** ***************************************/
  24:.\Generated_Source\PSoC4/SERIAL_SPI_UART.c **** 
  25:.\Generated_Source\PSoC4/SERIAL_SPI_UART.c **** #if(SERIAL_INTERNAL_RX_SW_BUFFER_CONST)
  26:.\Generated_Source\PSoC4/SERIAL_SPI_UART.c ****     volatile uint32 SERIAL_rxBufferHead;
  27:.\Generated_Source\PSoC4/SERIAL_SPI_UART.c ****     volatile uint32 SERIAL_rxBufferTail;
  28:.\Generated_Source\PSoC4/SERIAL_SPI_UART.c ****     volatile uint8  SERIAL_rxBufferOverflow;
  29:.\Generated_Source\PSoC4/SERIAL_SPI_UART.c **** #endif /* (SERIAL_INTERNAL_RX_SW_BUFFER_CONST) */
  30:.\Generated_Source\PSoC4/SERIAL_SPI_UART.c **** 
  31:.\Generated_Source\PSoC4/SERIAL_SPI_UART.c **** #if(SERIAL_INTERNAL_TX_SW_BUFFER_CONST)
  32:.\Generated_Source\PSoC4/SERIAL_SPI_UART.c ****     volatile uint32 SERIAL_txBufferHead;
ARM GAS  C:\Users\Sam\AppData\Local\Temp\cc63VrGp.s 			page 2


  33:.\Generated_Source\PSoC4/SERIAL_SPI_UART.c ****     volatile uint32 SERIAL_txBufferTail;
  34:.\Generated_Source\PSoC4/SERIAL_SPI_UART.c **** #endif /* (SERIAL_INTERNAL_TX_SW_BUFFER_CONST) */
  35:.\Generated_Source\PSoC4/SERIAL_SPI_UART.c **** 
  36:.\Generated_Source\PSoC4/SERIAL_SPI_UART.c **** #if(SERIAL_INTERNAL_RX_SW_BUFFER)
  37:.\Generated_Source\PSoC4/SERIAL_SPI_UART.c ****     /* Add one element to the buffer to receive full packet. One byte in receive buffer is always e
  38:.\Generated_Source\PSoC4/SERIAL_SPI_UART.c ****     volatile uint8 SERIAL_rxBufferInternal[SERIAL_RX_BUFFER_SIZE];
  39:.\Generated_Source\PSoC4/SERIAL_SPI_UART.c **** #endif /* (SERIAL_INTERNAL_RX_SW_BUFFER) */
  40:.\Generated_Source\PSoC4/SERIAL_SPI_UART.c **** 
  41:.\Generated_Source\PSoC4/SERIAL_SPI_UART.c **** #if(SERIAL_INTERNAL_TX_SW_BUFFER)
  42:.\Generated_Source\PSoC4/SERIAL_SPI_UART.c ****     volatile uint8 SERIAL_txBufferInternal[SERIAL_TX_BUFFER_SIZE];
  43:.\Generated_Source\PSoC4/SERIAL_SPI_UART.c **** #endif /* (SERIAL_INTERNAL_TX_SW_BUFFER) */
  44:.\Generated_Source\PSoC4/SERIAL_SPI_UART.c **** 
  45:.\Generated_Source\PSoC4/SERIAL_SPI_UART.c **** 
  46:.\Generated_Source\PSoC4/SERIAL_SPI_UART.c **** #if(SERIAL_RX_DIRECTION)
  47:.\Generated_Source\PSoC4/SERIAL_SPI_UART.c **** 
  48:.\Generated_Source\PSoC4/SERIAL_SPI_UART.c ****     /*******************************************************************************
  49:.\Generated_Source\PSoC4/SERIAL_SPI_UART.c ****     * Function Name: SERIAL_SpiUartReadRxData
  50:.\Generated_Source\PSoC4/SERIAL_SPI_UART.c ****     ********************************************************************************
  51:.\Generated_Source\PSoC4/SERIAL_SPI_UART.c ****     *
  52:.\Generated_Source\PSoC4/SERIAL_SPI_UART.c ****     * Summary:
  53:.\Generated_Source\PSoC4/SERIAL_SPI_UART.c ****     *  Retrieves the next data element from the receive buffer.
  54:.\Generated_Source\PSoC4/SERIAL_SPI_UART.c ****     *   - RX software buffer is disabled: Returns data element retrieved from
  55:.\Generated_Source\PSoC4/SERIAL_SPI_UART.c ****     *     RX FIFO. Undefined data will be returned if the RX FIFO is empty.
  56:.\Generated_Source\PSoC4/SERIAL_SPI_UART.c ****     *   - RX software buffer is enabled: Returns data element from the software
  57:.\Generated_Source\PSoC4/SERIAL_SPI_UART.c ****     *     receive buffer. Zero value is returned if the software receive buffer
  58:.\Generated_Source\PSoC4/SERIAL_SPI_UART.c ****     *     is empty.
  59:.\Generated_Source\PSoC4/SERIAL_SPI_UART.c ****     *
  60:.\Generated_Source\PSoC4/SERIAL_SPI_UART.c ****     * Parameters:
  61:.\Generated_Source\PSoC4/SERIAL_SPI_UART.c ****     *  None
  62:.\Generated_Source\PSoC4/SERIAL_SPI_UART.c ****     *
  63:.\Generated_Source\PSoC4/SERIAL_SPI_UART.c ****     * Return:
  64:.\Generated_Source\PSoC4/SERIAL_SPI_UART.c ****     *  Next data element from the receive buffer.
  65:.\Generated_Source\PSoC4/SERIAL_SPI_UART.c ****     *
  66:.\Generated_Source\PSoC4/SERIAL_SPI_UART.c ****     * Global Variables:
  67:.\Generated_Source\PSoC4/SERIAL_SPI_UART.c ****     *  Look into SERIAL_SpiInit for description.
  68:.\Generated_Source\PSoC4/SERIAL_SPI_UART.c ****     *
  69:.\Generated_Source\PSoC4/SERIAL_SPI_UART.c ****     *******************************************************************************/
  70:.\Generated_Source\PSoC4/SERIAL_SPI_UART.c ****     uint32 SERIAL_SpiUartReadRxData(void)
  71:.\Generated_Source\PSoC4/SERIAL_SPI_UART.c ****     {
  26              		.loc 1 71 0
  27              		.cfi_startproc
  28 0000 80B5     		push	{r7, lr}
  29              	.LCFI0:
  30              		.cfi_def_cfa_offset 8
  31              		.cfi_offset 7, -8
  32              		.cfi_offset 14, -4
  33 0002 82B0     		sub	sp, sp, #8
  34              	.LCFI1:
  35              		.cfi_def_cfa_offset 16
  36 0004 00AF     		add	r7, sp, #0
  37              	.LCFI2:
  38              		.cfi_def_cfa_register 7
  72:.\Generated_Source\PSoC4/SERIAL_SPI_UART.c ****         uint32 rxData = 0u;
  39              		.loc 1 72 0
  40 0006 0023     		mov	r3, #0
  41 0008 7B60     		str	r3, [r7, #4]
  73:.\Generated_Source\PSoC4/SERIAL_SPI_UART.c **** 
ARM GAS  C:\Users\Sam\AppData\Local\Temp\cc63VrGp.s 			page 3


  74:.\Generated_Source\PSoC4/SERIAL_SPI_UART.c ****         #if(SERIAL_INTERNAL_RX_SW_BUFFER_CONST)
  75:.\Generated_Source\PSoC4/SERIAL_SPI_UART.c ****             uint32 locTail;
  76:.\Generated_Source\PSoC4/SERIAL_SPI_UART.c ****         #endif /* (SERIAL_INTERNAL_RX_SW_BUFFER_CONST) */
  77:.\Generated_Source\PSoC4/SERIAL_SPI_UART.c **** 
  78:.\Generated_Source\PSoC4/SERIAL_SPI_UART.c ****         #if(SERIAL_CHECK_RX_SW_BUFFER)
  79:.\Generated_Source\PSoC4/SERIAL_SPI_UART.c ****         {
  80:.\Generated_Source\PSoC4/SERIAL_SPI_UART.c ****             if(SERIAL_rxBufferHead != SERIAL_rxBufferTail)
  81:.\Generated_Source\PSoC4/SERIAL_SPI_UART.c ****             {
  82:.\Generated_Source\PSoC4/SERIAL_SPI_UART.c ****                 /* There is data in RX software buffer */
  83:.\Generated_Source\PSoC4/SERIAL_SPI_UART.c **** 
  84:.\Generated_Source\PSoC4/SERIAL_SPI_UART.c ****                 /* Calculate index to read from */
  85:.\Generated_Source\PSoC4/SERIAL_SPI_UART.c ****                 locTail = (SERIAL_rxBufferTail + 1u);
  86:.\Generated_Source\PSoC4/SERIAL_SPI_UART.c **** 
  87:.\Generated_Source\PSoC4/SERIAL_SPI_UART.c ****                 if(SERIAL_RX_BUFFER_SIZE == locTail)
  88:.\Generated_Source\PSoC4/SERIAL_SPI_UART.c ****                 {
  89:.\Generated_Source\PSoC4/SERIAL_SPI_UART.c ****                     locTail = 0u;
  90:.\Generated_Source\PSoC4/SERIAL_SPI_UART.c ****                 }
  91:.\Generated_Source\PSoC4/SERIAL_SPI_UART.c **** 
  92:.\Generated_Source\PSoC4/SERIAL_SPI_UART.c ****                 /* Get data from RX software buffer */
  93:.\Generated_Source\PSoC4/SERIAL_SPI_UART.c ****                 rxData = SERIAL_GetWordFromRxBuffer(locTail);
  94:.\Generated_Source\PSoC4/SERIAL_SPI_UART.c **** 
  95:.\Generated_Source\PSoC4/SERIAL_SPI_UART.c ****                 /* Change index in the buffer */
  96:.\Generated_Source\PSoC4/SERIAL_SPI_UART.c ****                 SERIAL_rxBufferTail = locTail;
  97:.\Generated_Source\PSoC4/SERIAL_SPI_UART.c ****             }
  98:.\Generated_Source\PSoC4/SERIAL_SPI_UART.c ****         }
  99:.\Generated_Source\PSoC4/SERIAL_SPI_UART.c ****         #else
 100:.\Generated_Source\PSoC4/SERIAL_SPI_UART.c ****         {
 101:.\Generated_Source\PSoC4/SERIAL_SPI_UART.c ****             rxData = SERIAL_RX_FIFO_RD_REG; /* Read data from RX FIFO */
  42              		.loc 1 101 0
  43 000a 044B     		ldr	r3, .L3
  44 000c 1B68     		ldr	r3, [r3]
  45 000e 7B60     		str	r3, [r7, #4]
 102:.\Generated_Source\PSoC4/SERIAL_SPI_UART.c ****         }
 103:.\Generated_Source\PSoC4/SERIAL_SPI_UART.c ****         #endif
 104:.\Generated_Source\PSoC4/SERIAL_SPI_UART.c **** 
 105:.\Generated_Source\PSoC4/SERIAL_SPI_UART.c ****         return(rxData);
  46              		.loc 1 105 0
  47 0010 7B68     		ldr	r3, [r7, #4]
 106:.\Generated_Source\PSoC4/SERIAL_SPI_UART.c ****     }
  48              		.loc 1 106 0
  49 0012 181C     		mov	r0, r3
  50 0014 BD46     		mov	sp, r7
  51 0016 02B0     		add	sp, sp, #8
  52              		@ sp needed for prologue
  53 0018 80BD     		pop	{r7, pc}
  54              	.L4:
  55 001a C046     		.align	2
  56              	.L3:
  57 001c 40030640 		.word	1074135872
  58              		.cfi_endproc
  59              	.LFE0:
  60              		.size	SERIAL_SpiUartReadRxData, .-SERIAL_SpiUartReadRxData
  61              		.section	.text.SERIAL_SpiUartGetRxBufferSize,"ax",%progbits
  62              		.align	2
  63              		.global	SERIAL_SpiUartGetRxBufferSize
  64              		.code	16
  65              		.thumb_func
ARM GAS  C:\Users\Sam\AppData\Local\Temp\cc63VrGp.s 			page 4


  66              		.type	SERIAL_SpiUartGetRxBufferSize, %function
  67              	SERIAL_SpiUartGetRxBufferSize:
  68              	.LFB1:
 107:.\Generated_Source\PSoC4/SERIAL_SPI_UART.c **** 
 108:.\Generated_Source\PSoC4/SERIAL_SPI_UART.c **** 
 109:.\Generated_Source\PSoC4/SERIAL_SPI_UART.c ****     /*******************************************************************************
 110:.\Generated_Source\PSoC4/SERIAL_SPI_UART.c ****     * Function Name: SERIAL_SpiUartGetRxBufferSize
 111:.\Generated_Source\PSoC4/SERIAL_SPI_UART.c ****     ********************************************************************************
 112:.\Generated_Source\PSoC4/SERIAL_SPI_UART.c ****     *
 113:.\Generated_Source\PSoC4/SERIAL_SPI_UART.c ****     * Summary:
 114:.\Generated_Source\PSoC4/SERIAL_SPI_UART.c ****     *  Returns the number of received data elements in the receive buffer.
 115:.\Generated_Source\PSoC4/SERIAL_SPI_UART.c ****     *   - RX software buffer disabled: returns the number of used entries in
 116:.\Generated_Source\PSoC4/SERIAL_SPI_UART.c ****     *     RX FIFO.
 117:.\Generated_Source\PSoC4/SERIAL_SPI_UART.c ****     *   - RX software buffer enabled: returns the number of elements which were
 118:.\Generated_Source\PSoC4/SERIAL_SPI_UART.c ****     *     placed in the receive buffer.
 119:.\Generated_Source\PSoC4/SERIAL_SPI_UART.c ****     *
 120:.\Generated_Source\PSoC4/SERIAL_SPI_UART.c ****     * Parameters:
 121:.\Generated_Source\PSoC4/SERIAL_SPI_UART.c ****     *  None
 122:.\Generated_Source\PSoC4/SERIAL_SPI_UART.c ****     *
 123:.\Generated_Source\PSoC4/SERIAL_SPI_UART.c ****     * Return:
 124:.\Generated_Source\PSoC4/SERIAL_SPI_UART.c ****     *  Number of received data elements
 125:.\Generated_Source\PSoC4/SERIAL_SPI_UART.c ****     *
 126:.\Generated_Source\PSoC4/SERIAL_SPI_UART.c ****     *******************************************************************************/
 127:.\Generated_Source\PSoC4/SERIAL_SPI_UART.c ****     uint32 SERIAL_SpiUartGetRxBufferSize(void)
 128:.\Generated_Source\PSoC4/SERIAL_SPI_UART.c ****     {
  69              		.loc 1 128 0
  70              		.cfi_startproc
  71 0000 80B5     		push	{r7, lr}
  72              	.LCFI3:
  73              		.cfi_def_cfa_offset 8
  74              		.cfi_offset 7, -8
  75              		.cfi_offset 14, -4
  76 0002 82B0     		sub	sp, sp, #8
  77              	.LCFI4:
  78              		.cfi_def_cfa_offset 16
  79 0004 00AF     		add	r7, sp, #0
  80              	.LCFI5:
  81              		.cfi_def_cfa_register 7
 129:.\Generated_Source\PSoC4/SERIAL_SPI_UART.c ****         uint32 size;
 130:.\Generated_Source\PSoC4/SERIAL_SPI_UART.c ****         #if(SERIAL_INTERNAL_RX_SW_BUFFER_CONST)
 131:.\Generated_Source\PSoC4/SERIAL_SPI_UART.c ****             uint32 locHead;
 132:.\Generated_Source\PSoC4/SERIAL_SPI_UART.c ****         #endif /* (SERIAL_INTERNAL_RX_SW_BUFFER_CONST) */
 133:.\Generated_Source\PSoC4/SERIAL_SPI_UART.c **** 
 134:.\Generated_Source\PSoC4/SERIAL_SPI_UART.c ****         #if(SERIAL_CHECK_RX_SW_BUFFER)
 135:.\Generated_Source\PSoC4/SERIAL_SPI_UART.c ****         {
 136:.\Generated_Source\PSoC4/SERIAL_SPI_UART.c ****             locHead = SERIAL_rxBufferHead;
 137:.\Generated_Source\PSoC4/SERIAL_SPI_UART.c **** 
 138:.\Generated_Source\PSoC4/SERIAL_SPI_UART.c ****             if(locHead >= SERIAL_rxBufferTail)
 139:.\Generated_Source\PSoC4/SERIAL_SPI_UART.c ****             {
 140:.\Generated_Source\PSoC4/SERIAL_SPI_UART.c ****                 size = (locHead - SERIAL_rxBufferTail);
 141:.\Generated_Source\PSoC4/SERIAL_SPI_UART.c ****             }
 142:.\Generated_Source\PSoC4/SERIAL_SPI_UART.c ****             else
 143:.\Generated_Source\PSoC4/SERIAL_SPI_UART.c ****             {
 144:.\Generated_Source\PSoC4/SERIAL_SPI_UART.c ****                 size = (locHead + (SERIAL_RX_BUFFER_SIZE - SERIAL_rxBufferTail));
 145:.\Generated_Source\PSoC4/SERIAL_SPI_UART.c ****             }
 146:.\Generated_Source\PSoC4/SERIAL_SPI_UART.c ****         }
 147:.\Generated_Source\PSoC4/SERIAL_SPI_UART.c ****         #else
ARM GAS  C:\Users\Sam\AppData\Local\Temp\cc63VrGp.s 			page 5


 148:.\Generated_Source\PSoC4/SERIAL_SPI_UART.c ****         {
 149:.\Generated_Source\PSoC4/SERIAL_SPI_UART.c ****             size = SERIAL_GET_RX_FIFO_ENTRIES;
  82              		.loc 1 149 0
  83 0006 054B     		ldr	r3, .L7
  84 0008 1A68     		ldr	r2, [r3]
  85 000a 0F23     		mov	r3, #15
  86 000c 1340     		and	r3, r2
  87 000e 7B60     		str	r3, [r7, #4]
 150:.\Generated_Source\PSoC4/SERIAL_SPI_UART.c ****         }
 151:.\Generated_Source\PSoC4/SERIAL_SPI_UART.c ****         #endif
 152:.\Generated_Source\PSoC4/SERIAL_SPI_UART.c **** 
 153:.\Generated_Source\PSoC4/SERIAL_SPI_UART.c ****         return(size);
  88              		.loc 1 153 0
  89 0010 7B68     		ldr	r3, [r7, #4]
 154:.\Generated_Source\PSoC4/SERIAL_SPI_UART.c ****     }
  90              		.loc 1 154 0
  91 0012 181C     		mov	r0, r3
  92 0014 BD46     		mov	sp, r7
  93 0016 02B0     		add	sp, sp, #8
  94              		@ sp needed for prologue
  95 0018 80BD     		pop	{r7, pc}
  96              	.L8:
  97 001a C046     		.align	2
  98              	.L7:
  99 001c 08030640 		.word	1074135816
 100              		.cfi_endproc
 101              	.LFE1:
 102              		.size	SERIAL_SpiUartGetRxBufferSize, .-SERIAL_SpiUartGetRxBufferSize
 103              		.section	.text.SERIAL_SpiUartClearRxBuffer,"ax",%progbits
 104              		.align	2
 105              		.global	SERIAL_SpiUartClearRxBuffer
 106              		.code	16
 107              		.thumb_func
 108              		.type	SERIAL_SpiUartClearRxBuffer, %function
 109              	SERIAL_SpiUartClearRxBuffer:
 110              	.LFB2:
 155:.\Generated_Source\PSoC4/SERIAL_SPI_UART.c **** 
 156:.\Generated_Source\PSoC4/SERIAL_SPI_UART.c **** 
 157:.\Generated_Source\PSoC4/SERIAL_SPI_UART.c ****     /*******************************************************************************
 158:.\Generated_Source\PSoC4/SERIAL_SPI_UART.c ****     * Function Name: SERIAL_SpiUartClearRxBuffer
 159:.\Generated_Source\PSoC4/SERIAL_SPI_UART.c ****     ********************************************************************************
 160:.\Generated_Source\PSoC4/SERIAL_SPI_UART.c ****     *
 161:.\Generated_Source\PSoC4/SERIAL_SPI_UART.c ****     * Summary:
 162:.\Generated_Source\PSoC4/SERIAL_SPI_UART.c ****     *  Clears the receive buffer and RX FIFO.
 163:.\Generated_Source\PSoC4/SERIAL_SPI_UART.c ****     *
 164:.\Generated_Source\PSoC4/SERIAL_SPI_UART.c ****     * Parameters:
 165:.\Generated_Source\PSoC4/SERIAL_SPI_UART.c ****     *  None
 166:.\Generated_Source\PSoC4/SERIAL_SPI_UART.c ****     *
 167:.\Generated_Source\PSoC4/SERIAL_SPI_UART.c ****     * Return:
 168:.\Generated_Source\PSoC4/SERIAL_SPI_UART.c ****     *  None
 169:.\Generated_Source\PSoC4/SERIAL_SPI_UART.c ****     *
 170:.\Generated_Source\PSoC4/SERIAL_SPI_UART.c ****     *******************************************************************************/
 171:.\Generated_Source\PSoC4/SERIAL_SPI_UART.c ****     void SERIAL_SpiUartClearRxBuffer(void)
 172:.\Generated_Source\PSoC4/SERIAL_SPI_UART.c ****     {
 111              		.loc 1 172 0
 112              		.cfi_startproc
 113 0000 80B5     		push	{r7, lr}
ARM GAS  C:\Users\Sam\AppData\Local\Temp\cc63VrGp.s 			page 6


 114              	.LCFI6:
 115              		.cfi_def_cfa_offset 8
 116              		.cfi_offset 7, -8
 117              		.cfi_offset 14, -4
 118 0002 00AF     		add	r7, sp, #0
 119              	.LCFI7:
 120              		.cfi_def_cfa_register 7
 173:.\Generated_Source\PSoC4/SERIAL_SPI_UART.c ****         #if(SERIAL_INTERNAL_RX_SW_BUFFER_CONST)
 174:.\Generated_Source\PSoC4/SERIAL_SPI_UART.c ****             uint32 intSourceMask;
 175:.\Generated_Source\PSoC4/SERIAL_SPI_UART.c ****         #endif /* (SERIAL_INTERNAL_RX_SW_BUFFER_CONST) */
 176:.\Generated_Source\PSoC4/SERIAL_SPI_UART.c **** 
 177:.\Generated_Source\PSoC4/SERIAL_SPI_UART.c ****         #if(SERIAL_CHECK_RX_SW_BUFFER)
 178:.\Generated_Source\PSoC4/SERIAL_SPI_UART.c ****         {
 179:.\Generated_Source\PSoC4/SERIAL_SPI_UART.c ****             intSourceMask = SERIAL_SpiUartDisableIntRx();
 180:.\Generated_Source\PSoC4/SERIAL_SPI_UART.c **** 
 181:.\Generated_Source\PSoC4/SERIAL_SPI_UART.c ****             SERIAL_CLEAR_RX_FIFO;
 182:.\Generated_Source\PSoC4/SERIAL_SPI_UART.c **** 
 183:.\Generated_Source\PSoC4/SERIAL_SPI_UART.c ****             /* Flush RX software buffer */
 184:.\Generated_Source\PSoC4/SERIAL_SPI_UART.c ****             SERIAL_rxBufferHead     = SERIAL_rxBufferTail;
 185:.\Generated_Source\PSoC4/SERIAL_SPI_UART.c ****             SERIAL_rxBufferOverflow = 0u;
 186:.\Generated_Source\PSoC4/SERIAL_SPI_UART.c **** 
 187:.\Generated_Source\PSoC4/SERIAL_SPI_UART.c ****             /* End RX transfer */
 188:.\Generated_Source\PSoC4/SERIAL_SPI_UART.c ****             SERIAL_ClearRxInterruptSource(SERIAL_INTR_RX_ALL);
 189:.\Generated_Source\PSoC4/SERIAL_SPI_UART.c **** 
 190:.\Generated_Source\PSoC4/SERIAL_SPI_UART.c ****             SERIAL_SpiUartEnableIntRx(intSourceMask);
 191:.\Generated_Source\PSoC4/SERIAL_SPI_UART.c ****         }
 192:.\Generated_Source\PSoC4/SERIAL_SPI_UART.c ****         #else
 193:.\Generated_Source\PSoC4/SERIAL_SPI_UART.c ****         {
 194:.\Generated_Source\PSoC4/SERIAL_SPI_UART.c ****             SERIAL_CLEAR_RX_FIFO;
 121              		.loc 1 194 0
 122 0004 074B     		ldr	r3, .L10
 123 0006 074A     		ldr	r2, .L10
 124 0008 1268     		ldr	r2, [r2]
 125 000a 8021     		mov	r1, #128
 126 000c 4902     		lsl	r1, r1, #9
 127 000e 0A43     		orr	r2, r1
 128 0010 1A60     		str	r2, [r3]
 129 0012 044B     		ldr	r3, .L10
 130 0014 034A     		ldr	r2, .L10
 131 0016 1168     		ldr	r1, [r2]
 132 0018 034A     		ldr	r2, .L10+4
 133 001a 0A40     		and	r2, r1
 134 001c 1A60     		str	r2, [r3]
 195:.\Generated_Source\PSoC4/SERIAL_SPI_UART.c ****         }
 196:.\Generated_Source\PSoC4/SERIAL_SPI_UART.c ****         #endif
 197:.\Generated_Source\PSoC4/SERIAL_SPI_UART.c ****     }
 135              		.loc 1 197 0
 136 001e BD46     		mov	sp, r7
 137              		@ sp needed for prologue
 138 0020 80BD     		pop	{r7, pc}
 139              	.L11:
 140 0022 C046     		.align	2
 141              	.L10:
 142 0024 04030640 		.word	1074135812
 143 0028 FFFFFEFF 		.word	-65537
 144              		.cfi_endproc
 145              	.LFE2:
ARM GAS  C:\Users\Sam\AppData\Local\Temp\cc63VrGp.s 			page 7


 146              		.size	SERIAL_SpiUartClearRxBuffer, .-SERIAL_SpiUartClearRxBuffer
 147              		.section	.text.SERIAL_SpiUartWriteTxData,"ax",%progbits
 148              		.align	2
 149              		.global	SERIAL_SpiUartWriteTxData
 150              		.code	16
 151              		.thumb_func
 152              		.type	SERIAL_SpiUartWriteTxData, %function
 153              	SERIAL_SpiUartWriteTxData:
 154              	.LFB3:
 198:.\Generated_Source\PSoC4/SERIAL_SPI_UART.c **** 
 199:.\Generated_Source\PSoC4/SERIAL_SPI_UART.c **** #endif /* (SERIAL_RX_DIRECTION) */
 200:.\Generated_Source\PSoC4/SERIAL_SPI_UART.c **** 
 201:.\Generated_Source\PSoC4/SERIAL_SPI_UART.c **** 
 202:.\Generated_Source\PSoC4/SERIAL_SPI_UART.c **** #if(SERIAL_TX_DIRECTION)
 203:.\Generated_Source\PSoC4/SERIAL_SPI_UART.c **** 
 204:.\Generated_Source\PSoC4/SERIAL_SPI_UART.c ****     /*******************************************************************************
 205:.\Generated_Source\PSoC4/SERIAL_SPI_UART.c ****     * Function Name: SERIAL_SpiUartWriteTxData
 206:.\Generated_Source\PSoC4/SERIAL_SPI_UART.c ****     ********************************************************************************
 207:.\Generated_Source\PSoC4/SERIAL_SPI_UART.c ****     *
 208:.\Generated_Source\PSoC4/SERIAL_SPI_UART.c ****     * Summary:
 209:.\Generated_Source\PSoC4/SERIAL_SPI_UART.c ****     *  Places a data entry into the transmit buffer to be sent at the next available
 210:.\Generated_Source\PSoC4/SERIAL_SPI_UART.c ****     *  bus time.
 211:.\Generated_Source\PSoC4/SERIAL_SPI_UART.c ****     *  This function is blocking and waits until there is space available to put the
 212:.\Generated_Source\PSoC4/SERIAL_SPI_UART.c ****     *  requested data in the transmit buffer.
 213:.\Generated_Source\PSoC4/SERIAL_SPI_UART.c ****     *
 214:.\Generated_Source\PSoC4/SERIAL_SPI_UART.c ****     * Parameters:
 215:.\Generated_Source\PSoC4/SERIAL_SPI_UART.c ****     *  txDataByte: the data to be transmitted.
 216:.\Generated_Source\PSoC4/SERIAL_SPI_UART.c ****     *
 217:.\Generated_Source\PSoC4/SERIAL_SPI_UART.c ****     * Return:
 218:.\Generated_Source\PSoC4/SERIAL_SPI_UART.c ****     *  None
 219:.\Generated_Source\PSoC4/SERIAL_SPI_UART.c ****     *
 220:.\Generated_Source\PSoC4/SERIAL_SPI_UART.c ****     *******************************************************************************/
 221:.\Generated_Source\PSoC4/SERIAL_SPI_UART.c ****     void SERIAL_SpiUartWriteTxData(uint32 txData)
 222:.\Generated_Source\PSoC4/SERIAL_SPI_UART.c ****     {
 155              		.loc 1 222 0
 156              		.cfi_startproc
 157 0000 80B5     		push	{r7, lr}
 158              	.LCFI8:
 159              		.cfi_def_cfa_offset 8
 160              		.cfi_offset 7, -8
 161              		.cfi_offset 14, -4
 162 0002 82B0     		sub	sp, sp, #8
 163              	.LCFI9:
 164              		.cfi_def_cfa_offset 16
 165 0004 00AF     		add	r7, sp, #0
 166              	.LCFI10:
 167              		.cfi_def_cfa_register 7
 168 0006 7860     		str	r0, [r7, #4]
 223:.\Generated_Source\PSoC4/SERIAL_SPI_UART.c ****         #if(SERIAL_INTERNAL_TX_SW_BUFFER_CONST)
 224:.\Generated_Source\PSoC4/SERIAL_SPI_UART.c ****             uint32 locHead;
 225:.\Generated_Source\PSoC4/SERIAL_SPI_UART.c ****             uint32 intSourceMask;
 226:.\Generated_Source\PSoC4/SERIAL_SPI_UART.c ****         #endif /* (SERIAL_INTERNAL_TX_SW_BUFFER_CONST) */
 227:.\Generated_Source\PSoC4/SERIAL_SPI_UART.c **** 
 228:.\Generated_Source\PSoC4/SERIAL_SPI_UART.c ****         #if(SERIAL_CHECK_TX_SW_BUFFER)
 229:.\Generated_Source\PSoC4/SERIAL_SPI_UART.c ****         {
 230:.\Generated_Source\PSoC4/SERIAL_SPI_UART.c ****             /* Head index to put data */
 231:.\Generated_Source\PSoC4/SERIAL_SPI_UART.c ****             locHead = (SERIAL_txBufferHead + 1u);
ARM GAS  C:\Users\Sam\AppData\Local\Temp\cc63VrGp.s 			page 8


 232:.\Generated_Source\PSoC4/SERIAL_SPI_UART.c **** 
 233:.\Generated_Source\PSoC4/SERIAL_SPI_UART.c ****             /* Adjust TX software buffer index */
 234:.\Generated_Source\PSoC4/SERIAL_SPI_UART.c ****             if(SERIAL_TX_BUFFER_SIZE == locHead)
 235:.\Generated_Source\PSoC4/SERIAL_SPI_UART.c ****             {
 236:.\Generated_Source\PSoC4/SERIAL_SPI_UART.c ****                 locHead = 0u;
 237:.\Generated_Source\PSoC4/SERIAL_SPI_UART.c ****             }
 238:.\Generated_Source\PSoC4/SERIAL_SPI_UART.c **** 
 239:.\Generated_Source\PSoC4/SERIAL_SPI_UART.c ****             while(locHead == SERIAL_txBufferTail)
 240:.\Generated_Source\PSoC4/SERIAL_SPI_UART.c ****             {
 241:.\Generated_Source\PSoC4/SERIAL_SPI_UART.c ****                 /* Wait for space in TX software buffer */
 242:.\Generated_Source\PSoC4/SERIAL_SPI_UART.c ****             }
 243:.\Generated_Source\PSoC4/SERIAL_SPI_UART.c **** 
 244:.\Generated_Source\PSoC4/SERIAL_SPI_UART.c ****             /* TX software buffer has at least one room */
 245:.\Generated_Source\PSoC4/SERIAL_SPI_UART.c **** 
 246:.\Generated_Source\PSoC4/SERIAL_SPI_UART.c ****             if((SERIAL_txBufferHead == SERIAL_txBufferTail) &&
 247:.\Generated_Source\PSoC4/SERIAL_SPI_UART.c ****                (SERIAL_FIFO_SIZE != SERIAL_GET_TX_FIFO_ENTRIES))
 248:.\Generated_Source\PSoC4/SERIAL_SPI_UART.c ****             {
 249:.\Generated_Source\PSoC4/SERIAL_SPI_UART.c ****                 /* TX software buffer is empty: put data directly in TX FIFO */
 250:.\Generated_Source\PSoC4/SERIAL_SPI_UART.c ****                 SERIAL_TX_FIFO_WR_REG = txData;
 251:.\Generated_Source\PSoC4/SERIAL_SPI_UART.c ****             }
 252:.\Generated_Source\PSoC4/SERIAL_SPI_UART.c ****             /* Put data in TX software buffer */
 253:.\Generated_Source\PSoC4/SERIAL_SPI_UART.c ****             else
 254:.\Generated_Source\PSoC4/SERIAL_SPI_UART.c ****             {
 255:.\Generated_Source\PSoC4/SERIAL_SPI_UART.c ****                 /* Clear old status of INTR_TX_NOT_FULL. It sets at the end of transfer when TX FIF
 256:.\Generated_Source\PSoC4/SERIAL_SPI_UART.c ****                 SERIAL_ClearTxInterruptSource(SERIAL_INTR_TX_NOT_FULL);
 257:.\Generated_Source\PSoC4/SERIAL_SPI_UART.c **** 
 258:.\Generated_Source\PSoC4/SERIAL_SPI_UART.c ****                 SERIAL_PutWordInTxBuffer(locHead, txData);
 259:.\Generated_Source\PSoC4/SERIAL_SPI_UART.c **** 
 260:.\Generated_Source\PSoC4/SERIAL_SPI_UART.c ****                 SERIAL_txBufferHead = locHead;
 261:.\Generated_Source\PSoC4/SERIAL_SPI_UART.c **** 
 262:.\Generated_Source\PSoC4/SERIAL_SPI_UART.c ****                 /* Enable interrupt to transmit */
 263:.\Generated_Source\PSoC4/SERIAL_SPI_UART.c ****                 intSourceMask  = SERIAL_INTR_TX_NOT_FULL;
 264:.\Generated_Source\PSoC4/SERIAL_SPI_UART.c ****                 intSourceMask |= SERIAL_GetTxInterruptMode();
 265:.\Generated_Source\PSoC4/SERIAL_SPI_UART.c ****                 SERIAL_SpiUartEnableIntTx(intSourceMask);
 266:.\Generated_Source\PSoC4/SERIAL_SPI_UART.c ****             }
 267:.\Generated_Source\PSoC4/SERIAL_SPI_UART.c ****         }
 268:.\Generated_Source\PSoC4/SERIAL_SPI_UART.c ****         #else
 269:.\Generated_Source\PSoC4/SERIAL_SPI_UART.c ****         {
 270:.\Generated_Source\PSoC4/SERIAL_SPI_UART.c ****             while(SERIAL_FIFO_SIZE == SERIAL_GET_TX_FIFO_ENTRIES)
 169              		.loc 1 270 0
 170 0008 C046     		mov	r8, r8
 171              	.L13:
 172              		.loc 1 270 0 is_stmt 0 discriminator 1
 173 000a 064B     		ldr	r3, .L14
 174 000c 1A68     		ldr	r2, [r3]
 175 000e 0F23     		mov	r3, #15
 176 0010 1340     		and	r3, r2
 177 0012 082B     		cmp	r3, #8
 178 0014 F9D0     		beq	.L13
 271:.\Generated_Source\PSoC4/SERIAL_SPI_UART.c ****             {
 272:.\Generated_Source\PSoC4/SERIAL_SPI_UART.c ****                 /* Block while TX FIFO is FULL */
 273:.\Generated_Source\PSoC4/SERIAL_SPI_UART.c ****             }
 274:.\Generated_Source\PSoC4/SERIAL_SPI_UART.c **** 
 275:.\Generated_Source\PSoC4/SERIAL_SPI_UART.c ****             SERIAL_TX_FIFO_WR_REG = txData;
 179              		.loc 1 275 0 is_stmt 1
 180 0016 044B     		ldr	r3, .L14+4
 181 0018 7A68     		ldr	r2, [r7, #4]
ARM GAS  C:\Users\Sam\AppData\Local\Temp\cc63VrGp.s 			page 9


 182 001a 1A60     		str	r2, [r3]
 276:.\Generated_Source\PSoC4/SERIAL_SPI_UART.c ****         }
 277:.\Generated_Source\PSoC4/SERIAL_SPI_UART.c ****         #endif
 278:.\Generated_Source\PSoC4/SERIAL_SPI_UART.c ****     }
 183              		.loc 1 278 0
 184 001c BD46     		mov	sp, r7
 185 001e 02B0     		add	sp, sp, #8
 186              		@ sp needed for prologue
 187 0020 80BD     		pop	{r7, pc}
 188              	.L15:
 189 0022 C046     		.align	2
 190              	.L14:
 191 0024 08020640 		.word	1074135560
 192 0028 40020640 		.word	1074135616
 193              		.cfi_endproc
 194              	.LFE3:
 195              		.size	SERIAL_SpiUartWriteTxData, .-SERIAL_SpiUartWriteTxData
 196              		.section	.text.SERIAL_SpiUartPutArray,"ax",%progbits
 197              		.align	2
 198              		.global	SERIAL_SpiUartPutArray
 199              		.code	16
 200              		.thumb_func
 201              		.type	SERIAL_SpiUartPutArray, %function
 202              	SERIAL_SpiUartPutArray:
 203              	.LFB4:
 279:.\Generated_Source\PSoC4/SERIAL_SPI_UART.c **** 
 280:.\Generated_Source\PSoC4/SERIAL_SPI_UART.c **** 
 281:.\Generated_Source\PSoC4/SERIAL_SPI_UART.c ****     /*******************************************************************************
 282:.\Generated_Source\PSoC4/SERIAL_SPI_UART.c ****     * Function Name: SERIAL_SpiUartPutArray
 283:.\Generated_Source\PSoC4/SERIAL_SPI_UART.c ****     ********************************************************************************
 284:.\Generated_Source\PSoC4/SERIAL_SPI_UART.c ****     *
 285:.\Generated_Source\PSoC4/SERIAL_SPI_UART.c ****     * Summary:
 286:.\Generated_Source\PSoC4/SERIAL_SPI_UART.c ****     *  Places an array of data into the transmit buffer to be sent.
 287:.\Generated_Source\PSoC4/SERIAL_SPI_UART.c ****     *  This function is blocking and waits until there is a space available to put
 288:.\Generated_Source\PSoC4/SERIAL_SPI_UART.c ****     *  all the requested data in the transmit buffer. The array size can be greater
 289:.\Generated_Source\PSoC4/SERIAL_SPI_UART.c ****     *  than transmit buffer size.
 290:.\Generated_Source\PSoC4/SERIAL_SPI_UART.c ****     *
 291:.\Generated_Source\PSoC4/SERIAL_SPI_UART.c ****     * Parameters:
 292:.\Generated_Source\PSoC4/SERIAL_SPI_UART.c ****     *  wrBuf:  pointer to an array with data to be placed in transmit buffer.
 293:.\Generated_Source\PSoC4/SERIAL_SPI_UART.c ****     *  count:  number of data elements to be placed in the transmit buffer.
 294:.\Generated_Source\PSoC4/SERIAL_SPI_UART.c ****     *
 295:.\Generated_Source\PSoC4/SERIAL_SPI_UART.c ****     * Return:
 296:.\Generated_Source\PSoC4/SERIAL_SPI_UART.c ****     *  None
 297:.\Generated_Source\PSoC4/SERIAL_SPI_UART.c ****     *
 298:.\Generated_Source\PSoC4/SERIAL_SPI_UART.c ****     *******************************************************************************/
 299:.\Generated_Source\PSoC4/SERIAL_SPI_UART.c ****     void SERIAL_SpiUartPutArray(const uint8 wrBuf[], uint32 count)
 300:.\Generated_Source\PSoC4/SERIAL_SPI_UART.c ****     {
 204              		.loc 1 300 0
 205              		.cfi_startproc
 206 0000 80B5     		push	{r7, lr}
 207              	.LCFI11:
 208              		.cfi_def_cfa_offset 8
 209              		.cfi_offset 7, -8
 210              		.cfi_offset 14, -4
 211 0002 84B0     		sub	sp, sp, #16
 212              	.LCFI12:
 213              		.cfi_def_cfa_offset 24
ARM GAS  C:\Users\Sam\AppData\Local\Temp\cc63VrGp.s 			page 10


 214 0004 00AF     		add	r7, sp, #0
 215              	.LCFI13:
 216              		.cfi_def_cfa_register 7
 217 0006 7860     		str	r0, [r7, #4]
 218 0008 3960     		str	r1, [r7]
 301:.\Generated_Source\PSoC4/SERIAL_SPI_UART.c ****         uint32 i;
 302:.\Generated_Source\PSoC4/SERIAL_SPI_UART.c **** 
 303:.\Generated_Source\PSoC4/SERIAL_SPI_UART.c ****         for(i=0u; i < count; i++)
 219              		.loc 1 303 0
 220 000a 0023     		mov	r3, #0
 221 000c FB60     		str	r3, [r7, #12]
 222 000e 09E0     		b	.L17
 223              	.L18:
 304:.\Generated_Source\PSoC4/SERIAL_SPI_UART.c ****         {
 305:.\Generated_Source\PSoC4/SERIAL_SPI_UART.c ****             SERIAL_SpiUartWriteTxData((uint32) wrBuf[i]);
 224              		.loc 1 305 0 discriminator 2
 225 0010 7A68     		ldr	r2, [r7, #4]
 226 0012 FB68     		ldr	r3, [r7, #12]
 227 0014 D318     		add	r3, r2, r3
 228 0016 1B78     		ldrb	r3, [r3]
 229 0018 181C     		mov	r0, r3
 230 001a FFF7FEFF 		bl	SERIAL_SpiUartWriteTxData
 303:.\Generated_Source\PSoC4/SERIAL_SPI_UART.c ****         for(i=0u; i < count; i++)
 231              		.loc 1 303 0 discriminator 2
 232 001e FB68     		ldr	r3, [r7, #12]
 233 0020 0133     		add	r3, r3, #1
 234 0022 FB60     		str	r3, [r7, #12]
 235              	.L17:
 303:.\Generated_Source\PSoC4/SERIAL_SPI_UART.c ****         for(i=0u; i < count; i++)
 236              		.loc 1 303 0 is_stmt 0 discriminator 1
 237 0024 FA68     		ldr	r2, [r7, #12]
 238 0026 3B68     		ldr	r3, [r7]
 239 0028 9A42     		cmp	r2, r3
 240 002a F1D3     		bcc	.L18
 306:.\Generated_Source\PSoC4/SERIAL_SPI_UART.c ****         }
 307:.\Generated_Source\PSoC4/SERIAL_SPI_UART.c ****     }
 241              		.loc 1 307 0 is_stmt 1
 242 002c BD46     		mov	sp, r7
 243 002e 04B0     		add	sp, sp, #16
 244              		@ sp needed for prologue
 245 0030 80BD     		pop	{r7, pc}
 246              		.cfi_endproc
 247              	.LFE4:
 248              		.size	SERIAL_SpiUartPutArray, .-SERIAL_SpiUartPutArray
 249 0032 C046     		.section	.text.SERIAL_SpiUartGetTxBufferSize,"ax",%progbits
 250              		.align	2
 251              		.global	SERIAL_SpiUartGetTxBufferSize
 252              		.code	16
 253              		.thumb_func
 254              		.type	SERIAL_SpiUartGetTxBufferSize, %function
 255              	SERIAL_SpiUartGetTxBufferSize:
 256              	.LFB5:
 308:.\Generated_Source\PSoC4/SERIAL_SPI_UART.c **** 
 309:.\Generated_Source\PSoC4/SERIAL_SPI_UART.c **** 
 310:.\Generated_Source\PSoC4/SERIAL_SPI_UART.c ****     /*******************************************************************************
 311:.\Generated_Source\PSoC4/SERIAL_SPI_UART.c ****     * Function Name: SERIAL_SpiUartGetTxBufferSize
 312:.\Generated_Source\PSoC4/SERIAL_SPI_UART.c ****     ********************************************************************************
ARM GAS  C:\Users\Sam\AppData\Local\Temp\cc63VrGp.s 			page 11


 313:.\Generated_Source\PSoC4/SERIAL_SPI_UART.c ****     *
 314:.\Generated_Source\PSoC4/SERIAL_SPI_UART.c ****     * Summary:
 315:.\Generated_Source\PSoC4/SERIAL_SPI_UART.c ****     * Returns the number of elements currently in the transmit buffer.
 316:.\Generated_Source\PSoC4/SERIAL_SPI_UART.c ****     *  - TX software buffer is disabled: returns the number of used entries in
 317:.\Generated_Source\PSoC4/SERIAL_SPI_UART.c ****     *    TX FIFO.
 318:.\Generated_Source\PSoC4/SERIAL_SPI_UART.c ****     *  - TX software buffer is enabled: returns the number of elements currently
 319:.\Generated_Source\PSoC4/SERIAL_SPI_UART.c ****     *    used in the transmit buffer. This number does not include used entries in
 320:.\Generated_Source\PSoC4/SERIAL_SPI_UART.c ****     *    the TX FIFO. The transmit buffer size is zero until the TX FIFO is
 321:.\Generated_Source\PSoC4/SERIAL_SPI_UART.c ****     *    not full.
 322:.\Generated_Source\PSoC4/SERIAL_SPI_UART.c ****     *
 323:.\Generated_Source\PSoC4/SERIAL_SPI_UART.c ****     * Parameters:
 324:.\Generated_Source\PSoC4/SERIAL_SPI_UART.c ****     *  None
 325:.\Generated_Source\PSoC4/SERIAL_SPI_UART.c ****     *
 326:.\Generated_Source\PSoC4/SERIAL_SPI_UART.c ****     * Return:
 327:.\Generated_Source\PSoC4/SERIAL_SPI_UART.c ****     *  Number of data elements ready to transmit.
 328:.\Generated_Source\PSoC4/SERIAL_SPI_UART.c ****     *
 329:.\Generated_Source\PSoC4/SERIAL_SPI_UART.c ****     *******************************************************************************/
 330:.\Generated_Source\PSoC4/SERIAL_SPI_UART.c ****     uint32 SERIAL_SpiUartGetTxBufferSize(void)
 331:.\Generated_Source\PSoC4/SERIAL_SPI_UART.c ****     {
 257              		.loc 1 331 0
 258              		.cfi_startproc
 259 0000 80B5     		push	{r7, lr}
 260              	.LCFI14:
 261              		.cfi_def_cfa_offset 8
 262              		.cfi_offset 7, -8
 263              		.cfi_offset 14, -4
 264 0002 82B0     		sub	sp, sp, #8
 265              	.LCFI15:
 266              		.cfi_def_cfa_offset 16
 267 0004 00AF     		add	r7, sp, #0
 268              	.LCFI16:
 269              		.cfi_def_cfa_register 7
 332:.\Generated_Source\PSoC4/SERIAL_SPI_UART.c ****         uint32 size;
 333:.\Generated_Source\PSoC4/SERIAL_SPI_UART.c ****         #if(SERIAL_INTERNAL_TX_SW_BUFFER_CONST)
 334:.\Generated_Source\PSoC4/SERIAL_SPI_UART.c ****             uint32 locTail;
 335:.\Generated_Source\PSoC4/SERIAL_SPI_UART.c ****         #endif /* (SERIAL_INTERNAL_TX_SW_BUFFER_CONST) */
 336:.\Generated_Source\PSoC4/SERIAL_SPI_UART.c **** 
 337:.\Generated_Source\PSoC4/SERIAL_SPI_UART.c ****         #if(SERIAL_CHECK_TX_SW_BUFFER)
 338:.\Generated_Source\PSoC4/SERIAL_SPI_UART.c ****         {
 339:.\Generated_Source\PSoC4/SERIAL_SPI_UART.c ****             /* Get current Tail index */
 340:.\Generated_Source\PSoC4/SERIAL_SPI_UART.c ****             locTail = SERIAL_txBufferTail;
 341:.\Generated_Source\PSoC4/SERIAL_SPI_UART.c **** 
 342:.\Generated_Source\PSoC4/SERIAL_SPI_UART.c ****             if(SERIAL_txBufferHead >= locTail)
 343:.\Generated_Source\PSoC4/SERIAL_SPI_UART.c ****             {
 344:.\Generated_Source\PSoC4/SERIAL_SPI_UART.c ****                 size = (SERIAL_txBufferHead - locTail);
 345:.\Generated_Source\PSoC4/SERIAL_SPI_UART.c ****             }
 346:.\Generated_Source\PSoC4/SERIAL_SPI_UART.c ****             else
 347:.\Generated_Source\PSoC4/SERIAL_SPI_UART.c ****             {
 348:.\Generated_Source\PSoC4/SERIAL_SPI_UART.c ****                 size = (SERIAL_txBufferHead + (SERIAL_TX_BUFFER_SIZE - locTail));
 349:.\Generated_Source\PSoC4/SERIAL_SPI_UART.c ****             }
 350:.\Generated_Source\PSoC4/SERIAL_SPI_UART.c ****         }
 351:.\Generated_Source\PSoC4/SERIAL_SPI_UART.c ****         #else
 352:.\Generated_Source\PSoC4/SERIAL_SPI_UART.c ****         {
 353:.\Generated_Source\PSoC4/SERIAL_SPI_UART.c ****             size = SERIAL_GET_TX_FIFO_ENTRIES;
 270              		.loc 1 353 0
 271 0006 054B     		ldr	r3, .L21
 272 0008 1A68     		ldr	r2, [r3]
ARM GAS  C:\Users\Sam\AppData\Local\Temp\cc63VrGp.s 			page 12


 273 000a 0F23     		mov	r3, #15
 274 000c 1340     		and	r3, r2
 275 000e 7B60     		str	r3, [r7, #4]
 354:.\Generated_Source\PSoC4/SERIAL_SPI_UART.c ****         }
 355:.\Generated_Source\PSoC4/SERIAL_SPI_UART.c ****         #endif
 356:.\Generated_Source\PSoC4/SERIAL_SPI_UART.c **** 
 357:.\Generated_Source\PSoC4/SERIAL_SPI_UART.c ****         return(size);
 276              		.loc 1 357 0
 277 0010 7B68     		ldr	r3, [r7, #4]
 358:.\Generated_Source\PSoC4/SERIAL_SPI_UART.c ****     }
 278              		.loc 1 358 0
 279 0012 181C     		mov	r0, r3
 280 0014 BD46     		mov	sp, r7
 281 0016 02B0     		add	sp, sp, #8
 282              		@ sp needed for prologue
 283 0018 80BD     		pop	{r7, pc}
 284              	.L22:
 285 001a C046     		.align	2
 286              	.L21:
 287 001c 08020640 		.word	1074135560
 288              		.cfi_endproc
 289              	.LFE5:
 290              		.size	SERIAL_SpiUartGetTxBufferSize, .-SERIAL_SpiUartGetTxBufferSize
 291              		.section	.text.SERIAL_SpiUartClearTxBuffer,"ax",%progbits
 292              		.align	2
 293              		.global	SERIAL_SpiUartClearTxBuffer
 294              		.code	16
 295              		.thumb_func
 296              		.type	SERIAL_SpiUartClearTxBuffer, %function
 297              	SERIAL_SpiUartClearTxBuffer:
 298              	.LFB6:
 359:.\Generated_Source\PSoC4/SERIAL_SPI_UART.c **** 
 360:.\Generated_Source\PSoC4/SERIAL_SPI_UART.c **** 
 361:.\Generated_Source\PSoC4/SERIAL_SPI_UART.c ****     /*******************************************************************************
 362:.\Generated_Source\PSoC4/SERIAL_SPI_UART.c ****     * Function Name: SERIAL_SpiUartClearTxBuffer
 363:.\Generated_Source\PSoC4/SERIAL_SPI_UART.c ****     ********************************************************************************
 364:.\Generated_Source\PSoC4/SERIAL_SPI_UART.c ****     *
 365:.\Generated_Source\PSoC4/SERIAL_SPI_UART.c ****     * Summary:
 366:.\Generated_Source\PSoC4/SERIAL_SPI_UART.c ****     *  Clears the transmit buffer and TX FIFO.
 367:.\Generated_Source\PSoC4/SERIAL_SPI_UART.c ****     *
 368:.\Generated_Source\PSoC4/SERIAL_SPI_UART.c ****     * Parameters:
 369:.\Generated_Source\PSoC4/SERIAL_SPI_UART.c ****     *  None
 370:.\Generated_Source\PSoC4/SERIAL_SPI_UART.c ****     *
 371:.\Generated_Source\PSoC4/SERIAL_SPI_UART.c ****     * Return:
 372:.\Generated_Source\PSoC4/SERIAL_SPI_UART.c ****     *  None
 373:.\Generated_Source\PSoC4/SERIAL_SPI_UART.c ****     *
 374:.\Generated_Source\PSoC4/SERIAL_SPI_UART.c ****     *******************************************************************************/
 375:.\Generated_Source\PSoC4/SERIAL_SPI_UART.c ****     void SERIAL_SpiUartClearTxBuffer(void)
 376:.\Generated_Source\PSoC4/SERIAL_SPI_UART.c ****     {
 299              		.loc 1 376 0
 300              		.cfi_startproc
 301 0000 80B5     		push	{r7, lr}
 302              	.LCFI17:
 303              		.cfi_def_cfa_offset 8
 304              		.cfi_offset 7, -8
 305              		.cfi_offset 14, -4
 306 0002 00AF     		add	r7, sp, #0
ARM GAS  C:\Users\Sam\AppData\Local\Temp\cc63VrGp.s 			page 13


 307              	.LCFI18:
 308              		.cfi_def_cfa_register 7
 377:.\Generated_Source\PSoC4/SERIAL_SPI_UART.c ****         #if(SERIAL_INTERNAL_TX_SW_BUFFER_CONST)
 378:.\Generated_Source\PSoC4/SERIAL_SPI_UART.c ****             uint32 intSourceMask;
 379:.\Generated_Source\PSoC4/SERIAL_SPI_UART.c ****         #endif /* (SERIAL_INTERNAL_TX_SW_BUFFER_CONST) */
 380:.\Generated_Source\PSoC4/SERIAL_SPI_UART.c **** 
 381:.\Generated_Source\PSoC4/SERIAL_SPI_UART.c ****         #if(SERIAL_CHECK_TX_SW_BUFFER)
 382:.\Generated_Source\PSoC4/SERIAL_SPI_UART.c ****         {
 383:.\Generated_Source\PSoC4/SERIAL_SPI_UART.c ****             intSourceMask = SERIAL_SpiUartDisableIntTx();
 384:.\Generated_Source\PSoC4/SERIAL_SPI_UART.c **** 
 385:.\Generated_Source\PSoC4/SERIAL_SPI_UART.c ****             SERIAL_CLEAR_TX_FIFO;
 386:.\Generated_Source\PSoC4/SERIAL_SPI_UART.c **** 
 387:.\Generated_Source\PSoC4/SERIAL_SPI_UART.c ****             /* Flush TX software buffer */
 388:.\Generated_Source\PSoC4/SERIAL_SPI_UART.c ****             SERIAL_txBufferHead = SERIAL_txBufferTail;
 389:.\Generated_Source\PSoC4/SERIAL_SPI_UART.c **** 
 390:.\Generated_Source\PSoC4/SERIAL_SPI_UART.c ****             /* End TX transfer if it is in progress */
 391:.\Generated_Source\PSoC4/SERIAL_SPI_UART.c ****             intSourceMask &= (uint32) ~SERIAL_INTR_TX_NOT_FULL;
 392:.\Generated_Source\PSoC4/SERIAL_SPI_UART.c **** 
 393:.\Generated_Source\PSoC4/SERIAL_SPI_UART.c ****             SERIAL_SpiUartEnableIntTx(intSourceMask);
 394:.\Generated_Source\PSoC4/SERIAL_SPI_UART.c ****         }
 395:.\Generated_Source\PSoC4/SERIAL_SPI_UART.c ****         #else
 396:.\Generated_Source\PSoC4/SERIAL_SPI_UART.c ****         {
 397:.\Generated_Source\PSoC4/SERIAL_SPI_UART.c ****             SERIAL_CLEAR_TX_FIFO;
 309              		.loc 1 397 0
 310 0004 074B     		ldr	r3, .L24
 311 0006 074A     		ldr	r2, .L24
 312 0008 1268     		ldr	r2, [r2]
 313 000a 8021     		mov	r1, #128
 314 000c 4902     		lsl	r1, r1, #9
 315 000e 0A43     		orr	r2, r1
 316 0010 1A60     		str	r2, [r3]
 317 0012 044B     		ldr	r3, .L24
 318 0014 034A     		ldr	r2, .L24
 319 0016 1168     		ldr	r1, [r2]
 320 0018 034A     		ldr	r2, .L24+4
 321 001a 0A40     		and	r2, r1
 322 001c 1A60     		str	r2, [r3]
 398:.\Generated_Source\PSoC4/SERIAL_SPI_UART.c ****         }
 399:.\Generated_Source\PSoC4/SERIAL_SPI_UART.c ****         #endif
 400:.\Generated_Source\PSoC4/SERIAL_SPI_UART.c ****     }
 323              		.loc 1 400 0
 324 001e BD46     		mov	sp, r7
 325              		@ sp needed for prologue
 326 0020 80BD     		pop	{r7, pc}
 327              	.L25:
 328 0022 C046     		.align	2
 329              	.L24:
 330 0024 04020640 		.word	1074135556
 331 0028 FFFFFEFF 		.word	-65537
 332              		.cfi_endproc
 333              	.LFE6:
 334              		.size	SERIAL_SpiUartClearTxBuffer, .-SERIAL_SpiUartClearTxBuffer
 335              		.section	.text.SERIAL_SpiUartDisableIntRx,"ax",%progbits
 336              		.align	2
 337              		.global	SERIAL_SpiUartDisableIntRx
 338              		.code	16
 339              		.thumb_func
ARM GAS  C:\Users\Sam\AppData\Local\Temp\cc63VrGp.s 			page 14


 340              		.type	SERIAL_SpiUartDisableIntRx, %function
 341              	SERIAL_SpiUartDisableIntRx:
 342              	.LFB7:
 401:.\Generated_Source\PSoC4/SERIAL_SPI_UART.c **** 
 402:.\Generated_Source\PSoC4/SERIAL_SPI_UART.c **** #endif /* (SERIAL_TX_DIRECTION) */
 403:.\Generated_Source\PSoC4/SERIAL_SPI_UART.c **** 
 404:.\Generated_Source\PSoC4/SERIAL_SPI_UART.c **** 
 405:.\Generated_Source\PSoC4/SERIAL_SPI_UART.c **** /*******************************************************************************
 406:.\Generated_Source\PSoC4/SERIAL_SPI_UART.c **** * Function Name: SERIAL_SpiUartDisableIntRx
 407:.\Generated_Source\PSoC4/SERIAL_SPI_UART.c **** ********************************************************************************
 408:.\Generated_Source\PSoC4/SERIAL_SPI_UART.c **** *
 409:.\Generated_Source\PSoC4/SERIAL_SPI_UART.c **** * Summary:
 410:.\Generated_Source\PSoC4/SERIAL_SPI_UART.c **** *  Disables the RX interrupt sources.
 411:.\Generated_Source\PSoC4/SERIAL_SPI_UART.c **** *
 412:.\Generated_Source\PSoC4/SERIAL_SPI_UART.c **** * Parameters:
 413:.\Generated_Source\PSoC4/SERIAL_SPI_UART.c **** *  None
 414:.\Generated_Source\PSoC4/SERIAL_SPI_UART.c **** *
 415:.\Generated_Source\PSoC4/SERIAL_SPI_UART.c **** * Return:
 416:.\Generated_Source\PSoC4/SERIAL_SPI_UART.c **** *  Returns the RX interrupt sources enabled before the function call.
 417:.\Generated_Source\PSoC4/SERIAL_SPI_UART.c **** *
 418:.\Generated_Source\PSoC4/SERIAL_SPI_UART.c **** *******************************************************************************/
 419:.\Generated_Source\PSoC4/SERIAL_SPI_UART.c **** uint32 SERIAL_SpiUartDisableIntRx(void)
 420:.\Generated_Source\PSoC4/SERIAL_SPI_UART.c **** {
 343              		.loc 1 420 0
 344              		.cfi_startproc
 345 0000 80B5     		push	{r7, lr}
 346              	.LCFI19:
 347              		.cfi_def_cfa_offset 8
 348              		.cfi_offset 7, -8
 349              		.cfi_offset 14, -4
 350 0002 82B0     		sub	sp, sp, #8
 351              	.LCFI20:
 352              		.cfi_def_cfa_offset 16
 353 0004 00AF     		add	r7, sp, #0
 354              	.LCFI21:
 355              		.cfi_def_cfa_register 7
 421:.\Generated_Source\PSoC4/SERIAL_SPI_UART.c ****     uint32 intSource;
 422:.\Generated_Source\PSoC4/SERIAL_SPI_UART.c **** 
 423:.\Generated_Source\PSoC4/SERIAL_SPI_UART.c ****     intSource = SERIAL_GetRxInterruptMode();
 356              		.loc 1 423 0
 357 0006 054B     		ldr	r3, .L28
 358 0008 1B68     		ldr	r3, [r3]
 359 000a 7B60     		str	r3, [r7, #4]
 424:.\Generated_Source\PSoC4/SERIAL_SPI_UART.c **** 
 425:.\Generated_Source\PSoC4/SERIAL_SPI_UART.c ****     SERIAL_SetRxInterruptMode(SERIAL_NO_INTR_SOURCES);
 360              		.loc 1 425 0
 361 000c 034B     		ldr	r3, .L28
 362 000e 0022     		mov	r2, #0
 363 0010 1A60     		str	r2, [r3]
 426:.\Generated_Source\PSoC4/SERIAL_SPI_UART.c **** 
 427:.\Generated_Source\PSoC4/SERIAL_SPI_UART.c ****     return(intSource);
 364              		.loc 1 427 0
 365 0012 7B68     		ldr	r3, [r7, #4]
 428:.\Generated_Source\PSoC4/SERIAL_SPI_UART.c **** }
 366              		.loc 1 428 0
 367 0014 181C     		mov	r0, r3
 368 0016 BD46     		mov	sp, r7
ARM GAS  C:\Users\Sam\AppData\Local\Temp\cc63VrGp.s 			page 15


 369 0018 02B0     		add	sp, sp, #8
 370              		@ sp needed for prologue
 371 001a 80BD     		pop	{r7, pc}
 372              	.L29:
 373              		.align	2
 374              	.L28:
 375 001c C80F0640 		.word	1074139080
 376              		.cfi_endproc
 377              	.LFE7:
 378              		.size	SERIAL_SpiUartDisableIntRx, .-SERIAL_SpiUartDisableIntRx
 379              		.section	.text.SERIAL_SpiUartDisableIntTx,"ax",%progbits
 380              		.align	2
 381              		.global	SERIAL_SpiUartDisableIntTx
 382              		.code	16
 383              		.thumb_func
 384              		.type	SERIAL_SpiUartDisableIntTx, %function
 385              	SERIAL_SpiUartDisableIntTx:
 386              	.LFB8:
 429:.\Generated_Source\PSoC4/SERIAL_SPI_UART.c **** 
 430:.\Generated_Source\PSoC4/SERIAL_SPI_UART.c **** 
 431:.\Generated_Source\PSoC4/SERIAL_SPI_UART.c **** /*******************************************************************************
 432:.\Generated_Source\PSoC4/SERIAL_SPI_UART.c **** * Function Name: SERIAL_SpiUartDisableIntTx
 433:.\Generated_Source\PSoC4/SERIAL_SPI_UART.c **** ********************************************************************************
 434:.\Generated_Source\PSoC4/SERIAL_SPI_UART.c **** *
 435:.\Generated_Source\PSoC4/SERIAL_SPI_UART.c **** * Summary:
 436:.\Generated_Source\PSoC4/SERIAL_SPI_UART.c **** *  Disables TX interrupt sources.
 437:.\Generated_Source\PSoC4/SERIAL_SPI_UART.c **** *
 438:.\Generated_Source\PSoC4/SERIAL_SPI_UART.c **** * Parameters:
 439:.\Generated_Source\PSoC4/SERIAL_SPI_UART.c **** *  None
 440:.\Generated_Source\PSoC4/SERIAL_SPI_UART.c **** *
 441:.\Generated_Source\PSoC4/SERIAL_SPI_UART.c **** * Return:
 442:.\Generated_Source\PSoC4/SERIAL_SPI_UART.c **** *  Returns TX interrupt sources enabled before function call.
 443:.\Generated_Source\PSoC4/SERIAL_SPI_UART.c **** *
 444:.\Generated_Source\PSoC4/SERIAL_SPI_UART.c **** *******************************************************************************/
 445:.\Generated_Source\PSoC4/SERIAL_SPI_UART.c **** uint32 SERIAL_SpiUartDisableIntTx(void)
 446:.\Generated_Source\PSoC4/SERIAL_SPI_UART.c **** {
 387              		.loc 1 446 0
 388              		.cfi_startproc
 389 0000 80B5     		push	{r7, lr}
 390              	.LCFI22:
 391              		.cfi_def_cfa_offset 8
 392              		.cfi_offset 7, -8
 393              		.cfi_offset 14, -4
 394 0002 82B0     		sub	sp, sp, #8
 395              	.LCFI23:
 396              		.cfi_def_cfa_offset 16
 397 0004 00AF     		add	r7, sp, #0
 398              	.LCFI24:
 399              		.cfi_def_cfa_register 7
 447:.\Generated_Source\PSoC4/SERIAL_SPI_UART.c ****     uint32 intSourceMask;
 448:.\Generated_Source\PSoC4/SERIAL_SPI_UART.c **** 
 449:.\Generated_Source\PSoC4/SERIAL_SPI_UART.c ****     intSourceMask = SERIAL_GetTxInterruptMode();
 400              		.loc 1 449 0
 401 0006 054B     		ldr	r3, .L32
 402 0008 1B68     		ldr	r3, [r3]
 403 000a 7B60     		str	r3, [r7, #4]
 450:.\Generated_Source\PSoC4/SERIAL_SPI_UART.c **** 
ARM GAS  C:\Users\Sam\AppData\Local\Temp\cc63VrGp.s 			page 16


 451:.\Generated_Source\PSoC4/SERIAL_SPI_UART.c ****     SERIAL_SetTxInterruptMode(SERIAL_NO_INTR_SOURCES);
 404              		.loc 1 451 0
 405 000c 034B     		ldr	r3, .L32
 406 000e 0022     		mov	r2, #0
 407 0010 1A60     		str	r2, [r3]
 452:.\Generated_Source\PSoC4/SERIAL_SPI_UART.c **** 
 453:.\Generated_Source\PSoC4/SERIAL_SPI_UART.c ****     return(intSourceMask);
 408              		.loc 1 453 0
 409 0012 7B68     		ldr	r3, [r7, #4]
 454:.\Generated_Source\PSoC4/SERIAL_SPI_UART.c **** }
 410              		.loc 1 454 0
 411 0014 181C     		mov	r0, r3
 412 0016 BD46     		mov	sp, r7
 413 0018 02B0     		add	sp, sp, #8
 414              		@ sp needed for prologue
 415 001a 80BD     		pop	{r7, pc}
 416              	.L33:
 417              		.align	2
 418              	.L32:
 419 001c 880F0640 		.word	1074139016
 420              		.cfi_endproc
 421              	.LFE8:
 422              		.size	SERIAL_SpiUartDisableIntTx, .-SERIAL_SpiUartDisableIntTx
 423              		.text
 424              	.Letext0:
 425              		.file 2 "./Generated_Source/PSoC4/cytypes.h"