ARM GAS  C:\Users\Sam\AppData\Local\Temp\cc9LKs49.s 			page 1


   1              		.cpu cortex-m0
   2              		.fpu softvfp
   3              		.eabi_attribute 20, 1
   4              		.eabi_attribute 21, 1
   5              		.eabi_attribute 23, 3
   6              		.eabi_attribute 24, 1
   7              		.eabi_attribute 25, 1
   8              		.eabi_attribute 26, 1
   9              		.eabi_attribute 30, 6
  10              		.eabi_attribute 34, 0
  11              		.eabi_attribute 18, 4
  12              		.code	16
  13              		.file	"main.c"
  14              		.text
  15              	.Ltext0:
  16              		.cfi_sections	.debug_frame
  17              		.global	flag
  18              		.bss
  19              		.type	flag, %object
  20              		.size	flag, 1
  21              	flag:
  22 0000 00       		.space	1
  23              		.section	.rodata
  24              		.align	2
  25              	.LC0:
  26 0000 55415254 		.ascii	"UART Initialised\000"
  26      20496E69 
  26      7469616C 
  26      69736564 
  26      00
  27 0011 000000   		.section	.text.main,"ax",%progbits
  28              		.align	2
  29              		.global	main
  30              		.code	16
  31              		.thumb_func
  32              		.type	main, %function
  33              	main:
  34              	.LFB33:
  35              		.file 1 ".\\main.c"
   1:.\main.c      **** /* ========================================
   2:.\main.c      ****  *
   3:.\main.c      ****  * Copyright YOUR COMPANY, THE YEAR
   4:.\main.c      ****  * All Rights Reserved
   5:.\main.c      ****  * UNPUBLISHED, LICENSED SOFTWARE.
   6:.\main.c      ****  *
   7:.\main.c      ****  * CONFIDENTIAL AND PROPRIETARY INFORMATION
   8:.\main.c      ****  * WHICH IS THE PROPERTY OF your company.
   9:.\main.c      ****  *
  10:.\main.c      ****  * ========================================
  11:.\main.c      **** */
  12:.\main.c      **** #include <project.h>
  13:.\main.c      **** 
  14:.\main.c      **** uint8 flag = 0;
  15:.\main.c      **** 
  16:.\main.c      **** int main()
  17:.\main.c      **** {
  36              		.loc 1 17 0
ARM GAS  C:\Users\Sam\AppData\Local\Temp\cc9LKs49.s 			page 2


  37              		.cfi_startproc
  38 0000 80B5     		push	{r7, lr}
  39              	.LCFI0:
  40              		.cfi_def_cfa_offset 8
  41              		.cfi_offset 7, -8
  42              		.cfi_offset 14, -4
  43 0002 82B0     		sub	sp, sp, #8
  44              	.LCFI1:
  45              		.cfi_def_cfa_offset 16
  46 0004 00AF     		add	r7, sp, #0
  47              	.LCFI2:
  48              		.cfi_def_cfa_register 7
  18:.\main.c      ****     /* Place your initialization/startup code here (e.g. MyInst_Start()) */
  19:.\main.c      ****     uint8 volatile ch;  
  20:.\main.c      ****     /* Start the SCB UART */
  21:.\main.c      ****     UART_Start();
  49              		.loc 1 21 0
  50 0006 FFF7FEFF 		bl	UART_Start
  22:.\main.c      ****     
  23:.\main.c      ****     /* Start the Interrupt */
  24:.\main.c      ****     UART_RX_ISR_Start();
  51              		.loc 1 24 0
  52 000a FFF7FEFF 		bl	UART_RX_ISR_Start
  25:.\main.c      ****     
  26:.\main.c      ****     /* Transmit string through UART */
  27:.\main.c      ****     UART_UartPutString("UART Initialised");
  53              		.loc 1 27 0
  54 000e 124B     		ldr	r3, .L5
  55 0010 181C     		mov	r0, r3
  56 0012 FFF7FEFF 		bl	UART_UartPutString
  28:.\main.c      **** 
  29:.\main.c      ****     CyGlobalIntEnable; /* Uncomment this line to enable global interrupts. */
  57              		.loc 1 29 0
  58              	@ 29 ".\main.c" 1
  59 0016 62B6     		CPSIE   i
  60              	@ 0 "" 2
  61              		.code	16
  62 0018 00E0     		b	.L3
  63              	.L4:
  30:.\main.c      ****     
  31:.\main.c      ****     for(;;)
  32:.\main.c      ****     {         
  33:.\main.c      ****         if(flag == 1)
  34:.\main.c      ****         {
  35:.\main.c      ****           flag = 0;
  36:.\main.c      ****           ch = UART_UartGetChar();
  37:.\main.c      ****           UART_UartPutChar(ch);
  38:.\main.c      ****           TX_LED_Write(!TX_LED_Read());       
  39:.\main.c      ****         }      
  40:.\main.c      ****     }
  64              		.loc 1 40 0
  65 001a C046     		mov	r8, r8
  66              	.L3:
  33:.\main.c      ****         if(flag == 1)
  67              		.loc 1 33 0
  68 001c 0F4B     		ldr	r3, .L5+4
  69 001e 1B78     		ldrb	r3, [r3]
ARM GAS  C:\Users\Sam\AppData\Local\Temp\cc9LKs49.s 			page 3


  70 0020 012B     		cmp	r3, #1
  71 0022 FAD1     		bne	.L4
  35:.\main.c      ****           flag = 0;
  72              		.loc 1 35 0
  73 0024 0D4B     		ldr	r3, .L5+4
  74 0026 0022     		mov	r2, #0
  75 0028 1A70     		strb	r2, [r3]
  36:.\main.c      ****           ch = UART_UartGetChar();
  76              		.loc 1 36 0
  77 002a FFF7FEFF 		bl	UART_UartGetChar
  78 002e 031C     		mov	r3, r0
  79 0030 DAB2     		uxtb	r2, r3
  80 0032 FB1D     		add	r3, r7, #7
  81 0034 1A70     		strb	r2, [r3]
  37:.\main.c      ****           UART_UartPutChar(ch);
  82              		.loc 1 37 0
  83 0036 FB1D     		add	r3, r7, #7
  84 0038 1B78     		ldrb	r3, [r3]
  85 003a DBB2     		uxtb	r3, r3
  86 003c 181C     		mov	r0, r3
  87 003e FFF7FEFF 		bl	UART_SpiUartWriteTxData
  38:.\main.c      ****           TX_LED_Write(!TX_LED_Read());       
  88              		.loc 1 38 0
  89 0042 FFF7FEFF 		bl	TX_LED_Read
  90 0046 031C     		mov	r3, r0
  91 0048 5A42     		neg	r2, r3
  92 004a 5341     		adc	r3, r3, r2
  93 004c DBB2     		uxtb	r3, r3
  94 004e 181C     		mov	r0, r3
  95 0050 FFF7FEFF 		bl	TX_LED_Write
  96              		.loc 1 40 0
  97 0054 E1E7     		b	.L4
  98              	.L6:
  99 0056 C046     		.align	2
 100              	.L5:
 101 0058 00000000 		.word	.LC0
 102 005c 00000000 		.word	flag
 103              		.cfi_endproc
 104              	.LFE33:
 105              		.size	main, .-main
 106              		.text
 107              	.Letext0:
 108              		.file 2 "./Generated_Source/PSoC4/cytypes.h"