ARM GAS  C:\Users\Sam\AppData\Local\Temp\ccjtxPlZ.s 			page 1


   1              		.cpu cortex-m0
   2              		.fpu softvfp
   3              		.eabi_attribute 20, 1
   4              		.eabi_attribute 21, 1
   5              		.eabi_attribute 23, 3
   6              		.eabi_attribute 24, 1
   7              		.eabi_attribute 25, 1
   8              		.eabi_attribute 26, 1
   9              		.eabi_attribute 30, 6
  10              		.eabi_attribute 34, 0
  11              		.eabi_attribute 18, 4
  12              		.code	16
  13              		.file	"UART_RX_FULL.c"
  14              		.text
  15              	.Ltext0:
  16              		.cfi_sections	.debug_frame
  17              		.section	.text.UART_RX_FULL_Start,"ax",%progbits
  18              		.align	2
  19              		.global	UART_RX_FULL_Start
  20              		.code	16
  21              		.thumb_func
  22              		.type	UART_RX_FULL_Start, %function
  23              	UART_RX_FULL_Start:
  24              	.LFB0:
  25              		.file 1 ".\\Generated_Source\\PSoC4\\UART_RX_FULL.c"
   1:.\Generated_Source\PSoC4/UART_RX_FULL.c **** /*******************************************************************************
   2:.\Generated_Source\PSoC4/UART_RX_FULL.c **** * File Name: UART_RX_FULL.c  
   3:.\Generated_Source\PSoC4/UART_RX_FULL.c **** * Version 1.70
   4:.\Generated_Source\PSoC4/UART_RX_FULL.c **** *
   5:.\Generated_Source\PSoC4/UART_RX_FULL.c **** *  Description:
   6:.\Generated_Source\PSoC4/UART_RX_FULL.c **** *   API for controlling the state of an interrupt.
   7:.\Generated_Source\PSoC4/UART_RX_FULL.c **** *
   8:.\Generated_Source\PSoC4/UART_RX_FULL.c **** *
   9:.\Generated_Source\PSoC4/UART_RX_FULL.c **** *  Note:
  10:.\Generated_Source\PSoC4/UART_RX_FULL.c **** *
  11:.\Generated_Source\PSoC4/UART_RX_FULL.c **** ********************************************************************************
  12:.\Generated_Source\PSoC4/UART_RX_FULL.c **** * Copyright 2008-2012, Cypress Semiconductor Corporation.  All rights reserved.
  13:.\Generated_Source\PSoC4/UART_RX_FULL.c **** * You may use this file only in accordance with the license, terms, conditions, 
  14:.\Generated_Source\PSoC4/UART_RX_FULL.c **** * disclaimers, and limitations in the end user license agreement accompanying 
  15:.\Generated_Source\PSoC4/UART_RX_FULL.c **** * the software package with which this file was provided.
  16:.\Generated_Source\PSoC4/UART_RX_FULL.c **** *******************************************************************************/
  17:.\Generated_Source\PSoC4/UART_RX_FULL.c **** 
  18:.\Generated_Source\PSoC4/UART_RX_FULL.c **** 
  19:.\Generated_Source\PSoC4/UART_RX_FULL.c **** #include <cydevice_trm.h>
  20:.\Generated_Source\PSoC4/UART_RX_FULL.c **** #include <CyLib.h>
  21:.\Generated_Source\PSoC4/UART_RX_FULL.c **** #include <UART_RX_FULL.h>
  22:.\Generated_Source\PSoC4/UART_RX_FULL.c **** 
  23:.\Generated_Source\PSoC4/UART_RX_FULL.c **** #if !defined(UART_RX_FULL__REMOVED) /* Check for removal by optimization */
  24:.\Generated_Source\PSoC4/UART_RX_FULL.c **** 
  25:.\Generated_Source\PSoC4/UART_RX_FULL.c **** /*******************************************************************************
  26:.\Generated_Source\PSoC4/UART_RX_FULL.c **** *  Place your includes, defines and code here 
  27:.\Generated_Source\PSoC4/UART_RX_FULL.c **** ********************************************************************************/
  28:.\Generated_Source\PSoC4/UART_RX_FULL.c **** /* `#START UART_RX_FULL_intc` */
  29:.\Generated_Source\PSoC4/UART_RX_FULL.c **** extern uint8 volatile flag;
  30:.\Generated_Source\PSoC4/UART_RX_FULL.c **** #include <UART.h>
  31:.\Generated_Source\PSoC4/UART_RX_FULL.c **** /* `#END` */
  32:.\Generated_Source\PSoC4/UART_RX_FULL.c **** 
ARM GAS  C:\Users\Sam\AppData\Local\Temp\ccjtxPlZ.s 			page 2


  33:.\Generated_Source\PSoC4/UART_RX_FULL.c **** extern cyisraddress CyRamVectors[CYINT_IRQ_BASE + CY_NUM_INTERRUPTS];
  34:.\Generated_Source\PSoC4/UART_RX_FULL.c **** 
  35:.\Generated_Source\PSoC4/UART_RX_FULL.c **** /* Declared in startup, used to set unused interrupts to. */
  36:.\Generated_Source\PSoC4/UART_RX_FULL.c **** CY_ISR_PROTO(IntDefaultHandler);
  37:.\Generated_Source\PSoC4/UART_RX_FULL.c **** 
  38:.\Generated_Source\PSoC4/UART_RX_FULL.c **** 
  39:.\Generated_Source\PSoC4/UART_RX_FULL.c **** /*******************************************************************************
  40:.\Generated_Source\PSoC4/UART_RX_FULL.c **** * Function Name: UART_RX_FULL_Start
  41:.\Generated_Source\PSoC4/UART_RX_FULL.c **** ********************************************************************************
  42:.\Generated_Source\PSoC4/UART_RX_FULL.c **** *
  43:.\Generated_Source\PSoC4/UART_RX_FULL.c **** * Summary:
  44:.\Generated_Source\PSoC4/UART_RX_FULL.c **** *  Set up the interrupt and enable it.
  45:.\Generated_Source\PSoC4/UART_RX_FULL.c **** *
  46:.\Generated_Source\PSoC4/UART_RX_FULL.c **** * Parameters:  
  47:.\Generated_Source\PSoC4/UART_RX_FULL.c **** *   None
  48:.\Generated_Source\PSoC4/UART_RX_FULL.c **** *
  49:.\Generated_Source\PSoC4/UART_RX_FULL.c **** * Return:
  50:.\Generated_Source\PSoC4/UART_RX_FULL.c **** *   None
  51:.\Generated_Source\PSoC4/UART_RX_FULL.c **** *
  52:.\Generated_Source\PSoC4/UART_RX_FULL.c **** *******************************************************************************/
  53:.\Generated_Source\PSoC4/UART_RX_FULL.c **** void UART_RX_FULL_Start(void)
  54:.\Generated_Source\PSoC4/UART_RX_FULL.c **** {
  26              		.loc 1 54 0
  27              		.cfi_startproc
  28 0000 80B5     		push	{r7, lr}
  29              	.LCFI0:
  30              		.cfi_def_cfa_offset 8
  31              		.cfi_offset 7, -8
  32              		.cfi_offset 14, -4
  33 0002 00AF     		add	r7, sp, #0
  34              	.LCFI1:
  35              		.cfi_def_cfa_register 7
  55:.\Generated_Source\PSoC4/UART_RX_FULL.c ****     /* For all we know the interrupt is active. */
  56:.\Generated_Source\PSoC4/UART_RX_FULL.c ****     UART_RX_FULL_Disable();
  36              		.loc 1 56 0
  37 0004 FFF7FEFF 		bl	UART_RX_FULL_Disable
  57:.\Generated_Source\PSoC4/UART_RX_FULL.c **** 
  58:.\Generated_Source\PSoC4/UART_RX_FULL.c ****     /* Set the ISR to point to the UART_RX_FULL Interrupt. */
  59:.\Generated_Source\PSoC4/UART_RX_FULL.c ****     UART_RX_FULL_SetVector(&UART_RX_FULL_Interrupt);
  38              		.loc 1 59 0
  39 0008 054B     		ldr	r3, .L2
  40 000a 181C     		mov	r0, r3
  41 000c FFF7FEFF 		bl	UART_RX_FULL_SetVector
  60:.\Generated_Source\PSoC4/UART_RX_FULL.c **** 
  61:.\Generated_Source\PSoC4/UART_RX_FULL.c ****     /* Set the priority. */
  62:.\Generated_Source\PSoC4/UART_RX_FULL.c ****     UART_RX_FULL_SetPriority((uint8)UART_RX_FULL_INTC_PRIOR_NUMBER);
  42              		.loc 1 62 0
  43 0010 0320     		mov	r0, #3
  44 0012 FFF7FEFF 		bl	UART_RX_FULL_SetPriority
  63:.\Generated_Source\PSoC4/UART_RX_FULL.c **** 
  64:.\Generated_Source\PSoC4/UART_RX_FULL.c ****     /* Enable it. */
  65:.\Generated_Source\PSoC4/UART_RX_FULL.c ****     UART_RX_FULL_Enable();
  45              		.loc 1 65 0
  46 0016 FFF7FEFF 		bl	UART_RX_FULL_Enable
  66:.\Generated_Source\PSoC4/UART_RX_FULL.c **** }
  47              		.loc 1 66 0
  48 001a BD46     		mov	sp, r7
ARM GAS  C:\Users\Sam\AppData\Local\Temp\ccjtxPlZ.s 			page 3


  49              		@ sp needed for prologue
  50 001c 80BD     		pop	{r7, pc}
  51              	.L3:
  52 001e C046     		.align	2
  53              	.L2:
  54 0020 00000000 		.word	UART_RX_FULL_Interrupt
  55              		.cfi_endproc
  56              	.LFE0:
  57              		.size	UART_RX_FULL_Start, .-UART_RX_FULL_Start
  58              		.section	.text.UART_RX_FULL_StartEx,"ax",%progbits
  59              		.align	2
  60              		.global	UART_RX_FULL_StartEx
  61              		.code	16
  62              		.thumb_func
  63              		.type	UART_RX_FULL_StartEx, %function
  64              	UART_RX_FULL_StartEx:
  65              	.LFB1:
  67:.\Generated_Source\PSoC4/UART_RX_FULL.c **** 
  68:.\Generated_Source\PSoC4/UART_RX_FULL.c **** 
  69:.\Generated_Source\PSoC4/UART_RX_FULL.c **** /*******************************************************************************
  70:.\Generated_Source\PSoC4/UART_RX_FULL.c **** * Function Name: UART_RX_FULL_StartEx
  71:.\Generated_Source\PSoC4/UART_RX_FULL.c **** ********************************************************************************
  72:.\Generated_Source\PSoC4/UART_RX_FULL.c **** *
  73:.\Generated_Source\PSoC4/UART_RX_FULL.c **** * Summary:
  74:.\Generated_Source\PSoC4/UART_RX_FULL.c **** *  Set up the interrupt and enable it.
  75:.\Generated_Source\PSoC4/UART_RX_FULL.c **** *
  76:.\Generated_Source\PSoC4/UART_RX_FULL.c **** * Parameters:  
  77:.\Generated_Source\PSoC4/UART_RX_FULL.c **** *   address: Address of the ISR to set in the interrupt vector table.
  78:.\Generated_Source\PSoC4/UART_RX_FULL.c **** *
  79:.\Generated_Source\PSoC4/UART_RX_FULL.c **** * Return:
  80:.\Generated_Source\PSoC4/UART_RX_FULL.c **** *   None
  81:.\Generated_Source\PSoC4/UART_RX_FULL.c **** *
  82:.\Generated_Source\PSoC4/UART_RX_FULL.c **** *******************************************************************************/
  83:.\Generated_Source\PSoC4/UART_RX_FULL.c **** void UART_RX_FULL_StartEx(cyisraddress address)
  84:.\Generated_Source\PSoC4/UART_RX_FULL.c **** {
  66              		.loc 1 84 0
  67              		.cfi_startproc
  68 0000 80B5     		push	{r7, lr}
  69              	.LCFI2:
  70              		.cfi_def_cfa_offset 8
  71              		.cfi_offset 7, -8
  72              		.cfi_offset 14, -4
  73 0002 82B0     		sub	sp, sp, #8
  74              	.LCFI3:
  75              		.cfi_def_cfa_offset 16
  76 0004 00AF     		add	r7, sp, #0
  77              	.LCFI4:
  78              		.cfi_def_cfa_register 7
  79 0006 7860     		str	r0, [r7, #4]
  85:.\Generated_Source\PSoC4/UART_RX_FULL.c ****     /* For all we know the interrupt is active. */
  86:.\Generated_Source\PSoC4/UART_RX_FULL.c ****     UART_RX_FULL_Disable();
  80              		.loc 1 86 0
  81 0008 FFF7FEFF 		bl	UART_RX_FULL_Disable
  87:.\Generated_Source\PSoC4/UART_RX_FULL.c **** 
  88:.\Generated_Source\PSoC4/UART_RX_FULL.c ****     /* Set the ISR to point to the UART_RX_FULL Interrupt. */
  89:.\Generated_Source\PSoC4/UART_RX_FULL.c ****     UART_RX_FULL_SetVector(address);
  82              		.loc 1 89 0
ARM GAS  C:\Users\Sam\AppData\Local\Temp\ccjtxPlZ.s 			page 4


  83 000c 7B68     		ldr	r3, [r7, #4]
  84 000e 181C     		mov	r0, r3
  85 0010 FFF7FEFF 		bl	UART_RX_FULL_SetVector
  90:.\Generated_Source\PSoC4/UART_RX_FULL.c **** 
  91:.\Generated_Source\PSoC4/UART_RX_FULL.c ****     /* Set the priority. */
  92:.\Generated_Source\PSoC4/UART_RX_FULL.c ****     UART_RX_FULL_SetPriority((uint8)UART_RX_FULL_INTC_PRIOR_NUMBER);
  86              		.loc 1 92 0
  87 0014 0320     		mov	r0, #3
  88 0016 FFF7FEFF 		bl	UART_RX_FULL_SetPriority
  93:.\Generated_Source\PSoC4/UART_RX_FULL.c **** 
  94:.\Generated_Source\PSoC4/UART_RX_FULL.c ****     /* Enable it. */
  95:.\Generated_Source\PSoC4/UART_RX_FULL.c ****     UART_RX_FULL_Enable();
  89              		.loc 1 95 0
  90 001a FFF7FEFF 		bl	UART_RX_FULL_Enable
  96:.\Generated_Source\PSoC4/UART_RX_FULL.c **** }
  91              		.loc 1 96 0
  92 001e BD46     		mov	sp, r7
  93 0020 02B0     		add	sp, sp, #8
  94              		@ sp needed for prologue
  95 0022 80BD     		pop	{r7, pc}
  96              		.cfi_endproc
  97              	.LFE1:
  98              		.size	UART_RX_FULL_StartEx, .-UART_RX_FULL_StartEx
  99              		.section	.text.UART_RX_FULL_Stop,"ax",%progbits
 100              		.align	2
 101              		.global	UART_RX_FULL_Stop
 102              		.code	16
 103              		.thumb_func
 104              		.type	UART_RX_FULL_Stop, %function
 105              	UART_RX_FULL_Stop:
 106              	.LFB2:
  97:.\Generated_Source\PSoC4/UART_RX_FULL.c **** 
  98:.\Generated_Source\PSoC4/UART_RX_FULL.c **** 
  99:.\Generated_Source\PSoC4/UART_RX_FULL.c **** /*******************************************************************************
 100:.\Generated_Source\PSoC4/UART_RX_FULL.c **** * Function Name: UART_RX_FULL_Stop
 101:.\Generated_Source\PSoC4/UART_RX_FULL.c **** ********************************************************************************
 102:.\Generated_Source\PSoC4/UART_RX_FULL.c **** *
 103:.\Generated_Source\PSoC4/UART_RX_FULL.c **** * Summary:
 104:.\Generated_Source\PSoC4/UART_RX_FULL.c **** *   Disables and removes the interrupt.
 105:.\Generated_Source\PSoC4/UART_RX_FULL.c **** *
 106:.\Generated_Source\PSoC4/UART_RX_FULL.c **** * Parameters:  
 107:.\Generated_Source\PSoC4/UART_RX_FULL.c **** *
 108:.\Generated_Source\PSoC4/UART_RX_FULL.c **** * Return:
 109:.\Generated_Source\PSoC4/UART_RX_FULL.c **** *   None
 110:.\Generated_Source\PSoC4/UART_RX_FULL.c **** *
 111:.\Generated_Source\PSoC4/UART_RX_FULL.c **** *******************************************************************************/
 112:.\Generated_Source\PSoC4/UART_RX_FULL.c **** void UART_RX_FULL_Stop(void)
 113:.\Generated_Source\PSoC4/UART_RX_FULL.c **** {
 107              		.loc 1 113 0
 108              		.cfi_startproc
 109 0000 80B5     		push	{r7, lr}
 110              	.LCFI5:
 111              		.cfi_def_cfa_offset 8
 112              		.cfi_offset 7, -8
 113              		.cfi_offset 14, -4
 114 0002 00AF     		add	r7, sp, #0
 115              	.LCFI6:
ARM GAS  C:\Users\Sam\AppData\Local\Temp\ccjtxPlZ.s 			page 5


 116              		.cfi_def_cfa_register 7
 114:.\Generated_Source\PSoC4/UART_RX_FULL.c ****     /* Disable this interrupt. */
 115:.\Generated_Source\PSoC4/UART_RX_FULL.c ****     UART_RX_FULL_Disable();
 117              		.loc 1 115 0
 118 0004 FFF7FEFF 		bl	UART_RX_FULL_Disable
 116:.\Generated_Source\PSoC4/UART_RX_FULL.c **** 
 117:.\Generated_Source\PSoC4/UART_RX_FULL.c ****     /* Set the ISR to point to the passive one. */
 118:.\Generated_Source\PSoC4/UART_RX_FULL.c ****     UART_RX_FULL_SetVector(&IntDefaultHandler);
 119              		.loc 1 118 0
 120 0008 024B     		ldr	r3, .L6
 121 000a 181C     		mov	r0, r3
 122 000c FFF7FEFF 		bl	UART_RX_FULL_SetVector
 119:.\Generated_Source\PSoC4/UART_RX_FULL.c **** }
 123              		.loc 1 119 0
 124 0010 BD46     		mov	sp, r7
 125              		@ sp needed for prologue
 126 0012 80BD     		pop	{r7, pc}
 127              	.L7:
 128              		.align	2
 129              	.L6:
 130 0014 00000000 		.word	IntDefaultHandler
 131              		.cfi_endproc
 132              	.LFE2:
 133              		.size	UART_RX_FULL_Stop, .-UART_RX_FULL_Stop
 134              		.section	.text.UART_RX_FULL_Interrupt,"ax",%progbits
 135              		.align	2
 136              		.global	UART_RX_FULL_Interrupt
 137              		.code	16
 138              		.thumb_func
 139              		.type	UART_RX_FULL_Interrupt, %function
 140              	UART_RX_FULL_Interrupt:
 141              	.LFB3:
 120:.\Generated_Source\PSoC4/UART_RX_FULL.c **** 
 121:.\Generated_Source\PSoC4/UART_RX_FULL.c **** 
 122:.\Generated_Source\PSoC4/UART_RX_FULL.c **** /*******************************************************************************
 123:.\Generated_Source\PSoC4/UART_RX_FULL.c **** * Function Name: UART_RX_FULL_Interrupt
 124:.\Generated_Source\PSoC4/UART_RX_FULL.c **** ********************************************************************************
 125:.\Generated_Source\PSoC4/UART_RX_FULL.c **** *
 126:.\Generated_Source\PSoC4/UART_RX_FULL.c **** * Summary:
 127:.\Generated_Source\PSoC4/UART_RX_FULL.c **** *   The default Interrupt Service Routine for UART_RX_FULL.
 128:.\Generated_Source\PSoC4/UART_RX_FULL.c **** *
 129:.\Generated_Source\PSoC4/UART_RX_FULL.c **** *   Add custom code between the coments to keep the next version of this file
 130:.\Generated_Source\PSoC4/UART_RX_FULL.c **** *   from over writting your code.
 131:.\Generated_Source\PSoC4/UART_RX_FULL.c **** *
 132:.\Generated_Source\PSoC4/UART_RX_FULL.c **** * Parameters:  
 133:.\Generated_Source\PSoC4/UART_RX_FULL.c **** *   None
 134:.\Generated_Source\PSoC4/UART_RX_FULL.c **** *
 135:.\Generated_Source\PSoC4/UART_RX_FULL.c **** * Return:
 136:.\Generated_Source\PSoC4/UART_RX_FULL.c **** *   None
 137:.\Generated_Source\PSoC4/UART_RX_FULL.c **** *
 138:.\Generated_Source\PSoC4/UART_RX_FULL.c **** *******************************************************************************/
 139:.\Generated_Source\PSoC4/UART_RX_FULL.c **** CY_ISR(UART_RX_FULL_Interrupt)
 140:.\Generated_Source\PSoC4/UART_RX_FULL.c **** {
 142              		.loc 1 140 0
 143              		.cfi_startproc
 144 0000 80B5     		push	{r7, lr}
 145              	.LCFI7:
ARM GAS  C:\Users\Sam\AppData\Local\Temp\ccjtxPlZ.s 			page 6


 146              		.cfi_def_cfa_offset 8
 147              		.cfi_offset 7, -8
 148              		.cfi_offset 14, -4
 149 0002 00AF     		add	r7, sp, #0
 150              	.LCFI8:
 151              		.cfi_def_cfa_register 7
 141:.\Generated_Source\PSoC4/UART_RX_FULL.c ****     /*  Place your Interrupt code here. */
 142:.\Generated_Source\PSoC4/UART_RX_FULL.c ****     /* `#START UART_RX_FULL_Interrupt` */
 143:.\Generated_Source\PSoC4/UART_RX_FULL.c ****     flag = 1;
 152              		.loc 1 143 0
 153 0004 034B     		ldr	r3, .L9
 154 0006 0122     		mov	r2, #1
 155 0008 1A70     		strb	r2, [r3]
 144:.\Generated_Source\PSoC4/UART_RX_FULL.c ****     UART_rx_Read();
 156              		.loc 1 144 0
 157 000a FFF7FEFF 		bl	UART_rx_Read
 145:.\Generated_Source\PSoC4/UART_RX_FULL.c ****     
 146:.\Generated_Source\PSoC4/UART_RX_FULL.c ****     /* `#END` */
 147:.\Generated_Source\PSoC4/UART_RX_FULL.c **** }
 158              		.loc 1 147 0
 159 000e BD46     		mov	sp, r7
 160              		@ sp needed for prologue
 161 0010 80BD     		pop	{r7, pc}
 162              	.L10:
 163 0012 C046     		.align	2
 164              	.L9:
 165 0014 00000000 		.word	flag
 166              		.cfi_endproc
 167              	.LFE3:
 168              		.size	UART_RX_FULL_Interrupt, .-UART_RX_FULL_Interrupt
 169              		.section	.text.UART_RX_FULL_SetVector,"ax",%progbits
 170              		.align	2
 171              		.global	UART_RX_FULL_SetVector
 172              		.code	16
 173              		.thumb_func
 174              		.type	UART_RX_FULL_SetVector, %function
 175              	UART_RX_FULL_SetVector:
 176              	.LFB4:
 148:.\Generated_Source\PSoC4/UART_RX_FULL.c **** 
 149:.\Generated_Source\PSoC4/UART_RX_FULL.c **** 
 150:.\Generated_Source\PSoC4/UART_RX_FULL.c **** /*******************************************************************************
 151:.\Generated_Source\PSoC4/UART_RX_FULL.c **** * Function Name: UART_RX_FULL_SetVector
 152:.\Generated_Source\PSoC4/UART_RX_FULL.c **** ********************************************************************************
 153:.\Generated_Source\PSoC4/UART_RX_FULL.c **** *
 154:.\Generated_Source\PSoC4/UART_RX_FULL.c **** * Summary:
 155:.\Generated_Source\PSoC4/UART_RX_FULL.c **** *   Change the ISR vector for the Interrupt. Note calling UART_RX_FULL_Start
 156:.\Generated_Source\PSoC4/UART_RX_FULL.c **** *   will override any effect this method would have had. To set the vector 
 157:.\Generated_Source\PSoC4/UART_RX_FULL.c **** *   before the component has been started use UART_RX_FULL_StartEx instead.
 158:.\Generated_Source\PSoC4/UART_RX_FULL.c **** *
 159:.\Generated_Source\PSoC4/UART_RX_FULL.c **** * Parameters:
 160:.\Generated_Source\PSoC4/UART_RX_FULL.c **** *   address: Address of the ISR to set in the interrupt vector table.
 161:.\Generated_Source\PSoC4/UART_RX_FULL.c **** *
 162:.\Generated_Source\PSoC4/UART_RX_FULL.c **** * Return:
 163:.\Generated_Source\PSoC4/UART_RX_FULL.c **** *   None
 164:.\Generated_Source\PSoC4/UART_RX_FULL.c **** *
 165:.\Generated_Source\PSoC4/UART_RX_FULL.c **** *******************************************************************************/
 166:.\Generated_Source\PSoC4/UART_RX_FULL.c **** void UART_RX_FULL_SetVector(cyisraddress address)
ARM GAS  C:\Users\Sam\AppData\Local\Temp\ccjtxPlZ.s 			page 7


 167:.\Generated_Source\PSoC4/UART_RX_FULL.c **** {
 177              		.loc 1 167 0
 178              		.cfi_startproc
 179 0000 80B5     		push	{r7, lr}
 180              	.LCFI9:
 181              		.cfi_def_cfa_offset 8
 182              		.cfi_offset 7, -8
 183              		.cfi_offset 14, -4
 184 0002 82B0     		sub	sp, sp, #8
 185              	.LCFI10:
 186              		.cfi_def_cfa_offset 16
 187 0004 00AF     		add	r7, sp, #0
 188              	.LCFI11:
 189              		.cfi_def_cfa_register 7
 190 0006 7860     		str	r0, [r7, #4]
 168:.\Generated_Source\PSoC4/UART_RX_FULL.c ****     CyRamVectors[CYINT_IRQ_BASE + UART_RX_FULL__INTC_NUMBER] = address;
 191              		.loc 1 168 0
 192 0008 024B     		ldr	r3, .L12
 193 000a 7A68     		ldr	r2, [r7, #4]
 194 000c DA66     		str	r2, [r3, #108]
 169:.\Generated_Source\PSoC4/UART_RX_FULL.c **** }
 195              		.loc 1 169 0
 196 000e BD46     		mov	sp, r7
 197 0010 02B0     		add	sp, sp, #8
 198              		@ sp needed for prologue
 199 0012 80BD     		pop	{r7, pc}
 200              	.L13:
 201              		.align	2
 202              	.L12:
 203 0014 00000000 		.word	CyRamVectors
 204              		.cfi_endproc
 205              	.LFE4:
 206              		.size	UART_RX_FULL_SetVector, .-UART_RX_FULL_SetVector
 207              		.section	.text.UART_RX_FULL_GetVector,"ax",%progbits
 208              		.align	2
 209              		.global	UART_RX_FULL_GetVector
 210              		.code	16
 211              		.thumb_func
 212              		.type	UART_RX_FULL_GetVector, %function
 213              	UART_RX_FULL_GetVector:
 214              	.LFB5:
 170:.\Generated_Source\PSoC4/UART_RX_FULL.c **** 
 171:.\Generated_Source\PSoC4/UART_RX_FULL.c **** 
 172:.\Generated_Source\PSoC4/UART_RX_FULL.c **** /*******************************************************************************
 173:.\Generated_Source\PSoC4/UART_RX_FULL.c **** * Function Name: UART_RX_FULL_GetVector
 174:.\Generated_Source\PSoC4/UART_RX_FULL.c **** ********************************************************************************
 175:.\Generated_Source\PSoC4/UART_RX_FULL.c **** *
 176:.\Generated_Source\PSoC4/UART_RX_FULL.c **** * Summary:
 177:.\Generated_Source\PSoC4/UART_RX_FULL.c **** *   Gets the "address" of the current ISR vector for the Interrupt.
 178:.\Generated_Source\PSoC4/UART_RX_FULL.c **** *
 179:.\Generated_Source\PSoC4/UART_RX_FULL.c **** * Parameters:
 180:.\Generated_Source\PSoC4/UART_RX_FULL.c **** *   None
 181:.\Generated_Source\PSoC4/UART_RX_FULL.c **** *
 182:.\Generated_Source\PSoC4/UART_RX_FULL.c **** * Return:
 183:.\Generated_Source\PSoC4/UART_RX_FULL.c **** *   Address of the ISR in the interrupt vector table.
 184:.\Generated_Source\PSoC4/UART_RX_FULL.c **** *
 185:.\Generated_Source\PSoC4/UART_RX_FULL.c **** *******************************************************************************/
ARM GAS  C:\Users\Sam\AppData\Local\Temp\ccjtxPlZ.s 			page 8


 186:.\Generated_Source\PSoC4/UART_RX_FULL.c **** cyisraddress UART_RX_FULL_GetVector(void)
 187:.\Generated_Source\PSoC4/UART_RX_FULL.c **** {
 215              		.loc 1 187 0
 216              		.cfi_startproc
 217 0000 80B5     		push	{r7, lr}
 218              	.LCFI12:
 219              		.cfi_def_cfa_offset 8
 220              		.cfi_offset 7, -8
 221              		.cfi_offset 14, -4
 222 0002 00AF     		add	r7, sp, #0
 223              	.LCFI13:
 224              		.cfi_def_cfa_register 7
 188:.\Generated_Source\PSoC4/UART_RX_FULL.c ****     return CyRamVectors[CYINT_IRQ_BASE + UART_RX_FULL__INTC_NUMBER];
 225              		.loc 1 188 0
 226 0004 024B     		ldr	r3, .L16
 227 0006 DB6E     		ldr	r3, [r3, #108]
 189:.\Generated_Source\PSoC4/UART_RX_FULL.c **** }
 228              		.loc 1 189 0
 229 0008 181C     		mov	r0, r3
 230 000a BD46     		mov	sp, r7
 231              		@ sp needed for prologue
 232 000c 80BD     		pop	{r7, pc}
 233              	.L17:
 234 000e C046     		.align	2
 235              	.L16:
 236 0010 00000000 		.word	CyRamVectors
 237              		.cfi_endproc
 238              	.LFE5:
 239              		.size	UART_RX_FULL_GetVector, .-UART_RX_FULL_GetVector
 240              		.section	.text.UART_RX_FULL_SetPriority,"ax",%progbits
 241              		.align	2
 242              		.global	UART_RX_FULL_SetPriority
 243              		.code	16
 244              		.thumb_func
 245              		.type	UART_RX_FULL_SetPriority, %function
 246              	UART_RX_FULL_SetPriority:
 247              	.LFB6:
 190:.\Generated_Source\PSoC4/UART_RX_FULL.c **** 
 191:.\Generated_Source\PSoC4/UART_RX_FULL.c **** 
 192:.\Generated_Source\PSoC4/UART_RX_FULL.c **** /*******************************************************************************
 193:.\Generated_Source\PSoC4/UART_RX_FULL.c **** * Function Name: UART_RX_FULL_SetPriority
 194:.\Generated_Source\PSoC4/UART_RX_FULL.c **** ********************************************************************************
 195:.\Generated_Source\PSoC4/UART_RX_FULL.c **** *
 196:.\Generated_Source\PSoC4/UART_RX_FULL.c **** * Summary:
 197:.\Generated_Source\PSoC4/UART_RX_FULL.c **** *   Sets the Priority of the Interrupt. Note calling UART_RX_FULL_Start
 198:.\Generated_Source\PSoC4/UART_RX_FULL.c **** *   or UART_RX_FULL_StartEx will override any effect this method would 
 199:.\Generated_Source\PSoC4/UART_RX_FULL.c **** *   have had. This method should only be called after UART_RX_FULL_Start or 
 200:.\Generated_Source\PSoC4/UART_RX_FULL.c **** *   UART_RX_FULL_StartEx has been called. To set the initial
 201:.\Generated_Source\PSoC4/UART_RX_FULL.c **** *   priority for the component use the cydwr file in the tool.
 202:.\Generated_Source\PSoC4/UART_RX_FULL.c **** *
 203:.\Generated_Source\PSoC4/UART_RX_FULL.c **** * Parameters:
 204:.\Generated_Source\PSoC4/UART_RX_FULL.c **** *   priority: Priority of the interrupt. 0 - 3, 0 being the highest.
 205:.\Generated_Source\PSoC4/UART_RX_FULL.c **** *
 206:.\Generated_Source\PSoC4/UART_RX_FULL.c **** * Return:
 207:.\Generated_Source\PSoC4/UART_RX_FULL.c **** *   None
 208:.\Generated_Source\PSoC4/UART_RX_FULL.c **** *
 209:.\Generated_Source\PSoC4/UART_RX_FULL.c **** *******************************************************************************/
ARM GAS  C:\Users\Sam\AppData\Local\Temp\ccjtxPlZ.s 			page 9


 210:.\Generated_Source\PSoC4/UART_RX_FULL.c **** void UART_RX_FULL_SetPriority(uint8 priority)
 211:.\Generated_Source\PSoC4/UART_RX_FULL.c **** {
 248              		.loc 1 211 0
 249              		.cfi_startproc
 250 0000 90B5     		push	{r4, r7, lr}
 251              	.LCFI14:
 252              		.cfi_def_cfa_offset 12
 253              		.cfi_offset 4, -12
 254              		.cfi_offset 7, -8
 255              		.cfi_offset 14, -4
 256 0002 85B0     		sub	sp, sp, #20
 257              	.LCFI15:
 258              		.cfi_def_cfa_offset 32
 259 0004 00AF     		add	r7, sp, #0
 260              	.LCFI16:
 261              		.cfi_def_cfa_register 7
 262 0006 021C     		mov	r2, r0
 263 0008 FB1D     		add	r3, r7, #7
 264 000a 1A70     		strb	r2, [r3]
 212:.\Generated_Source\PSoC4/UART_RX_FULL.c **** 	uint8 interruptState;
 213:.\Generated_Source\PSoC4/UART_RX_FULL.c ****     uint32 priorityOffset = ((UART_RX_FULL__INTC_NUMBER % 4u) * 8u) + 6u;
 265              		.loc 1 213 0
 266 000c 1E23     		mov	r3, #30
 267 000e FB60     		str	r3, [r7, #12]
 214:.\Generated_Source\PSoC4/UART_RX_FULL.c ****     
 215:.\Generated_Source\PSoC4/UART_RX_FULL.c **** 	interruptState = CyEnterCriticalSection();
 268              		.loc 1 215 0
 269 0010 3C1C     		mov	r4, r7
 270 0012 0B34     		add	r4, r4, #11
 271 0014 FFF7FEFF 		bl	CyEnterCriticalSection
 272 0018 031C     		mov	r3, r0
 273 001a 2370     		strb	r3, [r4]
 216:.\Generated_Source\PSoC4/UART_RX_FULL.c ****     *UART_RX_FULL_INTC_PRIOR = (*UART_RX_FULL_INTC_PRIOR & (uint32)(~UART_RX_FULL__INTC_PRIOR_MASK)
 274              		.loc 1 216 0
 275 001c 0A4B     		ldr	r3, .L19
 276 001e 0A4A     		ldr	r2, .L19
 277 0020 1268     		ldr	r2, [r2]
 278 0022 9200     		lsl	r2, r2, #2
 279 0024 9108     		lsr	r1, r2, #2
 217:.\Generated_Source\PSoC4/UART_RX_FULL.c ****                                     ((uint32)priority << priorityOffset);
 280              		.loc 1 217 0
 281 0026 FA1D     		add	r2, r7, #7
 282 0028 1078     		ldrb	r0, [r2]
 283 002a FA68     		ldr	r2, [r7, #12]
 284 002c 041C     		mov	r4, r0
 285 002e 9440     		lsl	r4, r4, r2
 286 0030 221C     		mov	r2, r4
 216:.\Generated_Source\PSoC4/UART_RX_FULL.c ****     *UART_RX_FULL_INTC_PRIOR = (*UART_RX_FULL_INTC_PRIOR & (uint32)(~UART_RX_FULL__INTC_PRIOR_MASK)
 287              		.loc 1 216 0
 288 0032 0A43     		orr	r2, r1
 289 0034 1A60     		str	r2, [r3]
 218:.\Generated_Source\PSoC4/UART_RX_FULL.c **** 	CyExitCriticalSection(interruptState);
 290              		.loc 1 218 0
 291 0036 3B1C     		mov	r3, r7
 292 0038 0B33     		add	r3, r3, #11
 293 003a 1B78     		ldrb	r3, [r3]
 294 003c 181C     		mov	r0, r3
ARM GAS  C:\Users\Sam\AppData\Local\Temp\ccjtxPlZ.s 			page 10


 295 003e FFF7FEFF 		bl	CyExitCriticalSection
 219:.\Generated_Source\PSoC4/UART_RX_FULL.c **** }
 296              		.loc 1 219 0
 297 0042 BD46     		mov	sp, r7
 298 0044 05B0     		add	sp, sp, #20
 299              		@ sp needed for prologue
 300 0046 90BD     		pop	{r4, r7, pc}
 301              	.L20:
 302              		.align	2
 303              	.L19:
 304 0048 08E400E0 		.word	-536812536
 305              		.cfi_endproc
 306              	.LFE6:
 307              		.size	UART_RX_FULL_SetPriority, .-UART_RX_FULL_SetPriority
 308              		.section	.text.UART_RX_FULL_GetPriority,"ax",%progbits
 309              		.align	2
 310              		.global	UART_RX_FULL_GetPriority
 311              		.code	16
 312              		.thumb_func
 313              		.type	UART_RX_FULL_GetPriority, %function
 314              	UART_RX_FULL_GetPriority:
 315              	.LFB7:
 220:.\Generated_Source\PSoC4/UART_RX_FULL.c **** 
 221:.\Generated_Source\PSoC4/UART_RX_FULL.c **** 
 222:.\Generated_Source\PSoC4/UART_RX_FULL.c **** /*******************************************************************************
 223:.\Generated_Source\PSoC4/UART_RX_FULL.c **** * Function Name: UART_RX_FULL_GetPriority
 224:.\Generated_Source\PSoC4/UART_RX_FULL.c **** ********************************************************************************
 225:.\Generated_Source\PSoC4/UART_RX_FULL.c **** *
 226:.\Generated_Source\PSoC4/UART_RX_FULL.c **** * Summary:
 227:.\Generated_Source\PSoC4/UART_RX_FULL.c **** *   Gets the Priority of the Interrupt.
 228:.\Generated_Source\PSoC4/UART_RX_FULL.c **** *
 229:.\Generated_Source\PSoC4/UART_RX_FULL.c **** * Parameters:
 230:.\Generated_Source\PSoC4/UART_RX_FULL.c **** *   None
 231:.\Generated_Source\PSoC4/UART_RX_FULL.c **** *
 232:.\Generated_Source\PSoC4/UART_RX_FULL.c **** * Return:
 233:.\Generated_Source\PSoC4/UART_RX_FULL.c **** *   Priority of the interrupt. 0 - 3, 0 being the highest.
 234:.\Generated_Source\PSoC4/UART_RX_FULL.c **** *
 235:.\Generated_Source\PSoC4/UART_RX_FULL.c **** *******************************************************************************/
 236:.\Generated_Source\PSoC4/UART_RX_FULL.c **** uint8 UART_RX_FULL_GetPriority(void)
 237:.\Generated_Source\PSoC4/UART_RX_FULL.c **** {
 316              		.loc 1 237 0
 317              		.cfi_startproc
 318 0000 80B5     		push	{r7, lr}
 319              	.LCFI17:
 320              		.cfi_def_cfa_offset 8
 321              		.cfi_offset 7, -8
 322              		.cfi_offset 14, -4
 323 0002 82B0     		sub	sp, sp, #8
 324              	.LCFI18:
 325              		.cfi_def_cfa_offset 16
 326 0004 00AF     		add	r7, sp, #0
 327              	.LCFI19:
 328              		.cfi_def_cfa_register 7
 238:.\Generated_Source\PSoC4/UART_RX_FULL.c ****     uint32 priority;
 239:.\Generated_Source\PSoC4/UART_RX_FULL.c **** 	uint32 priorityOffset = ((UART_RX_FULL__INTC_NUMBER % 4u) * 8u) + 6u;
 329              		.loc 1 239 0
 330 0006 1E23     		mov	r3, #30
ARM GAS  C:\Users\Sam\AppData\Local\Temp\ccjtxPlZ.s 			page 11


 331 0008 7B60     		str	r3, [r7, #4]
 240:.\Generated_Source\PSoC4/UART_RX_FULL.c **** 
 241:.\Generated_Source\PSoC4/UART_RX_FULL.c ****     priority = (*UART_RX_FULL_INTC_PRIOR & UART_RX_FULL__INTC_PRIOR_MASK) >> priorityOffset;
 332              		.loc 1 241 0
 333 000a 074B     		ldr	r3, .L23
 334 000c 1B68     		ldr	r3, [r3]
 335 000e 9B0F     		lsr	r3, r3, #30
 336 0010 9A07     		lsl	r2, r3, #30
 337 0012 7B68     		ldr	r3, [r7, #4]
 338 0014 111C     		mov	r1, r2
 339 0016 D940     		lsr	r1, r1, r3
 340 0018 0B1C     		mov	r3, r1
 341 001a 3B60     		str	r3, [r7]
 242:.\Generated_Source\PSoC4/UART_RX_FULL.c **** 
 243:.\Generated_Source\PSoC4/UART_RX_FULL.c ****     return (uint8)priority;
 342              		.loc 1 243 0
 343 001c 3B68     		ldr	r3, [r7]
 344 001e DBB2     		uxtb	r3, r3
 244:.\Generated_Source\PSoC4/UART_RX_FULL.c **** }
 345              		.loc 1 244 0
 346 0020 181C     		mov	r0, r3
 347 0022 BD46     		mov	sp, r7
 348 0024 02B0     		add	sp, sp, #8
 349              		@ sp needed for prologue
 350 0026 80BD     		pop	{r7, pc}
 351              	.L24:
 352              		.align	2
 353              	.L23:
 354 0028 08E400E0 		.word	-536812536
 355              		.cfi_endproc
 356              	.LFE7:
 357              		.size	UART_RX_FULL_GetPriority, .-UART_RX_FULL_GetPriority
 358              		.section	.text.UART_RX_FULL_Enable,"ax",%progbits
 359              		.align	2
 360              		.global	UART_RX_FULL_Enable
 361              		.code	16
 362              		.thumb_func
 363              		.type	UART_RX_FULL_Enable, %function
 364              	UART_RX_FULL_Enable:
 365              	.LFB8:
 245:.\Generated_Source\PSoC4/UART_RX_FULL.c **** 
 246:.\Generated_Source\PSoC4/UART_RX_FULL.c **** 
 247:.\Generated_Source\PSoC4/UART_RX_FULL.c **** /*******************************************************************************
 248:.\Generated_Source\PSoC4/UART_RX_FULL.c **** * Function Name: UART_RX_FULL_Enable
 249:.\Generated_Source\PSoC4/UART_RX_FULL.c **** ********************************************************************************
 250:.\Generated_Source\PSoC4/UART_RX_FULL.c **** *
 251:.\Generated_Source\PSoC4/UART_RX_FULL.c **** * Summary:
 252:.\Generated_Source\PSoC4/UART_RX_FULL.c **** *   Enables the interrupt.
 253:.\Generated_Source\PSoC4/UART_RX_FULL.c **** *
 254:.\Generated_Source\PSoC4/UART_RX_FULL.c **** * Parameters:
 255:.\Generated_Source\PSoC4/UART_RX_FULL.c **** *   None
 256:.\Generated_Source\PSoC4/UART_RX_FULL.c **** *
 257:.\Generated_Source\PSoC4/UART_RX_FULL.c **** * Return:
 258:.\Generated_Source\PSoC4/UART_RX_FULL.c **** *   None
 259:.\Generated_Source\PSoC4/UART_RX_FULL.c **** *
 260:.\Generated_Source\PSoC4/UART_RX_FULL.c **** *******************************************************************************/
 261:.\Generated_Source\PSoC4/UART_RX_FULL.c **** void UART_RX_FULL_Enable(void)
ARM GAS  C:\Users\Sam\AppData\Local\Temp\ccjtxPlZ.s 			page 12


 262:.\Generated_Source\PSoC4/UART_RX_FULL.c **** {
 366              		.loc 1 262 0
 367              		.cfi_startproc
 368 0000 80B5     		push	{r7, lr}
 369              	.LCFI20:
 370              		.cfi_def_cfa_offset 8
 371              		.cfi_offset 7, -8
 372              		.cfi_offset 14, -4
 373 0002 00AF     		add	r7, sp, #0
 374              	.LCFI21:
 375              		.cfi_def_cfa_register 7
 263:.\Generated_Source\PSoC4/UART_RX_FULL.c ****     /* Enable the general interrupt. */
 264:.\Generated_Source\PSoC4/UART_RX_FULL.c ****     *UART_RX_FULL_INTC_SET_EN = UART_RX_FULL__INTC_MASK;
 376              		.loc 1 264 0
 377 0004 024B     		ldr	r3, .L26
 378 0006 8022     		mov	r2, #128
 379 0008 1201     		lsl	r2, r2, #4
 380 000a 1A60     		str	r2, [r3]
 265:.\Generated_Source\PSoC4/UART_RX_FULL.c **** }
 381              		.loc 1 265 0
 382 000c BD46     		mov	sp, r7
 383              		@ sp needed for prologue
 384 000e 80BD     		pop	{r7, pc}
 385              	.L27:
 386              		.align	2
 387              	.L26:
 388 0010 00E100E0 		.word	-536813312
 389              		.cfi_endproc
 390              	.LFE8:
 391              		.size	UART_RX_FULL_Enable, .-UART_RX_FULL_Enable
 392              		.section	.text.UART_RX_FULL_GetState,"ax",%progbits
 393              		.align	2
 394              		.global	UART_RX_FULL_GetState
 395              		.code	16
 396              		.thumb_func
 397              		.type	UART_RX_FULL_GetState, %function
 398              	UART_RX_FULL_GetState:
 399              	.LFB9:
 266:.\Generated_Source\PSoC4/UART_RX_FULL.c **** 
 267:.\Generated_Source\PSoC4/UART_RX_FULL.c **** 
 268:.\Generated_Source\PSoC4/UART_RX_FULL.c **** /*******************************************************************************
 269:.\Generated_Source\PSoC4/UART_RX_FULL.c **** * Function Name: UART_RX_FULL_GetState
 270:.\Generated_Source\PSoC4/UART_RX_FULL.c **** ********************************************************************************
 271:.\Generated_Source\PSoC4/UART_RX_FULL.c **** *
 272:.\Generated_Source\PSoC4/UART_RX_FULL.c **** * Summary:
 273:.\Generated_Source\PSoC4/UART_RX_FULL.c **** *   Gets the state (enabled, disabled) of the Interrupt.
 274:.\Generated_Source\PSoC4/UART_RX_FULL.c **** *
 275:.\Generated_Source\PSoC4/UART_RX_FULL.c **** * Parameters:
 276:.\Generated_Source\PSoC4/UART_RX_FULL.c **** *   None
 277:.\Generated_Source\PSoC4/UART_RX_FULL.c **** *
 278:.\Generated_Source\PSoC4/UART_RX_FULL.c **** * Return:
 279:.\Generated_Source\PSoC4/UART_RX_FULL.c **** *   1 if enabled, 0 if disabled.
 280:.\Generated_Source\PSoC4/UART_RX_FULL.c **** *
 281:.\Generated_Source\PSoC4/UART_RX_FULL.c **** *******************************************************************************/
 282:.\Generated_Source\PSoC4/UART_RX_FULL.c **** uint8 UART_RX_FULL_GetState(void)
 283:.\Generated_Source\PSoC4/UART_RX_FULL.c **** {
 400              		.loc 1 283 0
ARM GAS  C:\Users\Sam\AppData\Local\Temp\ccjtxPlZ.s 			page 13


 401              		.cfi_startproc
 402 0000 80B5     		push	{r7, lr}
 403              	.LCFI22:
 404              		.cfi_def_cfa_offset 8
 405              		.cfi_offset 7, -8
 406              		.cfi_offset 14, -4
 407 0002 00AF     		add	r7, sp, #0
 408              	.LCFI23:
 409              		.cfi_def_cfa_register 7
 284:.\Generated_Source\PSoC4/UART_RX_FULL.c ****     /* Get the state of the general interrupt. */
 285:.\Generated_Source\PSoC4/UART_RX_FULL.c ****     return ((*UART_RX_FULL_INTC_SET_EN & (uint32)UART_RX_FULL__INTC_MASK) != 0u) ? 1u:0u;
 410              		.loc 1 285 0
 411 0004 054B     		ldr	r3, .L32
 412 0006 1A68     		ldr	r2, [r3]
 413 0008 8023     		mov	r3, #128
 414 000a 1B01     		lsl	r3, r3, #4
 415 000c 1340     		and	r3, r2
 416 000e 01D0     		beq	.L29
 417              		.loc 1 285 0 is_stmt 0 discriminator 1
 418 0010 0123     		mov	r3, #1
 419 0012 00E0     		b	.L30
 420              	.L29:
 421              		.loc 1 285 0 discriminator 2
 422 0014 0023     		mov	r3, #0
 423              	.L30:
 286:.\Generated_Source\PSoC4/UART_RX_FULL.c **** }
 424              		.loc 1 286 0 is_stmt 1 discriminator 3
 425 0016 181C     		mov	r0, r3
 426 0018 BD46     		mov	sp, r7
 427              		@ sp needed for prologue
 428 001a 80BD     		pop	{r7, pc}
 429              	.L33:
 430              		.align	2
 431              	.L32:
 432 001c 00E100E0 		.word	-536813312
 433              		.cfi_endproc
 434              	.LFE9:
 435              		.size	UART_RX_FULL_GetState, .-UART_RX_FULL_GetState
 436              		.section	.text.UART_RX_FULL_Disable,"ax",%progbits
 437              		.align	2
 438              		.global	UART_RX_FULL_Disable
 439              		.code	16
 440              		.thumb_func
 441              		.type	UART_RX_FULL_Disable, %function
 442              	UART_RX_FULL_Disable:
 443              	.LFB10:
 287:.\Generated_Source\PSoC4/UART_RX_FULL.c **** 
 288:.\Generated_Source\PSoC4/UART_RX_FULL.c **** 
 289:.\Generated_Source\PSoC4/UART_RX_FULL.c **** /*******************************************************************************
 290:.\Generated_Source\PSoC4/UART_RX_FULL.c **** * Function Name: UART_RX_FULL_Disable
 291:.\Generated_Source\PSoC4/UART_RX_FULL.c **** ********************************************************************************
 292:.\Generated_Source\PSoC4/UART_RX_FULL.c **** *
 293:.\Generated_Source\PSoC4/UART_RX_FULL.c **** * Summary:
 294:.\Generated_Source\PSoC4/UART_RX_FULL.c **** *   Disables the Interrupt.
 295:.\Generated_Source\PSoC4/UART_RX_FULL.c **** *
 296:.\Generated_Source\PSoC4/UART_RX_FULL.c **** * Parameters:
 297:.\Generated_Source\PSoC4/UART_RX_FULL.c **** *   None
ARM GAS  C:\Users\Sam\AppData\Local\Temp\ccjtxPlZ.s 			page 14


 298:.\Generated_Source\PSoC4/UART_RX_FULL.c **** *
 299:.\Generated_Source\PSoC4/UART_RX_FULL.c **** * Return:
 300:.\Generated_Source\PSoC4/UART_RX_FULL.c **** *   None
 301:.\Generated_Source\PSoC4/UART_RX_FULL.c **** *
 302:.\Generated_Source\PSoC4/UART_RX_FULL.c **** *******************************************************************************/
 303:.\Generated_Source\PSoC4/UART_RX_FULL.c **** void UART_RX_FULL_Disable(void)
 304:.\Generated_Source\PSoC4/UART_RX_FULL.c **** {
 444              		.loc 1 304 0
 445              		.cfi_startproc
 446 0000 80B5     		push	{r7, lr}
 447              	.LCFI24:
 448              		.cfi_def_cfa_offset 8
 449              		.cfi_offset 7, -8
 450              		.cfi_offset 14, -4
 451 0002 00AF     		add	r7, sp, #0
 452              	.LCFI25:
 453              		.cfi_def_cfa_register 7
 305:.\Generated_Source\PSoC4/UART_RX_FULL.c ****     /* Disable the general interrupt. */
 306:.\Generated_Source\PSoC4/UART_RX_FULL.c ****     *UART_RX_FULL_INTC_CLR_EN = UART_RX_FULL__INTC_MASK;
 454              		.loc 1 306 0
 455 0004 024B     		ldr	r3, .L35
 456 0006 8022     		mov	r2, #128
 457 0008 1201     		lsl	r2, r2, #4
 458 000a 1A60     		str	r2, [r3]
 307:.\Generated_Source\PSoC4/UART_RX_FULL.c **** }
 459              		.loc 1 307 0
 460 000c BD46     		mov	sp, r7
 461              		@ sp needed for prologue
 462 000e 80BD     		pop	{r7, pc}
 463              	.L36:
 464              		.align	2
 465              	.L35:
 466 0010 80E100E0 		.word	-536813184
 467              		.cfi_endproc
 468              	.LFE10:
 469              		.size	UART_RX_FULL_Disable, .-UART_RX_FULL_Disable
 470              		.section	.text.UART_RX_FULL_SetPending,"ax",%progbits
 471              		.align	2
 472              		.global	UART_RX_FULL_SetPending
 473              		.code	16
 474              		.thumb_func
 475              		.type	UART_RX_FULL_SetPending, %function
 476              	UART_RX_FULL_SetPending:
 477              	.LFB11:
 308:.\Generated_Source\PSoC4/UART_RX_FULL.c **** 
 309:.\Generated_Source\PSoC4/UART_RX_FULL.c **** 
 310:.\Generated_Source\PSoC4/UART_RX_FULL.c **** /*******************************************************************************
 311:.\Generated_Source\PSoC4/UART_RX_FULL.c **** * Function Name: UART_RX_FULL_SetPending
 312:.\Generated_Source\PSoC4/UART_RX_FULL.c **** ********************************************************************************
 313:.\Generated_Source\PSoC4/UART_RX_FULL.c **** *
 314:.\Generated_Source\PSoC4/UART_RX_FULL.c **** * Summary:
 315:.\Generated_Source\PSoC4/UART_RX_FULL.c **** *   Causes the Interrupt to enter the pending state, a software method of
 316:.\Generated_Source\PSoC4/UART_RX_FULL.c **** *   generating the interrupt.
 317:.\Generated_Source\PSoC4/UART_RX_FULL.c **** *
 318:.\Generated_Source\PSoC4/UART_RX_FULL.c **** * Parameters:
 319:.\Generated_Source\PSoC4/UART_RX_FULL.c **** *   None
 320:.\Generated_Source\PSoC4/UART_RX_FULL.c **** *
ARM GAS  C:\Users\Sam\AppData\Local\Temp\ccjtxPlZ.s 			page 15


 321:.\Generated_Source\PSoC4/UART_RX_FULL.c **** * Return:
 322:.\Generated_Source\PSoC4/UART_RX_FULL.c **** *   None
 323:.\Generated_Source\PSoC4/UART_RX_FULL.c **** *
 324:.\Generated_Source\PSoC4/UART_RX_FULL.c **** *******************************************************************************/
 325:.\Generated_Source\PSoC4/UART_RX_FULL.c **** void UART_RX_FULL_SetPending(void)
 326:.\Generated_Source\PSoC4/UART_RX_FULL.c **** {
 478              		.loc 1 326 0
 479              		.cfi_startproc
 480 0000 80B5     		push	{r7, lr}
 481              	.LCFI26:
 482              		.cfi_def_cfa_offset 8
 483              		.cfi_offset 7, -8
 484              		.cfi_offset 14, -4
 485 0002 00AF     		add	r7, sp, #0
 486              	.LCFI27:
 487              		.cfi_def_cfa_register 7
 327:.\Generated_Source\PSoC4/UART_RX_FULL.c ****     *UART_RX_FULL_INTC_SET_PD = UART_RX_FULL__INTC_MASK;
 488              		.loc 1 327 0
 489 0004 024B     		ldr	r3, .L38
 490 0006 8022     		mov	r2, #128
 491 0008 1201     		lsl	r2, r2, #4
 492 000a 1A60     		str	r2, [r3]
 328:.\Generated_Source\PSoC4/UART_RX_FULL.c **** }
 493              		.loc 1 328 0
 494 000c BD46     		mov	sp, r7
 495              		@ sp needed for prologue
 496 000e 80BD     		pop	{r7, pc}
 497              	.L39:
 498              		.align	2
 499              	.L38:
 500 0010 00E200E0 		.word	-536813056
 501              		.cfi_endproc
 502              	.LFE11:
 503              		.size	UART_RX_FULL_SetPending, .-UART_RX_FULL_SetPending
 504              		.section	.text.UART_RX_FULL_ClearPending,"ax",%progbits
 505              		.align	2
 506              		.global	UART_RX_FULL_ClearPending
 507              		.code	16
 508              		.thumb_func
 509              		.type	UART_RX_FULL_ClearPending, %function
 510              	UART_RX_FULL_ClearPending:
 511              	.LFB12:
 329:.\Generated_Source\PSoC4/UART_RX_FULL.c **** 
 330:.\Generated_Source\PSoC4/UART_RX_FULL.c **** 
 331:.\Generated_Source\PSoC4/UART_RX_FULL.c **** /*******************************************************************************
 332:.\Generated_Source\PSoC4/UART_RX_FULL.c **** * Function Name: UART_RX_FULL_ClearPending
 333:.\Generated_Source\PSoC4/UART_RX_FULL.c **** ********************************************************************************
 334:.\Generated_Source\PSoC4/UART_RX_FULL.c **** *
 335:.\Generated_Source\PSoC4/UART_RX_FULL.c **** * Summary:
 336:.\Generated_Source\PSoC4/UART_RX_FULL.c **** *   Clears a pending interrupt.
 337:.\Generated_Source\PSoC4/UART_RX_FULL.c **** *
 338:.\Generated_Source\PSoC4/UART_RX_FULL.c **** * Parameters:
 339:.\Generated_Source\PSoC4/UART_RX_FULL.c **** *   None
 340:.\Generated_Source\PSoC4/UART_RX_FULL.c **** *
 341:.\Generated_Source\PSoC4/UART_RX_FULL.c **** * Return:
 342:.\Generated_Source\PSoC4/UART_RX_FULL.c **** *   None
 343:.\Generated_Source\PSoC4/UART_RX_FULL.c **** *
ARM GAS  C:\Users\Sam\AppData\Local\Temp\ccjtxPlZ.s 			page 16


 344:.\Generated_Source\PSoC4/UART_RX_FULL.c **** *******************************************************************************/
 345:.\Generated_Source\PSoC4/UART_RX_FULL.c **** void UART_RX_FULL_ClearPending(void)
 346:.\Generated_Source\PSoC4/UART_RX_FULL.c **** {
 512              		.loc 1 346 0
 513              		.cfi_startproc
 514 0000 80B5     		push	{r7, lr}
 515              	.LCFI28:
 516              		.cfi_def_cfa_offset 8
 517              		.cfi_offset 7, -8
 518              		.cfi_offset 14, -4
 519 0002 00AF     		add	r7, sp, #0
 520              	.LCFI29:
 521              		.cfi_def_cfa_register 7
 347:.\Generated_Source\PSoC4/UART_RX_FULL.c ****     *UART_RX_FULL_INTC_CLR_PD = UART_RX_FULL__INTC_MASK;
 522              		.loc 1 347 0
 523 0004 024B     		ldr	r3, .L41
 524 0006 8022     		mov	r2, #128
 525 0008 1201     		lsl	r2, r2, #4
 526 000a 1A60     		str	r2, [r3]
 348:.\Generated_Source\PSoC4/UART_RX_FULL.c **** }
 527              		.loc 1 348 0
 528 000c BD46     		mov	sp, r7
 529              		@ sp needed for prologue
 530 000e 80BD     		pop	{r7, pc}
 531              	.L42:
 532              		.align	2
 533              	.L41:
 534 0010 80E200E0 		.word	-536812928
 535              		.cfi_endproc
 536              	.LFE12:
 537              		.size	UART_RX_FULL_ClearPending, .-UART_RX_FULL_ClearPending
 538              		.text
 539              	.Letext0:
 540              		.file 2 "./Generated_Source/PSoC4/cytypes.h"