ARM GAS  C:\Users\Sam\AppData\Local\Temp\ccraiRdy.s 			page 1


   1              		.cpu cortex-m0
   2              		.fpu softvfp
   3              		.eabi_attribute 20, 1
   4              		.eabi_attribute 21, 1
   5              		.eabi_attribute 23, 3
   6              		.eabi_attribute 24, 1
   7              		.eabi_attribute 25, 1
   8              		.eabi_attribute 26, 1
   9              		.eabi_attribute 30, 6
  10              		.eabi_attribute 34, 0
  11              		.eabi_attribute 18, 4
  12              		.code	16
  13              		.file	"UART_SCB_IRQ.c"
  14              		.text
  15              	.Ltext0:
  16              		.cfi_sections	.debug_frame
  17              		.section	.text.UART_SCB_IRQ_Start,"ax",%progbits
  18              		.align	2
  19              		.global	UART_SCB_IRQ_Start
  20              		.code	16
  21              		.thumb_func
  22              		.type	UART_SCB_IRQ_Start, %function
  23              	UART_SCB_IRQ_Start:
  24              	.LFB0:
  25              		.file 1 ".\\Generated_Source\\PSoC4\\UART_SCB_IRQ.c"
   1:.\Generated_Source\PSoC4/UART_SCB_IRQ.c **** /*******************************************************************************
   2:.\Generated_Source\PSoC4/UART_SCB_IRQ.c **** * File Name: UART_SCB_IRQ.c  
   3:.\Generated_Source\PSoC4/UART_SCB_IRQ.c **** * Version 1.70
   4:.\Generated_Source\PSoC4/UART_SCB_IRQ.c **** *
   5:.\Generated_Source\PSoC4/UART_SCB_IRQ.c **** *  Description:
   6:.\Generated_Source\PSoC4/UART_SCB_IRQ.c **** *   API for controlling the state of an interrupt.
   7:.\Generated_Source\PSoC4/UART_SCB_IRQ.c **** *
   8:.\Generated_Source\PSoC4/UART_SCB_IRQ.c **** *
   9:.\Generated_Source\PSoC4/UART_SCB_IRQ.c **** *  Note:
  10:.\Generated_Source\PSoC4/UART_SCB_IRQ.c **** *
  11:.\Generated_Source\PSoC4/UART_SCB_IRQ.c **** ********************************************************************************
  12:.\Generated_Source\PSoC4/UART_SCB_IRQ.c **** * Copyright 2008-2012, Cypress Semiconductor Corporation.  All rights reserved.
  13:.\Generated_Source\PSoC4/UART_SCB_IRQ.c **** * You may use this file only in accordance with the license, terms, conditions, 
  14:.\Generated_Source\PSoC4/UART_SCB_IRQ.c **** * disclaimers, and limitations in the end user license agreement accompanying 
  15:.\Generated_Source\PSoC4/UART_SCB_IRQ.c **** * the software package with which this file was provided.
  16:.\Generated_Source\PSoC4/UART_SCB_IRQ.c **** *******************************************************************************/
  17:.\Generated_Source\PSoC4/UART_SCB_IRQ.c **** 
  18:.\Generated_Source\PSoC4/UART_SCB_IRQ.c **** 
  19:.\Generated_Source\PSoC4/UART_SCB_IRQ.c **** #include <cydevice_trm.h>
  20:.\Generated_Source\PSoC4/UART_SCB_IRQ.c **** #include <CyLib.h>
  21:.\Generated_Source\PSoC4/UART_SCB_IRQ.c **** #include <UART_SCB_IRQ.h>
  22:.\Generated_Source\PSoC4/UART_SCB_IRQ.c **** 
  23:.\Generated_Source\PSoC4/UART_SCB_IRQ.c **** #if !defined(UART_SCB_IRQ__REMOVED) /* Check for removal by optimization */
  24:.\Generated_Source\PSoC4/UART_SCB_IRQ.c **** 
  25:.\Generated_Source\PSoC4/UART_SCB_IRQ.c **** /*******************************************************************************
  26:.\Generated_Source\PSoC4/UART_SCB_IRQ.c **** *  Place your includes, defines and code here 
  27:.\Generated_Source\PSoC4/UART_SCB_IRQ.c **** ********************************************************************************/
  28:.\Generated_Source\PSoC4/UART_SCB_IRQ.c **** /* `#START UART_SCB_IRQ_intc` */
  29:.\Generated_Source\PSoC4/UART_SCB_IRQ.c **** 
  30:.\Generated_Source\PSoC4/UART_SCB_IRQ.c **** /* `#END` */
  31:.\Generated_Source\PSoC4/UART_SCB_IRQ.c **** 
  32:.\Generated_Source\PSoC4/UART_SCB_IRQ.c **** extern cyisraddress CyRamVectors[CYINT_IRQ_BASE + CY_NUM_INTERRUPTS];
ARM GAS  C:\Users\Sam\AppData\Local\Temp\ccraiRdy.s 			page 2


  33:.\Generated_Source\PSoC4/UART_SCB_IRQ.c **** 
  34:.\Generated_Source\PSoC4/UART_SCB_IRQ.c **** /* Declared in startup, used to set unused interrupts to. */
  35:.\Generated_Source\PSoC4/UART_SCB_IRQ.c **** CY_ISR_PROTO(IntDefaultHandler);
  36:.\Generated_Source\PSoC4/UART_SCB_IRQ.c **** 
  37:.\Generated_Source\PSoC4/UART_SCB_IRQ.c **** 
  38:.\Generated_Source\PSoC4/UART_SCB_IRQ.c **** /*******************************************************************************
  39:.\Generated_Source\PSoC4/UART_SCB_IRQ.c **** * Function Name: UART_SCB_IRQ_Start
  40:.\Generated_Source\PSoC4/UART_SCB_IRQ.c **** ********************************************************************************
  41:.\Generated_Source\PSoC4/UART_SCB_IRQ.c **** *
  42:.\Generated_Source\PSoC4/UART_SCB_IRQ.c **** * Summary:
  43:.\Generated_Source\PSoC4/UART_SCB_IRQ.c **** *  Set up the interrupt and enable it.
  44:.\Generated_Source\PSoC4/UART_SCB_IRQ.c **** *
  45:.\Generated_Source\PSoC4/UART_SCB_IRQ.c **** * Parameters:  
  46:.\Generated_Source\PSoC4/UART_SCB_IRQ.c **** *   None
  47:.\Generated_Source\PSoC4/UART_SCB_IRQ.c **** *
  48:.\Generated_Source\PSoC4/UART_SCB_IRQ.c **** * Return:
  49:.\Generated_Source\PSoC4/UART_SCB_IRQ.c **** *   None
  50:.\Generated_Source\PSoC4/UART_SCB_IRQ.c **** *
  51:.\Generated_Source\PSoC4/UART_SCB_IRQ.c **** *******************************************************************************/
  52:.\Generated_Source\PSoC4/UART_SCB_IRQ.c **** void UART_SCB_IRQ_Start(void)
  53:.\Generated_Source\PSoC4/UART_SCB_IRQ.c **** {
  26              		.loc 1 53 0
  27              		.cfi_startproc
  28 0000 80B5     		push	{r7, lr}
  29              	.LCFI0:
  30              		.cfi_def_cfa_offset 8
  31              		.cfi_offset 7, -8
  32              		.cfi_offset 14, -4
  33 0002 00AF     		add	r7, sp, #0
  34              	.LCFI1:
  35              		.cfi_def_cfa_register 7
  54:.\Generated_Source\PSoC4/UART_SCB_IRQ.c ****     /* For all we know the interrupt is active. */
  55:.\Generated_Source\PSoC4/UART_SCB_IRQ.c ****     UART_SCB_IRQ_Disable();
  36              		.loc 1 55 0
  37 0004 FFF7FEFF 		bl	UART_SCB_IRQ_Disable
  56:.\Generated_Source\PSoC4/UART_SCB_IRQ.c **** 
  57:.\Generated_Source\PSoC4/UART_SCB_IRQ.c ****     /* Set the ISR to point to the UART_SCB_IRQ Interrupt. */
  58:.\Generated_Source\PSoC4/UART_SCB_IRQ.c ****     UART_SCB_IRQ_SetVector(&UART_SCB_IRQ_Interrupt);
  38              		.loc 1 58 0
  39 0008 054B     		ldr	r3, .L2
  40 000a 181C     		mov	r0, r3
  41 000c FFF7FEFF 		bl	UART_SCB_IRQ_SetVector
  59:.\Generated_Source\PSoC4/UART_SCB_IRQ.c **** 
  60:.\Generated_Source\PSoC4/UART_SCB_IRQ.c ****     /* Set the priority. */
  61:.\Generated_Source\PSoC4/UART_SCB_IRQ.c ****     UART_SCB_IRQ_SetPriority((uint8)UART_SCB_IRQ_INTC_PRIOR_NUMBER);
  42              		.loc 1 61 0
  43 0010 0320     		mov	r0, #3
  44 0012 FFF7FEFF 		bl	UART_SCB_IRQ_SetPriority
  62:.\Generated_Source\PSoC4/UART_SCB_IRQ.c **** 
  63:.\Generated_Source\PSoC4/UART_SCB_IRQ.c ****     /* Enable it. */
  64:.\Generated_Source\PSoC4/UART_SCB_IRQ.c ****     UART_SCB_IRQ_Enable();
  45              		.loc 1 64 0
  46 0016 FFF7FEFF 		bl	UART_SCB_IRQ_Enable
  65:.\Generated_Source\PSoC4/UART_SCB_IRQ.c **** }
  47              		.loc 1 65 0
  48 001a BD46     		mov	sp, r7
  49              		@ sp needed for prologue
ARM GAS  C:\Users\Sam\AppData\Local\Temp\ccraiRdy.s 			page 3


  50 001c 80BD     		pop	{r7, pc}
  51              	.L3:
  52 001e C046     		.align	2
  53              	.L2:
  54 0020 00000000 		.word	UART_SCB_IRQ_Interrupt
  55              		.cfi_endproc
  56              	.LFE0:
  57              		.size	UART_SCB_IRQ_Start, .-UART_SCB_IRQ_Start
  58              		.section	.text.UART_SCB_IRQ_StartEx,"ax",%progbits
  59              		.align	2
  60              		.global	UART_SCB_IRQ_StartEx
  61              		.code	16
  62              		.thumb_func
  63              		.type	UART_SCB_IRQ_StartEx, %function
  64              	UART_SCB_IRQ_StartEx:
  65              	.LFB1:
  66:.\Generated_Source\PSoC4/UART_SCB_IRQ.c **** 
  67:.\Generated_Source\PSoC4/UART_SCB_IRQ.c **** 
  68:.\Generated_Source\PSoC4/UART_SCB_IRQ.c **** /*******************************************************************************
  69:.\Generated_Source\PSoC4/UART_SCB_IRQ.c **** * Function Name: UART_SCB_IRQ_StartEx
  70:.\Generated_Source\PSoC4/UART_SCB_IRQ.c **** ********************************************************************************
  71:.\Generated_Source\PSoC4/UART_SCB_IRQ.c **** *
  72:.\Generated_Source\PSoC4/UART_SCB_IRQ.c **** * Summary:
  73:.\Generated_Source\PSoC4/UART_SCB_IRQ.c **** *  Set up the interrupt and enable it.
  74:.\Generated_Source\PSoC4/UART_SCB_IRQ.c **** *
  75:.\Generated_Source\PSoC4/UART_SCB_IRQ.c **** * Parameters:  
  76:.\Generated_Source\PSoC4/UART_SCB_IRQ.c **** *   address: Address of the ISR to set in the interrupt vector table.
  77:.\Generated_Source\PSoC4/UART_SCB_IRQ.c **** *
  78:.\Generated_Source\PSoC4/UART_SCB_IRQ.c **** * Return:
  79:.\Generated_Source\PSoC4/UART_SCB_IRQ.c **** *   None
  80:.\Generated_Source\PSoC4/UART_SCB_IRQ.c **** *
  81:.\Generated_Source\PSoC4/UART_SCB_IRQ.c **** *******************************************************************************/
  82:.\Generated_Source\PSoC4/UART_SCB_IRQ.c **** void UART_SCB_IRQ_StartEx(cyisraddress address)
  83:.\Generated_Source\PSoC4/UART_SCB_IRQ.c **** {
  66              		.loc 1 83 0
  67              		.cfi_startproc
  68 0000 80B5     		push	{r7, lr}
  69              	.LCFI2:
  70              		.cfi_def_cfa_offset 8
  71              		.cfi_offset 7, -8
  72              		.cfi_offset 14, -4
  73 0002 82B0     		sub	sp, sp, #8
  74              	.LCFI3:
  75              		.cfi_def_cfa_offset 16
  76 0004 00AF     		add	r7, sp, #0
  77              	.LCFI4:
  78              		.cfi_def_cfa_register 7
  79 0006 7860     		str	r0, [r7, #4]
  84:.\Generated_Source\PSoC4/UART_SCB_IRQ.c ****     /* For all we know the interrupt is active. */
  85:.\Generated_Source\PSoC4/UART_SCB_IRQ.c ****     UART_SCB_IRQ_Disable();
  80              		.loc 1 85 0
  81 0008 FFF7FEFF 		bl	UART_SCB_IRQ_Disable
  86:.\Generated_Source\PSoC4/UART_SCB_IRQ.c **** 
  87:.\Generated_Source\PSoC4/UART_SCB_IRQ.c ****     /* Set the ISR to point to the UART_SCB_IRQ Interrupt. */
  88:.\Generated_Source\PSoC4/UART_SCB_IRQ.c ****     UART_SCB_IRQ_SetVector(address);
  82              		.loc 1 88 0
  83 000c 7B68     		ldr	r3, [r7, #4]
ARM GAS  C:\Users\Sam\AppData\Local\Temp\ccraiRdy.s 			page 4


  84 000e 181C     		mov	r0, r3
  85 0010 FFF7FEFF 		bl	UART_SCB_IRQ_SetVector
  89:.\Generated_Source\PSoC4/UART_SCB_IRQ.c **** 
  90:.\Generated_Source\PSoC4/UART_SCB_IRQ.c ****     /* Set the priority. */
  91:.\Generated_Source\PSoC4/UART_SCB_IRQ.c ****     UART_SCB_IRQ_SetPriority((uint8)UART_SCB_IRQ_INTC_PRIOR_NUMBER);
  86              		.loc 1 91 0
  87 0014 0320     		mov	r0, #3
  88 0016 FFF7FEFF 		bl	UART_SCB_IRQ_SetPriority
  92:.\Generated_Source\PSoC4/UART_SCB_IRQ.c **** 
  93:.\Generated_Source\PSoC4/UART_SCB_IRQ.c ****     /* Enable it. */
  94:.\Generated_Source\PSoC4/UART_SCB_IRQ.c ****     UART_SCB_IRQ_Enable();
  89              		.loc 1 94 0
  90 001a FFF7FEFF 		bl	UART_SCB_IRQ_Enable
  95:.\Generated_Source\PSoC4/UART_SCB_IRQ.c **** }
  91              		.loc 1 95 0
  92 001e BD46     		mov	sp, r7
  93 0020 02B0     		add	sp, sp, #8
  94              		@ sp needed for prologue
  95 0022 80BD     		pop	{r7, pc}
  96              		.cfi_endproc
  97              	.LFE1:
  98              		.size	UART_SCB_IRQ_StartEx, .-UART_SCB_IRQ_StartEx
  99              		.section	.text.UART_SCB_IRQ_Stop,"ax",%progbits
 100              		.align	2
 101              		.global	UART_SCB_IRQ_Stop
 102              		.code	16
 103              		.thumb_func
 104              		.type	UART_SCB_IRQ_Stop, %function
 105              	UART_SCB_IRQ_Stop:
 106              	.LFB2:
  96:.\Generated_Source\PSoC4/UART_SCB_IRQ.c **** 
  97:.\Generated_Source\PSoC4/UART_SCB_IRQ.c **** 
  98:.\Generated_Source\PSoC4/UART_SCB_IRQ.c **** /*******************************************************************************
  99:.\Generated_Source\PSoC4/UART_SCB_IRQ.c **** * Function Name: UART_SCB_IRQ_Stop
 100:.\Generated_Source\PSoC4/UART_SCB_IRQ.c **** ********************************************************************************
 101:.\Generated_Source\PSoC4/UART_SCB_IRQ.c **** *
 102:.\Generated_Source\PSoC4/UART_SCB_IRQ.c **** * Summary:
 103:.\Generated_Source\PSoC4/UART_SCB_IRQ.c **** *   Disables and removes the interrupt.
 104:.\Generated_Source\PSoC4/UART_SCB_IRQ.c **** *
 105:.\Generated_Source\PSoC4/UART_SCB_IRQ.c **** * Parameters:  
 106:.\Generated_Source\PSoC4/UART_SCB_IRQ.c **** *
 107:.\Generated_Source\PSoC4/UART_SCB_IRQ.c **** * Return:
 108:.\Generated_Source\PSoC4/UART_SCB_IRQ.c **** *   None
 109:.\Generated_Source\PSoC4/UART_SCB_IRQ.c **** *
 110:.\Generated_Source\PSoC4/UART_SCB_IRQ.c **** *******************************************************************************/
 111:.\Generated_Source\PSoC4/UART_SCB_IRQ.c **** void UART_SCB_IRQ_Stop(void)
 112:.\Generated_Source\PSoC4/UART_SCB_IRQ.c **** {
 107              		.loc 1 112 0
 108              		.cfi_startproc
 109 0000 80B5     		push	{r7, lr}
 110              	.LCFI5:
 111              		.cfi_def_cfa_offset 8
 112              		.cfi_offset 7, -8
 113              		.cfi_offset 14, -4
 114 0002 00AF     		add	r7, sp, #0
 115              	.LCFI6:
 116              		.cfi_def_cfa_register 7
ARM GAS  C:\Users\Sam\AppData\Local\Temp\ccraiRdy.s 			page 5


 113:.\Generated_Source\PSoC4/UART_SCB_IRQ.c ****     /* Disable this interrupt. */
 114:.\Generated_Source\PSoC4/UART_SCB_IRQ.c ****     UART_SCB_IRQ_Disable();
 117              		.loc 1 114 0
 118 0004 FFF7FEFF 		bl	UART_SCB_IRQ_Disable
 115:.\Generated_Source\PSoC4/UART_SCB_IRQ.c **** 
 116:.\Generated_Source\PSoC4/UART_SCB_IRQ.c ****     /* Set the ISR to point to the passive one. */
 117:.\Generated_Source\PSoC4/UART_SCB_IRQ.c ****     UART_SCB_IRQ_SetVector(&IntDefaultHandler);
 119              		.loc 1 117 0
 120 0008 024B     		ldr	r3, .L6
 121 000a 181C     		mov	r0, r3
 122 000c FFF7FEFF 		bl	UART_SCB_IRQ_SetVector
 118:.\Generated_Source\PSoC4/UART_SCB_IRQ.c **** }
 123              		.loc 1 118 0
 124 0010 BD46     		mov	sp, r7
 125              		@ sp needed for prologue
 126 0012 80BD     		pop	{r7, pc}
 127              	.L7:
 128              		.align	2
 129              	.L6:
 130 0014 00000000 		.word	IntDefaultHandler
 131              		.cfi_endproc
 132              	.LFE2:
 133              		.size	UART_SCB_IRQ_Stop, .-UART_SCB_IRQ_Stop
 134              		.section	.text.UART_SCB_IRQ_Interrupt,"ax",%progbits
 135              		.align	2
 136              		.global	UART_SCB_IRQ_Interrupt
 137              		.code	16
 138              		.thumb_func
 139              		.type	UART_SCB_IRQ_Interrupt, %function
 140              	UART_SCB_IRQ_Interrupt:
 141              	.LFB3:
 119:.\Generated_Source\PSoC4/UART_SCB_IRQ.c **** 
 120:.\Generated_Source\PSoC4/UART_SCB_IRQ.c **** 
 121:.\Generated_Source\PSoC4/UART_SCB_IRQ.c **** /*******************************************************************************
 122:.\Generated_Source\PSoC4/UART_SCB_IRQ.c **** * Function Name: UART_SCB_IRQ_Interrupt
 123:.\Generated_Source\PSoC4/UART_SCB_IRQ.c **** ********************************************************************************
 124:.\Generated_Source\PSoC4/UART_SCB_IRQ.c **** *
 125:.\Generated_Source\PSoC4/UART_SCB_IRQ.c **** * Summary:
 126:.\Generated_Source\PSoC4/UART_SCB_IRQ.c **** *   The default Interrupt Service Routine for UART_SCB_IRQ.
 127:.\Generated_Source\PSoC4/UART_SCB_IRQ.c **** *
 128:.\Generated_Source\PSoC4/UART_SCB_IRQ.c **** *   Add custom code between the coments to keep the next version of this file
 129:.\Generated_Source\PSoC4/UART_SCB_IRQ.c **** *   from over writting your code.
 130:.\Generated_Source\PSoC4/UART_SCB_IRQ.c **** *
 131:.\Generated_Source\PSoC4/UART_SCB_IRQ.c **** * Parameters:  
 132:.\Generated_Source\PSoC4/UART_SCB_IRQ.c **** *   None
 133:.\Generated_Source\PSoC4/UART_SCB_IRQ.c **** *
 134:.\Generated_Source\PSoC4/UART_SCB_IRQ.c **** * Return:
 135:.\Generated_Source\PSoC4/UART_SCB_IRQ.c **** *   None
 136:.\Generated_Source\PSoC4/UART_SCB_IRQ.c **** *
 137:.\Generated_Source\PSoC4/UART_SCB_IRQ.c **** *******************************************************************************/
 138:.\Generated_Source\PSoC4/UART_SCB_IRQ.c **** CY_ISR(UART_SCB_IRQ_Interrupt)
 139:.\Generated_Source\PSoC4/UART_SCB_IRQ.c **** {
 142              		.loc 1 139 0
 143              		.cfi_startproc
 144 0000 80B5     		push	{r7, lr}
 145              	.LCFI7:
 146              		.cfi_def_cfa_offset 8
ARM GAS  C:\Users\Sam\AppData\Local\Temp\ccraiRdy.s 			page 6


 147              		.cfi_offset 7, -8
 148              		.cfi_offset 14, -4
 149 0002 00AF     		add	r7, sp, #0
 150              	.LCFI8:
 151              		.cfi_def_cfa_register 7
 140:.\Generated_Source\PSoC4/UART_SCB_IRQ.c ****     /*  Place your Interrupt code here. */
 141:.\Generated_Source\PSoC4/UART_SCB_IRQ.c ****     /* `#START UART_SCB_IRQ_Interrupt` */
 142:.\Generated_Source\PSoC4/UART_SCB_IRQ.c **** 
 143:.\Generated_Source\PSoC4/UART_SCB_IRQ.c ****     /* `#END` */
 144:.\Generated_Source\PSoC4/UART_SCB_IRQ.c **** }
 152              		.loc 1 144 0
 153 0004 BD46     		mov	sp, r7
 154              		@ sp needed for prologue
 155 0006 80BD     		pop	{r7, pc}
 156              		.cfi_endproc
 157              	.LFE3:
 158              		.size	UART_SCB_IRQ_Interrupt, .-UART_SCB_IRQ_Interrupt
 159              		.section	.text.UART_SCB_IRQ_SetVector,"ax",%progbits
 160              		.align	2
 161              		.global	UART_SCB_IRQ_SetVector
 162              		.code	16
 163              		.thumb_func
 164              		.type	UART_SCB_IRQ_SetVector, %function
 165              	UART_SCB_IRQ_SetVector:
 166              	.LFB4:
 145:.\Generated_Source\PSoC4/UART_SCB_IRQ.c **** 
 146:.\Generated_Source\PSoC4/UART_SCB_IRQ.c **** 
 147:.\Generated_Source\PSoC4/UART_SCB_IRQ.c **** /*******************************************************************************
 148:.\Generated_Source\PSoC4/UART_SCB_IRQ.c **** * Function Name: UART_SCB_IRQ_SetVector
 149:.\Generated_Source\PSoC4/UART_SCB_IRQ.c **** ********************************************************************************
 150:.\Generated_Source\PSoC4/UART_SCB_IRQ.c **** *
 151:.\Generated_Source\PSoC4/UART_SCB_IRQ.c **** * Summary:
 152:.\Generated_Source\PSoC4/UART_SCB_IRQ.c **** *   Change the ISR vector for the Interrupt. Note calling UART_SCB_IRQ_Start
 153:.\Generated_Source\PSoC4/UART_SCB_IRQ.c **** *   will override any effect this method would have had. To set the vector 
 154:.\Generated_Source\PSoC4/UART_SCB_IRQ.c **** *   before the component has been started use UART_SCB_IRQ_StartEx instead.
 155:.\Generated_Source\PSoC4/UART_SCB_IRQ.c **** *
 156:.\Generated_Source\PSoC4/UART_SCB_IRQ.c **** * Parameters:
 157:.\Generated_Source\PSoC4/UART_SCB_IRQ.c **** *   address: Address of the ISR to set in the interrupt vector table.
 158:.\Generated_Source\PSoC4/UART_SCB_IRQ.c **** *
 159:.\Generated_Source\PSoC4/UART_SCB_IRQ.c **** * Return:
 160:.\Generated_Source\PSoC4/UART_SCB_IRQ.c **** *   None
 161:.\Generated_Source\PSoC4/UART_SCB_IRQ.c **** *
 162:.\Generated_Source\PSoC4/UART_SCB_IRQ.c **** *******************************************************************************/
 163:.\Generated_Source\PSoC4/UART_SCB_IRQ.c **** void UART_SCB_IRQ_SetVector(cyisraddress address)
 164:.\Generated_Source\PSoC4/UART_SCB_IRQ.c **** {
 167              		.loc 1 164 0
 168              		.cfi_startproc
 169 0000 80B5     		push	{r7, lr}
 170              	.LCFI9:
 171              		.cfi_def_cfa_offset 8
 172              		.cfi_offset 7, -8
 173              		.cfi_offset 14, -4
 174 0002 82B0     		sub	sp, sp, #8
 175              	.LCFI10:
 176              		.cfi_def_cfa_offset 16
 177 0004 00AF     		add	r7, sp, #0
 178              	.LCFI11:
ARM GAS  C:\Users\Sam\AppData\Local\Temp\ccraiRdy.s 			page 7


 179              		.cfi_def_cfa_register 7
 180 0006 7860     		str	r0, [r7, #4]
 165:.\Generated_Source\PSoC4/UART_SCB_IRQ.c ****     CyRamVectors[CYINT_IRQ_BASE + UART_SCB_IRQ__INTC_NUMBER] = address;
 181              		.loc 1 165 0
 182 0008 024B     		ldr	r3, .L10
 183 000a 7A68     		ldr	r2, [r7, #4]
 184 000c DA66     		str	r2, [r3, #108]
 166:.\Generated_Source\PSoC4/UART_SCB_IRQ.c **** }
 185              		.loc 1 166 0
 186 000e BD46     		mov	sp, r7
 187 0010 02B0     		add	sp, sp, #8
 188              		@ sp needed for prologue
 189 0012 80BD     		pop	{r7, pc}
 190              	.L11:
 191              		.align	2
 192              	.L10:
 193 0014 00000000 		.word	CyRamVectors
 194              		.cfi_endproc
 195              	.LFE4:
 196              		.size	UART_SCB_IRQ_SetVector, .-UART_SCB_IRQ_SetVector
 197              		.section	.text.UART_SCB_IRQ_GetVector,"ax",%progbits
 198              		.align	2
 199              		.global	UART_SCB_IRQ_GetVector
 200              		.code	16
 201              		.thumb_func
 202              		.type	UART_SCB_IRQ_GetVector, %function
 203              	UART_SCB_IRQ_GetVector:
 204              	.LFB5:
 167:.\Generated_Source\PSoC4/UART_SCB_IRQ.c **** 
 168:.\Generated_Source\PSoC4/UART_SCB_IRQ.c **** 
 169:.\Generated_Source\PSoC4/UART_SCB_IRQ.c **** /*******************************************************************************
 170:.\Generated_Source\PSoC4/UART_SCB_IRQ.c **** * Function Name: UART_SCB_IRQ_GetVector
 171:.\Generated_Source\PSoC4/UART_SCB_IRQ.c **** ********************************************************************************
 172:.\Generated_Source\PSoC4/UART_SCB_IRQ.c **** *
 173:.\Generated_Source\PSoC4/UART_SCB_IRQ.c **** * Summary:
 174:.\Generated_Source\PSoC4/UART_SCB_IRQ.c **** *   Gets the "address" of the current ISR vector for the Interrupt.
 175:.\Generated_Source\PSoC4/UART_SCB_IRQ.c **** *
 176:.\Generated_Source\PSoC4/UART_SCB_IRQ.c **** * Parameters:
 177:.\Generated_Source\PSoC4/UART_SCB_IRQ.c **** *   None
 178:.\Generated_Source\PSoC4/UART_SCB_IRQ.c **** *
 179:.\Generated_Source\PSoC4/UART_SCB_IRQ.c **** * Return:
 180:.\Generated_Source\PSoC4/UART_SCB_IRQ.c **** *   Address of the ISR in the interrupt vector table.
 181:.\Generated_Source\PSoC4/UART_SCB_IRQ.c **** *
 182:.\Generated_Source\PSoC4/UART_SCB_IRQ.c **** *******************************************************************************/
 183:.\Generated_Source\PSoC4/UART_SCB_IRQ.c **** cyisraddress UART_SCB_IRQ_GetVector(void)
 184:.\Generated_Source\PSoC4/UART_SCB_IRQ.c **** {
 205              		.loc 1 184 0
 206              		.cfi_startproc
 207 0000 80B5     		push	{r7, lr}
 208              	.LCFI12:
 209              		.cfi_def_cfa_offset 8
 210              		.cfi_offset 7, -8
 211              		.cfi_offset 14, -4
 212 0002 00AF     		add	r7, sp, #0
 213              	.LCFI13:
 214              		.cfi_def_cfa_register 7
 185:.\Generated_Source\PSoC4/UART_SCB_IRQ.c ****     return CyRamVectors[CYINT_IRQ_BASE + UART_SCB_IRQ__INTC_NUMBER];
ARM GAS  C:\Users\Sam\AppData\Local\Temp\ccraiRdy.s 			page 8


 215              		.loc 1 185 0
 216 0004 024B     		ldr	r3, .L14
 217 0006 DB6E     		ldr	r3, [r3, #108]
 186:.\Generated_Source\PSoC4/UART_SCB_IRQ.c **** }
 218              		.loc 1 186 0
 219 0008 181C     		mov	r0, r3
 220 000a BD46     		mov	sp, r7
 221              		@ sp needed for prologue
 222 000c 80BD     		pop	{r7, pc}
 223              	.L15:
 224 000e C046     		.align	2
 225              	.L14:
 226 0010 00000000 		.word	CyRamVectors
 227              		.cfi_endproc
 228              	.LFE5:
 229              		.size	UART_SCB_IRQ_GetVector, .-UART_SCB_IRQ_GetVector
 230              		.section	.text.UART_SCB_IRQ_SetPriority,"ax",%progbits
 231              		.align	2
 232              		.global	UART_SCB_IRQ_SetPriority
 233              		.code	16
 234              		.thumb_func
 235              		.type	UART_SCB_IRQ_SetPriority, %function
 236              	UART_SCB_IRQ_SetPriority:
 237              	.LFB6:
 187:.\Generated_Source\PSoC4/UART_SCB_IRQ.c **** 
 188:.\Generated_Source\PSoC4/UART_SCB_IRQ.c **** 
 189:.\Generated_Source\PSoC4/UART_SCB_IRQ.c **** /*******************************************************************************
 190:.\Generated_Source\PSoC4/UART_SCB_IRQ.c **** * Function Name: UART_SCB_IRQ_SetPriority
 191:.\Generated_Source\PSoC4/UART_SCB_IRQ.c **** ********************************************************************************
 192:.\Generated_Source\PSoC4/UART_SCB_IRQ.c **** *
 193:.\Generated_Source\PSoC4/UART_SCB_IRQ.c **** * Summary:
 194:.\Generated_Source\PSoC4/UART_SCB_IRQ.c **** *   Sets the Priority of the Interrupt. Note calling UART_SCB_IRQ_Start
 195:.\Generated_Source\PSoC4/UART_SCB_IRQ.c **** *   or UART_SCB_IRQ_StartEx will override any effect this method would 
 196:.\Generated_Source\PSoC4/UART_SCB_IRQ.c **** *   have had. This method should only be called after UART_SCB_IRQ_Start or 
 197:.\Generated_Source\PSoC4/UART_SCB_IRQ.c **** *   UART_SCB_IRQ_StartEx has been called. To set the initial
 198:.\Generated_Source\PSoC4/UART_SCB_IRQ.c **** *   priority for the component use the cydwr file in the tool.
 199:.\Generated_Source\PSoC4/UART_SCB_IRQ.c **** *
 200:.\Generated_Source\PSoC4/UART_SCB_IRQ.c **** * Parameters:
 201:.\Generated_Source\PSoC4/UART_SCB_IRQ.c **** *   priority: Priority of the interrupt. 0 - 3, 0 being the highest.
 202:.\Generated_Source\PSoC4/UART_SCB_IRQ.c **** *
 203:.\Generated_Source\PSoC4/UART_SCB_IRQ.c **** * Return:
 204:.\Generated_Source\PSoC4/UART_SCB_IRQ.c **** *   None
 205:.\Generated_Source\PSoC4/UART_SCB_IRQ.c **** *
 206:.\Generated_Source\PSoC4/UART_SCB_IRQ.c **** *******************************************************************************/
 207:.\Generated_Source\PSoC4/UART_SCB_IRQ.c **** void UART_SCB_IRQ_SetPriority(uint8 priority)
 208:.\Generated_Source\PSoC4/UART_SCB_IRQ.c **** {
 238              		.loc 1 208 0
 239              		.cfi_startproc
 240 0000 90B5     		push	{r4, r7, lr}
 241              	.LCFI14:
 242              		.cfi_def_cfa_offset 12
 243              		.cfi_offset 4, -12
 244              		.cfi_offset 7, -8
 245              		.cfi_offset 14, -4
 246 0002 85B0     		sub	sp, sp, #20
 247              	.LCFI15:
 248              		.cfi_def_cfa_offset 32
ARM GAS  C:\Users\Sam\AppData\Local\Temp\ccraiRdy.s 			page 9


 249 0004 00AF     		add	r7, sp, #0
 250              	.LCFI16:
 251              		.cfi_def_cfa_register 7
 252 0006 021C     		mov	r2, r0
 253 0008 FB1D     		add	r3, r7, #7
 254 000a 1A70     		strb	r2, [r3]
 209:.\Generated_Source\PSoC4/UART_SCB_IRQ.c **** 	uint8 interruptState;
 210:.\Generated_Source\PSoC4/UART_SCB_IRQ.c ****     uint32 priorityOffset = ((UART_SCB_IRQ__INTC_NUMBER % 4u) * 8u) + 6u;
 255              		.loc 1 210 0
 256 000c 1E23     		mov	r3, #30
 257 000e FB60     		str	r3, [r7, #12]
 211:.\Generated_Source\PSoC4/UART_SCB_IRQ.c ****     
 212:.\Generated_Source\PSoC4/UART_SCB_IRQ.c **** 	interruptState = CyEnterCriticalSection();
 258              		.loc 1 212 0
 259 0010 3C1C     		mov	r4, r7
 260 0012 0B34     		add	r4, r4, #11
 261 0014 FFF7FEFF 		bl	CyEnterCriticalSection
 262 0018 031C     		mov	r3, r0
 263 001a 2370     		strb	r3, [r4]
 213:.\Generated_Source\PSoC4/UART_SCB_IRQ.c ****     *UART_SCB_IRQ_INTC_PRIOR = (*UART_SCB_IRQ_INTC_PRIOR & (uint32)(~UART_SCB_IRQ__INTC_PRIOR_MASK)
 264              		.loc 1 213 0
 265 001c 0A4B     		ldr	r3, .L17
 266 001e 0A4A     		ldr	r2, .L17
 267 0020 1268     		ldr	r2, [r2]
 268 0022 9200     		lsl	r2, r2, #2
 269 0024 9108     		lsr	r1, r2, #2
 214:.\Generated_Source\PSoC4/UART_SCB_IRQ.c ****                                     ((uint32)priority << priorityOffset);
 270              		.loc 1 214 0
 271 0026 FA1D     		add	r2, r7, #7
 272 0028 1078     		ldrb	r0, [r2]
 273 002a FA68     		ldr	r2, [r7, #12]
 274 002c 041C     		mov	r4, r0
 275 002e 9440     		lsl	r4, r4, r2
 276 0030 221C     		mov	r2, r4
 213:.\Generated_Source\PSoC4/UART_SCB_IRQ.c ****     *UART_SCB_IRQ_INTC_PRIOR = (*UART_SCB_IRQ_INTC_PRIOR & (uint32)(~UART_SCB_IRQ__INTC_PRIOR_MASK)
 277              		.loc 1 213 0
 278 0032 0A43     		orr	r2, r1
 279 0034 1A60     		str	r2, [r3]
 215:.\Generated_Source\PSoC4/UART_SCB_IRQ.c **** 	CyExitCriticalSection(interruptState);
 280              		.loc 1 215 0
 281 0036 3B1C     		mov	r3, r7
 282 0038 0B33     		add	r3, r3, #11
 283 003a 1B78     		ldrb	r3, [r3]
 284 003c 181C     		mov	r0, r3
 285 003e FFF7FEFF 		bl	CyExitCriticalSection
 216:.\Generated_Source\PSoC4/UART_SCB_IRQ.c **** }
 286              		.loc 1 216 0
 287 0042 BD46     		mov	sp, r7
 288 0044 05B0     		add	sp, sp, #20
 289              		@ sp needed for prologue
 290 0046 90BD     		pop	{r4, r7, pc}
 291              	.L18:
 292              		.align	2
 293              	.L17:
 294 0048 08E400E0 		.word	-536812536
 295              		.cfi_endproc
 296              	.LFE6:
ARM GAS  C:\Users\Sam\AppData\Local\Temp\ccraiRdy.s 			page 10


 297              		.size	UART_SCB_IRQ_SetPriority, .-UART_SCB_IRQ_SetPriority
 298              		.section	.text.UART_SCB_IRQ_GetPriority,"ax",%progbits
 299              		.align	2
 300              		.global	UART_SCB_IRQ_GetPriority
 301              		.code	16
 302              		.thumb_func
 303              		.type	UART_SCB_IRQ_GetPriority, %function
 304              	UART_SCB_IRQ_GetPriority:
 305              	.LFB7:
 217:.\Generated_Source\PSoC4/UART_SCB_IRQ.c **** 
 218:.\Generated_Source\PSoC4/UART_SCB_IRQ.c **** 
 219:.\Generated_Source\PSoC4/UART_SCB_IRQ.c **** /*******************************************************************************
 220:.\Generated_Source\PSoC4/UART_SCB_IRQ.c **** * Function Name: UART_SCB_IRQ_GetPriority
 221:.\Generated_Source\PSoC4/UART_SCB_IRQ.c **** ********************************************************************************
 222:.\Generated_Source\PSoC4/UART_SCB_IRQ.c **** *
 223:.\Generated_Source\PSoC4/UART_SCB_IRQ.c **** * Summary:
 224:.\Generated_Source\PSoC4/UART_SCB_IRQ.c **** *   Gets the Priority of the Interrupt.
 225:.\Generated_Source\PSoC4/UART_SCB_IRQ.c **** *
 226:.\Generated_Source\PSoC4/UART_SCB_IRQ.c **** * Parameters:
 227:.\Generated_Source\PSoC4/UART_SCB_IRQ.c **** *   None
 228:.\Generated_Source\PSoC4/UART_SCB_IRQ.c **** *
 229:.\Generated_Source\PSoC4/UART_SCB_IRQ.c **** * Return:
 230:.\Generated_Source\PSoC4/UART_SCB_IRQ.c **** *   Priority of the interrupt. 0 - 3, 0 being the highest.
 231:.\Generated_Source\PSoC4/UART_SCB_IRQ.c **** *
 232:.\Generated_Source\PSoC4/UART_SCB_IRQ.c **** *******************************************************************************/
 233:.\Generated_Source\PSoC4/UART_SCB_IRQ.c **** uint8 UART_SCB_IRQ_GetPriority(void)
 234:.\Generated_Source\PSoC4/UART_SCB_IRQ.c **** {
 306              		.loc 1 234 0
 307              		.cfi_startproc
 308 0000 80B5     		push	{r7, lr}
 309              	.LCFI17:
 310              		.cfi_def_cfa_offset 8
 311              		.cfi_offset 7, -8
 312              		.cfi_offset 14, -4
 313 0002 82B0     		sub	sp, sp, #8
 314              	.LCFI18:
 315              		.cfi_def_cfa_offset 16
 316 0004 00AF     		add	r7, sp, #0
 317              	.LCFI19:
 318              		.cfi_def_cfa_register 7
 235:.\Generated_Source\PSoC4/UART_SCB_IRQ.c ****     uint32 priority;
 236:.\Generated_Source\PSoC4/UART_SCB_IRQ.c **** 	uint32 priorityOffset = ((UART_SCB_IRQ__INTC_NUMBER % 4u) * 8u) + 6u;
 319              		.loc 1 236 0
 320 0006 1E23     		mov	r3, #30
 321 0008 7B60     		str	r3, [r7, #4]
 237:.\Generated_Source\PSoC4/UART_SCB_IRQ.c **** 
 238:.\Generated_Source\PSoC4/UART_SCB_IRQ.c ****     priority = (*UART_SCB_IRQ_INTC_PRIOR & UART_SCB_IRQ__INTC_PRIOR_MASK) >> priorityOffset;
 322              		.loc 1 238 0
 323 000a 074B     		ldr	r3, .L21
 324 000c 1B68     		ldr	r3, [r3]
 325 000e 9B0F     		lsr	r3, r3, #30
 326 0010 9A07     		lsl	r2, r3, #30
 327 0012 7B68     		ldr	r3, [r7, #4]
 328 0014 111C     		mov	r1, r2
 329 0016 D940     		lsr	r1, r1, r3
 330 0018 0B1C     		mov	r3, r1
 331 001a 3B60     		str	r3, [r7]
ARM GAS  C:\Users\Sam\AppData\Local\Temp\ccraiRdy.s 			page 11


 239:.\Generated_Source\PSoC4/UART_SCB_IRQ.c **** 
 240:.\Generated_Source\PSoC4/UART_SCB_IRQ.c ****     return (uint8)priority;
 332              		.loc 1 240 0
 333 001c 3B68     		ldr	r3, [r7]
 334 001e DBB2     		uxtb	r3, r3
 241:.\Generated_Source\PSoC4/UART_SCB_IRQ.c **** }
 335              		.loc 1 241 0
 336 0020 181C     		mov	r0, r3
 337 0022 BD46     		mov	sp, r7
 338 0024 02B0     		add	sp, sp, #8
 339              		@ sp needed for prologue
 340 0026 80BD     		pop	{r7, pc}
 341              	.L22:
 342              		.align	2
 343              	.L21:
 344 0028 08E400E0 		.word	-536812536
 345              		.cfi_endproc
 346              	.LFE7:
 347              		.size	UART_SCB_IRQ_GetPriority, .-UART_SCB_IRQ_GetPriority
 348              		.section	.text.UART_SCB_IRQ_Enable,"ax",%progbits
 349              		.align	2
 350              		.global	UART_SCB_IRQ_Enable
 351              		.code	16
 352              		.thumb_func
 353              		.type	UART_SCB_IRQ_Enable, %function
 354              	UART_SCB_IRQ_Enable:
 355              	.LFB8:
 242:.\Generated_Source\PSoC4/UART_SCB_IRQ.c **** 
 243:.\Generated_Source\PSoC4/UART_SCB_IRQ.c **** 
 244:.\Generated_Source\PSoC4/UART_SCB_IRQ.c **** /*******************************************************************************
 245:.\Generated_Source\PSoC4/UART_SCB_IRQ.c **** * Function Name: UART_SCB_IRQ_Enable
 246:.\Generated_Source\PSoC4/UART_SCB_IRQ.c **** ********************************************************************************
 247:.\Generated_Source\PSoC4/UART_SCB_IRQ.c **** *
 248:.\Generated_Source\PSoC4/UART_SCB_IRQ.c **** * Summary:
 249:.\Generated_Source\PSoC4/UART_SCB_IRQ.c **** *   Enables the interrupt.
 250:.\Generated_Source\PSoC4/UART_SCB_IRQ.c **** *
 251:.\Generated_Source\PSoC4/UART_SCB_IRQ.c **** * Parameters:
 252:.\Generated_Source\PSoC4/UART_SCB_IRQ.c **** *   None
 253:.\Generated_Source\PSoC4/UART_SCB_IRQ.c **** *
 254:.\Generated_Source\PSoC4/UART_SCB_IRQ.c **** * Return:
 255:.\Generated_Source\PSoC4/UART_SCB_IRQ.c **** *   None
 256:.\Generated_Source\PSoC4/UART_SCB_IRQ.c **** *
 257:.\Generated_Source\PSoC4/UART_SCB_IRQ.c **** *******************************************************************************/
 258:.\Generated_Source\PSoC4/UART_SCB_IRQ.c **** void UART_SCB_IRQ_Enable(void)
 259:.\Generated_Source\PSoC4/UART_SCB_IRQ.c **** {
 356              		.loc 1 259 0
 357              		.cfi_startproc
 358 0000 80B5     		push	{r7, lr}
 359              	.LCFI20:
 360              		.cfi_def_cfa_offset 8
 361              		.cfi_offset 7, -8
 362              		.cfi_offset 14, -4
 363 0002 00AF     		add	r7, sp, #0
 364              	.LCFI21:
 365              		.cfi_def_cfa_register 7
 260:.\Generated_Source\PSoC4/UART_SCB_IRQ.c ****     /* Enable the general interrupt. */
 261:.\Generated_Source\PSoC4/UART_SCB_IRQ.c ****     *UART_SCB_IRQ_INTC_SET_EN = UART_SCB_IRQ__INTC_MASK;
ARM GAS  C:\Users\Sam\AppData\Local\Temp\ccraiRdy.s 			page 12


 366              		.loc 1 261 0
 367 0004 024B     		ldr	r3, .L24
 368 0006 8022     		mov	r2, #128
 369 0008 1201     		lsl	r2, r2, #4
 370 000a 1A60     		str	r2, [r3]
 262:.\Generated_Source\PSoC4/UART_SCB_IRQ.c **** }
 371              		.loc 1 262 0
 372 000c BD46     		mov	sp, r7
 373              		@ sp needed for prologue
 374 000e 80BD     		pop	{r7, pc}
 375              	.L25:
 376              		.align	2
 377              	.L24:
 378 0010 00E100E0 		.word	-536813312
 379              		.cfi_endproc
 380              	.LFE8:
 381              		.size	UART_SCB_IRQ_Enable, .-UART_SCB_IRQ_Enable
 382              		.section	.text.UART_SCB_IRQ_GetState,"ax",%progbits
 383              		.align	2
 384              		.global	UART_SCB_IRQ_GetState
 385              		.code	16
 386              		.thumb_func
 387              		.type	UART_SCB_IRQ_GetState, %function
 388              	UART_SCB_IRQ_GetState:
 389              	.LFB9:
 263:.\Generated_Source\PSoC4/UART_SCB_IRQ.c **** 
 264:.\Generated_Source\PSoC4/UART_SCB_IRQ.c **** 
 265:.\Generated_Source\PSoC4/UART_SCB_IRQ.c **** /*******************************************************************************
 266:.\Generated_Source\PSoC4/UART_SCB_IRQ.c **** * Function Name: UART_SCB_IRQ_GetState
 267:.\Generated_Source\PSoC4/UART_SCB_IRQ.c **** ********************************************************************************
 268:.\Generated_Source\PSoC4/UART_SCB_IRQ.c **** *
 269:.\Generated_Source\PSoC4/UART_SCB_IRQ.c **** * Summary:
 270:.\Generated_Source\PSoC4/UART_SCB_IRQ.c **** *   Gets the state (enabled, disabled) of the Interrupt.
 271:.\Generated_Source\PSoC4/UART_SCB_IRQ.c **** *
 272:.\Generated_Source\PSoC4/UART_SCB_IRQ.c **** * Parameters:
 273:.\Generated_Source\PSoC4/UART_SCB_IRQ.c **** *   None
 274:.\Generated_Source\PSoC4/UART_SCB_IRQ.c **** *
 275:.\Generated_Source\PSoC4/UART_SCB_IRQ.c **** * Return:
 276:.\Generated_Source\PSoC4/UART_SCB_IRQ.c **** *   1 if enabled, 0 if disabled.
 277:.\Generated_Source\PSoC4/UART_SCB_IRQ.c **** *
 278:.\Generated_Source\PSoC4/UART_SCB_IRQ.c **** *******************************************************************************/
 279:.\Generated_Source\PSoC4/UART_SCB_IRQ.c **** uint8 UART_SCB_IRQ_GetState(void)
 280:.\Generated_Source\PSoC4/UART_SCB_IRQ.c **** {
 390              		.loc 1 280 0
 391              		.cfi_startproc
 392 0000 80B5     		push	{r7, lr}
 393              	.LCFI22:
 394              		.cfi_def_cfa_offset 8
 395              		.cfi_offset 7, -8
 396              		.cfi_offset 14, -4
 397 0002 00AF     		add	r7, sp, #0
 398              	.LCFI23:
 399              		.cfi_def_cfa_register 7
 281:.\Generated_Source\PSoC4/UART_SCB_IRQ.c ****     /* Get the state of the general interrupt. */
 282:.\Generated_Source\PSoC4/UART_SCB_IRQ.c ****     return ((*UART_SCB_IRQ_INTC_SET_EN & (uint32)UART_SCB_IRQ__INTC_MASK) != 0u) ? 1u:0u;
 400              		.loc 1 282 0
 401 0004 054B     		ldr	r3, .L30
ARM GAS  C:\Users\Sam\AppData\Local\Temp\ccraiRdy.s 			page 13


 402 0006 1A68     		ldr	r2, [r3]
 403 0008 8023     		mov	r3, #128
 404 000a 1B01     		lsl	r3, r3, #4
 405 000c 1340     		and	r3, r2
 406 000e 01D0     		beq	.L27
 407              		.loc 1 282 0 is_stmt 0 discriminator 1
 408 0010 0123     		mov	r3, #1
 409 0012 00E0     		b	.L28
 410              	.L27:
 411              		.loc 1 282 0 discriminator 2
 412 0014 0023     		mov	r3, #0
 413              	.L28:
 283:.\Generated_Source\PSoC4/UART_SCB_IRQ.c **** }
 414              		.loc 1 283 0 is_stmt 1 discriminator 3
 415 0016 181C     		mov	r0, r3
 416 0018 BD46     		mov	sp, r7
 417              		@ sp needed for prologue
 418 001a 80BD     		pop	{r7, pc}
 419              	.L31:
 420              		.align	2
 421              	.L30:
 422 001c 00E100E0 		.word	-536813312
 423              		.cfi_endproc
 424              	.LFE9:
 425              		.size	UART_SCB_IRQ_GetState, .-UART_SCB_IRQ_GetState
 426              		.section	.text.UART_SCB_IRQ_Disable,"ax",%progbits
 427              		.align	2
 428              		.global	UART_SCB_IRQ_Disable
 429              		.code	16
 430              		.thumb_func
 431              		.type	UART_SCB_IRQ_Disable, %function
 432              	UART_SCB_IRQ_Disable:
 433              	.LFB10:
 284:.\Generated_Source\PSoC4/UART_SCB_IRQ.c **** 
 285:.\Generated_Source\PSoC4/UART_SCB_IRQ.c **** 
 286:.\Generated_Source\PSoC4/UART_SCB_IRQ.c **** /*******************************************************************************
 287:.\Generated_Source\PSoC4/UART_SCB_IRQ.c **** * Function Name: UART_SCB_IRQ_Disable
 288:.\Generated_Source\PSoC4/UART_SCB_IRQ.c **** ********************************************************************************
 289:.\Generated_Source\PSoC4/UART_SCB_IRQ.c **** *
 290:.\Generated_Source\PSoC4/UART_SCB_IRQ.c **** * Summary:
 291:.\Generated_Source\PSoC4/UART_SCB_IRQ.c **** *   Disables the Interrupt.
 292:.\Generated_Source\PSoC4/UART_SCB_IRQ.c **** *
 293:.\Generated_Source\PSoC4/UART_SCB_IRQ.c **** * Parameters:
 294:.\Generated_Source\PSoC4/UART_SCB_IRQ.c **** *   None
 295:.\Generated_Source\PSoC4/UART_SCB_IRQ.c **** *
 296:.\Generated_Source\PSoC4/UART_SCB_IRQ.c **** * Return:
 297:.\Generated_Source\PSoC4/UART_SCB_IRQ.c **** *   None
 298:.\Generated_Source\PSoC4/UART_SCB_IRQ.c **** *
 299:.\Generated_Source\PSoC4/UART_SCB_IRQ.c **** *******************************************************************************/
 300:.\Generated_Source\PSoC4/UART_SCB_IRQ.c **** void UART_SCB_IRQ_Disable(void)
 301:.\Generated_Source\PSoC4/UART_SCB_IRQ.c **** {
 434              		.loc 1 301 0
 435              		.cfi_startproc
 436 0000 80B5     		push	{r7, lr}
 437              	.LCFI24:
 438              		.cfi_def_cfa_offset 8
 439              		.cfi_offset 7, -8
ARM GAS  C:\Users\Sam\AppData\Local\Temp\ccraiRdy.s 			page 14


 440              		.cfi_offset 14, -4
 441 0002 00AF     		add	r7, sp, #0
 442              	.LCFI25:
 443              		.cfi_def_cfa_register 7
 302:.\Generated_Source\PSoC4/UART_SCB_IRQ.c ****     /* Disable the general interrupt. */
 303:.\Generated_Source\PSoC4/UART_SCB_IRQ.c ****     *UART_SCB_IRQ_INTC_CLR_EN = UART_SCB_IRQ__INTC_MASK;
 444              		.loc 1 303 0
 445 0004 024B     		ldr	r3, .L33
 446 0006 8022     		mov	r2, #128
 447 0008 1201     		lsl	r2, r2, #4
 448 000a 1A60     		str	r2, [r3]
 304:.\Generated_Source\PSoC4/UART_SCB_IRQ.c **** }
 449              		.loc 1 304 0
 450 000c BD46     		mov	sp, r7
 451              		@ sp needed for prologue
 452 000e 80BD     		pop	{r7, pc}
 453              	.L34:
 454              		.align	2
 455              	.L33:
 456 0010 80E100E0 		.word	-536813184
 457              		.cfi_endproc
 458              	.LFE10:
 459              		.size	UART_SCB_IRQ_Disable, .-UART_SCB_IRQ_Disable
 460              		.section	.text.UART_SCB_IRQ_SetPending,"ax",%progbits
 461              		.align	2
 462              		.global	UART_SCB_IRQ_SetPending
 463              		.code	16
 464              		.thumb_func
 465              		.type	UART_SCB_IRQ_SetPending, %function
 466              	UART_SCB_IRQ_SetPending:
 467              	.LFB11:
 305:.\Generated_Source\PSoC4/UART_SCB_IRQ.c **** 
 306:.\Generated_Source\PSoC4/UART_SCB_IRQ.c **** 
 307:.\Generated_Source\PSoC4/UART_SCB_IRQ.c **** /*******************************************************************************
 308:.\Generated_Source\PSoC4/UART_SCB_IRQ.c **** * Function Name: UART_SCB_IRQ_SetPending
 309:.\Generated_Source\PSoC4/UART_SCB_IRQ.c **** ********************************************************************************
 310:.\Generated_Source\PSoC4/UART_SCB_IRQ.c **** *
 311:.\Generated_Source\PSoC4/UART_SCB_IRQ.c **** * Summary:
 312:.\Generated_Source\PSoC4/UART_SCB_IRQ.c **** *   Causes the Interrupt to enter the pending state, a software method of
 313:.\Generated_Source\PSoC4/UART_SCB_IRQ.c **** *   generating the interrupt.
 314:.\Generated_Source\PSoC4/UART_SCB_IRQ.c **** *
 315:.\Generated_Source\PSoC4/UART_SCB_IRQ.c **** * Parameters:
 316:.\Generated_Source\PSoC4/UART_SCB_IRQ.c **** *   None
 317:.\Generated_Source\PSoC4/UART_SCB_IRQ.c **** *
 318:.\Generated_Source\PSoC4/UART_SCB_IRQ.c **** * Return:
 319:.\Generated_Source\PSoC4/UART_SCB_IRQ.c **** *   None
 320:.\Generated_Source\PSoC4/UART_SCB_IRQ.c **** *
 321:.\Generated_Source\PSoC4/UART_SCB_IRQ.c **** *******************************************************************************/
 322:.\Generated_Source\PSoC4/UART_SCB_IRQ.c **** void UART_SCB_IRQ_SetPending(void)
 323:.\Generated_Source\PSoC4/UART_SCB_IRQ.c **** {
 468              		.loc 1 323 0
 469              		.cfi_startproc
 470 0000 80B5     		push	{r7, lr}
 471              	.LCFI26:
 472              		.cfi_def_cfa_offset 8
 473              		.cfi_offset 7, -8
 474              		.cfi_offset 14, -4
ARM GAS  C:\Users\Sam\AppData\Local\Temp\ccraiRdy.s 			page 15


 475 0002 00AF     		add	r7, sp, #0
 476              	.LCFI27:
 477              		.cfi_def_cfa_register 7
 324:.\Generated_Source\PSoC4/UART_SCB_IRQ.c ****     *UART_SCB_IRQ_INTC_SET_PD = UART_SCB_IRQ__INTC_MASK;
 478              		.loc 1 324 0
 479 0004 024B     		ldr	r3, .L36
 480 0006 8022     		mov	r2, #128
 481 0008 1201     		lsl	r2, r2, #4
 482 000a 1A60     		str	r2, [r3]
 325:.\Generated_Source\PSoC4/UART_SCB_IRQ.c **** }
 483              		.loc 1 325 0
 484 000c BD46     		mov	sp, r7
 485              		@ sp needed for prologue
 486 000e 80BD     		pop	{r7, pc}
 487              	.L37:
 488              		.align	2
 489              	.L36:
 490 0010 00E200E0 		.word	-536813056
 491              		.cfi_endproc
 492              	.LFE11:
 493              		.size	UART_SCB_IRQ_SetPending, .-UART_SCB_IRQ_SetPending
 494              		.section	.text.UART_SCB_IRQ_ClearPending,"ax",%progbits
 495              		.align	2
 496              		.global	UART_SCB_IRQ_ClearPending
 497              		.code	16
 498              		.thumb_func
 499              		.type	UART_SCB_IRQ_ClearPending, %function
 500              	UART_SCB_IRQ_ClearPending:
 501              	.LFB12:
 326:.\Generated_Source\PSoC4/UART_SCB_IRQ.c **** 
 327:.\Generated_Source\PSoC4/UART_SCB_IRQ.c **** 
 328:.\Generated_Source\PSoC4/UART_SCB_IRQ.c **** /*******************************************************************************
 329:.\Generated_Source\PSoC4/UART_SCB_IRQ.c **** * Function Name: UART_SCB_IRQ_ClearPending
 330:.\Generated_Source\PSoC4/UART_SCB_IRQ.c **** ********************************************************************************
 331:.\Generated_Source\PSoC4/UART_SCB_IRQ.c **** *
 332:.\Generated_Source\PSoC4/UART_SCB_IRQ.c **** * Summary:
 333:.\Generated_Source\PSoC4/UART_SCB_IRQ.c **** *   Clears a pending interrupt.
 334:.\Generated_Source\PSoC4/UART_SCB_IRQ.c **** *
 335:.\Generated_Source\PSoC4/UART_SCB_IRQ.c **** * Parameters:
 336:.\Generated_Source\PSoC4/UART_SCB_IRQ.c **** *   None
 337:.\Generated_Source\PSoC4/UART_SCB_IRQ.c **** *
 338:.\Generated_Source\PSoC4/UART_SCB_IRQ.c **** * Return:
 339:.\Generated_Source\PSoC4/UART_SCB_IRQ.c **** *   None
 340:.\Generated_Source\PSoC4/UART_SCB_IRQ.c **** *
 341:.\Generated_Source\PSoC4/UART_SCB_IRQ.c **** *******************************************************************************/
 342:.\Generated_Source\PSoC4/UART_SCB_IRQ.c **** void UART_SCB_IRQ_ClearPending(void)
 343:.\Generated_Source\PSoC4/UART_SCB_IRQ.c **** {
 502              		.loc 1 343 0
 503              		.cfi_startproc
 504 0000 80B5     		push	{r7, lr}
 505              	.LCFI28:
 506              		.cfi_def_cfa_offset 8
 507              		.cfi_offset 7, -8
 508              		.cfi_offset 14, -4
 509 0002 00AF     		add	r7, sp, #0
 510              	.LCFI29:
 511              		.cfi_def_cfa_register 7
ARM GAS  C:\Users\Sam\AppData\Local\Temp\ccraiRdy.s 			page 16


 344:.\Generated_Source\PSoC4/UART_SCB_IRQ.c ****     *UART_SCB_IRQ_INTC_CLR_PD = UART_SCB_IRQ__INTC_MASK;
 512              		.loc 1 344 0
 513 0004 024B     		ldr	r3, .L39
 514 0006 8022     		mov	r2, #128
 515 0008 1201     		lsl	r2, r2, #4
 516 000a 1A60     		str	r2, [r3]
 345:.\Generated_Source\PSoC4/UART_SCB_IRQ.c **** }
 517              		.loc 1 345 0
 518 000c BD46     		mov	sp, r7
 519              		@ sp needed for prologue
 520 000e 80BD     		pop	{r7, pc}
 521              	.L40:
 522              		.align	2
 523              	.L39:
 524 0010 80E200E0 		.word	-536812928
 525              		.cfi_endproc
 526              	.LFE12:
 527              		.size	UART_SCB_IRQ_ClearPending, .-UART_SCB_IRQ_ClearPending
 528              		.text
 529              	.Letext0:
 530              		.file 2 "./Generated_Source/PSoC4/cytypes.h"