ARM GAS  C:\Users\Sam\AppData\Local\Temp\ccGxIM3P.s 			page 1


   1              		.cpu cortex-m0
   2              		.fpu softvfp
   3              		.eabi_attribute 20, 1
   4              		.eabi_attribute 21, 1
   5              		.eabi_attribute 23, 3
   6              		.eabi_attribute 24, 1
   7              		.eabi_attribute 25, 1
   8              		.eabi_attribute 26, 1
   9              		.eabi_attribute 30, 6
  10              		.eabi_attribute 34, 0
  11              		.eabi_attribute 18, 4
  12              		.code	16
  13              		.file	"UART_RX_ISR.c"
  14              		.text
  15              	.Ltext0:
  16              		.cfi_sections	.debug_frame
  17              		.section	.text.UART_RX_ISR_Start,"ax",%progbits
  18              		.align	2
  19              		.global	UART_RX_ISR_Start
  20              		.code	16
  21              		.thumb_func
  22              		.type	UART_RX_ISR_Start, %function
  23              	UART_RX_ISR_Start:
  24              	.LFB0:
  25              		.file 1 ".\\Generated_Source\\PSoC4\\UART_RX_ISR.c"
   1:.\Generated_Source\PSoC4/UART_RX_ISR.c **** /*******************************************************************************
   2:.\Generated_Source\PSoC4/UART_RX_ISR.c **** * File Name: UART_RX_ISR.c  
   3:.\Generated_Source\PSoC4/UART_RX_ISR.c **** * Version 1.70
   4:.\Generated_Source\PSoC4/UART_RX_ISR.c **** *
   5:.\Generated_Source\PSoC4/UART_RX_ISR.c **** *  Description:
   6:.\Generated_Source\PSoC4/UART_RX_ISR.c **** *   API for controlling the state of an interrupt.
   7:.\Generated_Source\PSoC4/UART_RX_ISR.c **** *
   8:.\Generated_Source\PSoC4/UART_RX_ISR.c **** *
   9:.\Generated_Source\PSoC4/UART_RX_ISR.c **** *  Note:
  10:.\Generated_Source\PSoC4/UART_RX_ISR.c **** *
  11:.\Generated_Source\PSoC4/UART_RX_ISR.c **** ********************************************************************************
  12:.\Generated_Source\PSoC4/UART_RX_ISR.c **** * Copyright 2008-2012, Cypress Semiconductor Corporation.  All rights reserved.
  13:.\Generated_Source\PSoC4/UART_RX_ISR.c **** * You may use this file only in accordance with the license, terms, conditions, 
  14:.\Generated_Source\PSoC4/UART_RX_ISR.c **** * disclaimers, and limitations in the end user license agreement accompanying 
  15:.\Generated_Source\PSoC4/UART_RX_ISR.c **** * the software package with which this file was provided.
  16:.\Generated_Source\PSoC4/UART_RX_ISR.c **** *******************************************************************************/
  17:.\Generated_Source\PSoC4/UART_RX_ISR.c **** 
  18:.\Generated_Source\PSoC4/UART_RX_ISR.c **** 
  19:.\Generated_Source\PSoC4/UART_RX_ISR.c **** #include <cydevice_trm.h>
  20:.\Generated_Source\PSoC4/UART_RX_ISR.c **** #include <CyLib.h>
  21:.\Generated_Source\PSoC4/UART_RX_ISR.c **** #include <UART_RX_ISR.h>
  22:.\Generated_Source\PSoC4/UART_RX_ISR.c **** 
  23:.\Generated_Source\PSoC4/UART_RX_ISR.c **** #if !defined(UART_RX_ISR__REMOVED) /* Check for removal by optimization */
  24:.\Generated_Source\PSoC4/UART_RX_ISR.c **** 
  25:.\Generated_Source\PSoC4/UART_RX_ISR.c **** /*******************************************************************************
  26:.\Generated_Source\PSoC4/UART_RX_ISR.c **** *  Place your includes, defines and code here 
  27:.\Generated_Source\PSoC4/UART_RX_ISR.c **** ********************************************************************************/
  28:.\Generated_Source\PSoC4/UART_RX_ISR.c **** /* `#START UART_RX_ISR_intc` */
  29:.\Generated_Source\PSoC4/UART_RX_ISR.c ****     #include <UART.h>
  30:.\Generated_Source\PSoC4/UART_RX_ISR.c ****     extern uint8 flag;
  31:.\Generated_Source\PSoC4/UART_RX_ISR.c **** /* `#END` */
  32:.\Generated_Source\PSoC4/UART_RX_ISR.c **** 
ARM GAS  C:\Users\Sam\AppData\Local\Temp\ccGxIM3P.s 			page 2


  33:.\Generated_Source\PSoC4/UART_RX_ISR.c **** extern cyisraddress CyRamVectors[CYINT_IRQ_BASE + CY_NUM_INTERRUPTS];
  34:.\Generated_Source\PSoC4/UART_RX_ISR.c **** 
  35:.\Generated_Source\PSoC4/UART_RX_ISR.c **** /* Declared in startup, used to set unused interrupts to. */
  36:.\Generated_Source\PSoC4/UART_RX_ISR.c **** CY_ISR_PROTO(IntDefaultHandler);
  37:.\Generated_Source\PSoC4/UART_RX_ISR.c **** 
  38:.\Generated_Source\PSoC4/UART_RX_ISR.c **** 
  39:.\Generated_Source\PSoC4/UART_RX_ISR.c **** /*******************************************************************************
  40:.\Generated_Source\PSoC4/UART_RX_ISR.c **** * Function Name: UART_RX_ISR_Start
  41:.\Generated_Source\PSoC4/UART_RX_ISR.c **** ********************************************************************************
  42:.\Generated_Source\PSoC4/UART_RX_ISR.c **** *
  43:.\Generated_Source\PSoC4/UART_RX_ISR.c **** * Summary:
  44:.\Generated_Source\PSoC4/UART_RX_ISR.c **** *  Set up the interrupt and enable it.
  45:.\Generated_Source\PSoC4/UART_RX_ISR.c **** *
  46:.\Generated_Source\PSoC4/UART_RX_ISR.c **** * Parameters:  
  47:.\Generated_Source\PSoC4/UART_RX_ISR.c **** *   None
  48:.\Generated_Source\PSoC4/UART_RX_ISR.c **** *
  49:.\Generated_Source\PSoC4/UART_RX_ISR.c **** * Return:
  50:.\Generated_Source\PSoC4/UART_RX_ISR.c **** *   None
  51:.\Generated_Source\PSoC4/UART_RX_ISR.c **** *
  52:.\Generated_Source\PSoC4/UART_RX_ISR.c **** *******************************************************************************/
  53:.\Generated_Source\PSoC4/UART_RX_ISR.c **** void UART_RX_ISR_Start(void)
  54:.\Generated_Source\PSoC4/UART_RX_ISR.c **** {
  26              		.loc 1 54 0
  27              		.cfi_startproc
  28 0000 80B5     		push	{r7, lr}
  29              	.LCFI0:
  30              		.cfi_def_cfa_offset 8
  31              		.cfi_offset 7, -8
  32              		.cfi_offset 14, -4
  33 0002 00AF     		add	r7, sp, #0
  34              	.LCFI1:
  35              		.cfi_def_cfa_register 7
  55:.\Generated_Source\PSoC4/UART_RX_ISR.c ****     /* For all we know the interrupt is active. */
  56:.\Generated_Source\PSoC4/UART_RX_ISR.c ****     UART_RX_ISR_Disable();
  36              		.loc 1 56 0
  37 0004 FFF7FEFF 		bl	UART_RX_ISR_Disable
  57:.\Generated_Source\PSoC4/UART_RX_ISR.c **** 
  58:.\Generated_Source\PSoC4/UART_RX_ISR.c ****     /* Set the ISR to point to the UART_RX_ISR Interrupt. */
  59:.\Generated_Source\PSoC4/UART_RX_ISR.c ****     UART_RX_ISR_SetVector(&UART_RX_ISR_Interrupt);
  38              		.loc 1 59 0
  39 0008 054B     		ldr	r3, .L2
  40 000a 181C     		mov	r0, r3
  41 000c FFF7FEFF 		bl	UART_RX_ISR_SetVector
  60:.\Generated_Source\PSoC4/UART_RX_ISR.c **** 
  61:.\Generated_Source\PSoC4/UART_RX_ISR.c ****     /* Set the priority. */
  62:.\Generated_Source\PSoC4/UART_RX_ISR.c ****     UART_RX_ISR_SetPriority((uint8)UART_RX_ISR_INTC_PRIOR_NUMBER);
  42              		.loc 1 62 0
  43 0010 0320     		mov	r0, #3
  44 0012 FFF7FEFF 		bl	UART_RX_ISR_SetPriority
  63:.\Generated_Source\PSoC4/UART_RX_ISR.c **** 
  64:.\Generated_Source\PSoC4/UART_RX_ISR.c ****     /* Enable it. */
  65:.\Generated_Source\PSoC4/UART_RX_ISR.c ****     UART_RX_ISR_Enable();
  45              		.loc 1 65 0
  46 0016 FFF7FEFF 		bl	UART_RX_ISR_Enable
  66:.\Generated_Source\PSoC4/UART_RX_ISR.c **** }
  47              		.loc 1 66 0
  48 001a BD46     		mov	sp, r7
ARM GAS  C:\Users\Sam\AppData\Local\Temp\ccGxIM3P.s 			page 3


  49              		@ sp needed for prologue
  50 001c 80BD     		pop	{r7, pc}
  51              	.L3:
  52 001e C046     		.align	2
  53              	.L2:
  54 0020 00000000 		.word	UART_RX_ISR_Interrupt
  55              		.cfi_endproc
  56              	.LFE0:
  57              		.size	UART_RX_ISR_Start, .-UART_RX_ISR_Start
  58              		.section	.text.UART_RX_ISR_StartEx,"ax",%progbits
  59              		.align	2
  60              		.global	UART_RX_ISR_StartEx
  61              		.code	16
  62              		.thumb_func
  63              		.type	UART_RX_ISR_StartEx, %function
  64              	UART_RX_ISR_StartEx:
  65              	.LFB1:
  67:.\Generated_Source\PSoC4/UART_RX_ISR.c **** 
  68:.\Generated_Source\PSoC4/UART_RX_ISR.c **** 
  69:.\Generated_Source\PSoC4/UART_RX_ISR.c **** /*******************************************************************************
  70:.\Generated_Source\PSoC4/UART_RX_ISR.c **** * Function Name: UART_RX_ISR_StartEx
  71:.\Generated_Source\PSoC4/UART_RX_ISR.c **** ********************************************************************************
  72:.\Generated_Source\PSoC4/UART_RX_ISR.c **** *
  73:.\Generated_Source\PSoC4/UART_RX_ISR.c **** * Summary:
  74:.\Generated_Source\PSoC4/UART_RX_ISR.c **** *  Set up the interrupt and enable it.
  75:.\Generated_Source\PSoC4/UART_RX_ISR.c **** *
  76:.\Generated_Source\PSoC4/UART_RX_ISR.c **** * Parameters:  
  77:.\Generated_Source\PSoC4/UART_RX_ISR.c **** *   address: Address of the ISR to set in the interrupt vector table.
  78:.\Generated_Source\PSoC4/UART_RX_ISR.c **** *
  79:.\Generated_Source\PSoC4/UART_RX_ISR.c **** * Return:
  80:.\Generated_Source\PSoC4/UART_RX_ISR.c **** *   None
  81:.\Generated_Source\PSoC4/UART_RX_ISR.c **** *
  82:.\Generated_Source\PSoC4/UART_RX_ISR.c **** *******************************************************************************/
  83:.\Generated_Source\PSoC4/UART_RX_ISR.c **** void UART_RX_ISR_StartEx(cyisraddress address)
  84:.\Generated_Source\PSoC4/UART_RX_ISR.c **** {
  66              		.loc 1 84 0
  67              		.cfi_startproc
  68 0000 80B5     		push	{r7, lr}
  69              	.LCFI2:
  70              		.cfi_def_cfa_offset 8
  71              		.cfi_offset 7, -8
  72              		.cfi_offset 14, -4
  73 0002 82B0     		sub	sp, sp, #8
  74              	.LCFI3:
  75              		.cfi_def_cfa_offset 16
  76 0004 00AF     		add	r7, sp, #0
  77              	.LCFI4:
  78              		.cfi_def_cfa_register 7
  79 0006 7860     		str	r0, [r7, #4]
  85:.\Generated_Source\PSoC4/UART_RX_ISR.c ****     /* For all we know the interrupt is active. */
  86:.\Generated_Source\PSoC4/UART_RX_ISR.c ****     UART_RX_ISR_Disable();
  80              		.loc 1 86 0
  81 0008 FFF7FEFF 		bl	UART_RX_ISR_Disable
  87:.\Generated_Source\PSoC4/UART_RX_ISR.c **** 
  88:.\Generated_Source\PSoC4/UART_RX_ISR.c ****     /* Set the ISR to point to the UART_RX_ISR Interrupt. */
  89:.\Generated_Source\PSoC4/UART_RX_ISR.c ****     UART_RX_ISR_SetVector(address);
  82              		.loc 1 89 0
ARM GAS  C:\Users\Sam\AppData\Local\Temp\ccGxIM3P.s 			page 4


  83 000c 7B68     		ldr	r3, [r7, #4]
  84 000e 181C     		mov	r0, r3
  85 0010 FFF7FEFF 		bl	UART_RX_ISR_SetVector
  90:.\Generated_Source\PSoC4/UART_RX_ISR.c **** 
  91:.\Generated_Source\PSoC4/UART_RX_ISR.c ****     /* Set the priority. */
  92:.\Generated_Source\PSoC4/UART_RX_ISR.c ****     UART_RX_ISR_SetPriority((uint8)UART_RX_ISR_INTC_PRIOR_NUMBER);
  86              		.loc 1 92 0
  87 0014 0320     		mov	r0, #3
  88 0016 FFF7FEFF 		bl	UART_RX_ISR_SetPriority
  93:.\Generated_Source\PSoC4/UART_RX_ISR.c **** 
  94:.\Generated_Source\PSoC4/UART_RX_ISR.c ****     /* Enable it. */
  95:.\Generated_Source\PSoC4/UART_RX_ISR.c ****     UART_RX_ISR_Enable();
  89              		.loc 1 95 0
  90 001a FFF7FEFF 		bl	UART_RX_ISR_Enable
  96:.\Generated_Source\PSoC4/UART_RX_ISR.c **** }
  91              		.loc 1 96 0
  92 001e BD46     		mov	sp, r7
  93 0020 02B0     		add	sp, sp, #8
  94              		@ sp needed for prologue
  95 0022 80BD     		pop	{r7, pc}
  96              		.cfi_endproc
  97              	.LFE1:
  98              		.size	UART_RX_ISR_StartEx, .-UART_RX_ISR_StartEx
  99              		.section	.text.UART_RX_ISR_Stop,"ax",%progbits
 100              		.align	2
 101              		.global	UART_RX_ISR_Stop
 102              		.code	16
 103              		.thumb_func
 104              		.type	UART_RX_ISR_Stop, %function
 105              	UART_RX_ISR_Stop:
 106              	.LFB2:
  97:.\Generated_Source\PSoC4/UART_RX_ISR.c **** 
  98:.\Generated_Source\PSoC4/UART_RX_ISR.c **** 
  99:.\Generated_Source\PSoC4/UART_RX_ISR.c **** /*******************************************************************************
 100:.\Generated_Source\PSoC4/UART_RX_ISR.c **** * Function Name: UART_RX_ISR_Stop
 101:.\Generated_Source\PSoC4/UART_RX_ISR.c **** ********************************************************************************
 102:.\Generated_Source\PSoC4/UART_RX_ISR.c **** *
 103:.\Generated_Source\PSoC4/UART_RX_ISR.c **** * Summary:
 104:.\Generated_Source\PSoC4/UART_RX_ISR.c **** *   Disables and removes the interrupt.
 105:.\Generated_Source\PSoC4/UART_RX_ISR.c **** *
 106:.\Generated_Source\PSoC4/UART_RX_ISR.c **** * Parameters:  
 107:.\Generated_Source\PSoC4/UART_RX_ISR.c **** *
 108:.\Generated_Source\PSoC4/UART_RX_ISR.c **** * Return:
 109:.\Generated_Source\PSoC4/UART_RX_ISR.c **** *   None
 110:.\Generated_Source\PSoC4/UART_RX_ISR.c **** *
 111:.\Generated_Source\PSoC4/UART_RX_ISR.c **** *******************************************************************************/
 112:.\Generated_Source\PSoC4/UART_RX_ISR.c **** void UART_RX_ISR_Stop(void)
 113:.\Generated_Source\PSoC4/UART_RX_ISR.c **** {
 107              		.loc 1 113 0
 108              		.cfi_startproc
 109 0000 80B5     		push	{r7, lr}
 110              	.LCFI5:
 111              		.cfi_def_cfa_offset 8
 112              		.cfi_offset 7, -8
 113              		.cfi_offset 14, -4
 114 0002 00AF     		add	r7, sp, #0
 115              	.LCFI6:
ARM GAS  C:\Users\Sam\AppData\Local\Temp\ccGxIM3P.s 			page 5


 116              		.cfi_def_cfa_register 7
 114:.\Generated_Source\PSoC4/UART_RX_ISR.c ****     /* Disable this interrupt. */
 115:.\Generated_Source\PSoC4/UART_RX_ISR.c ****     UART_RX_ISR_Disable();
 117              		.loc 1 115 0
 118 0004 FFF7FEFF 		bl	UART_RX_ISR_Disable
 116:.\Generated_Source\PSoC4/UART_RX_ISR.c **** 
 117:.\Generated_Source\PSoC4/UART_RX_ISR.c ****     /* Set the ISR to point to the passive one. */
 118:.\Generated_Source\PSoC4/UART_RX_ISR.c ****     UART_RX_ISR_SetVector(&IntDefaultHandler);
 119              		.loc 1 118 0
 120 0008 024B     		ldr	r3, .L6
 121 000a 181C     		mov	r0, r3
 122 000c FFF7FEFF 		bl	UART_RX_ISR_SetVector
 119:.\Generated_Source\PSoC4/UART_RX_ISR.c **** }
 123              		.loc 1 119 0
 124 0010 BD46     		mov	sp, r7
 125              		@ sp needed for prologue
 126 0012 80BD     		pop	{r7, pc}
 127              	.L7:
 128              		.align	2
 129              	.L6:
 130 0014 00000000 		.word	IntDefaultHandler
 131              		.cfi_endproc
 132              	.LFE2:
 133              		.size	UART_RX_ISR_Stop, .-UART_RX_ISR_Stop
 134              		.section	.text.UART_RX_ISR_Interrupt,"ax",%progbits
 135              		.align	2
 136              		.global	UART_RX_ISR_Interrupt
 137              		.code	16
 138              		.thumb_func
 139              		.type	UART_RX_ISR_Interrupt, %function
 140              	UART_RX_ISR_Interrupt:
 141              	.LFB3:
 120:.\Generated_Source\PSoC4/UART_RX_ISR.c **** 
 121:.\Generated_Source\PSoC4/UART_RX_ISR.c **** 
 122:.\Generated_Source\PSoC4/UART_RX_ISR.c **** /*******************************************************************************
 123:.\Generated_Source\PSoC4/UART_RX_ISR.c **** * Function Name: UART_RX_ISR_Interrupt
 124:.\Generated_Source\PSoC4/UART_RX_ISR.c **** ********************************************************************************
 125:.\Generated_Source\PSoC4/UART_RX_ISR.c **** *
 126:.\Generated_Source\PSoC4/UART_RX_ISR.c **** * Summary:
 127:.\Generated_Source\PSoC4/UART_RX_ISR.c **** *   The default Interrupt Service Routine for UART_RX_ISR.
 128:.\Generated_Source\PSoC4/UART_RX_ISR.c **** *
 129:.\Generated_Source\PSoC4/UART_RX_ISR.c **** *   Add custom code between the coments to keep the next version of this file
 130:.\Generated_Source\PSoC4/UART_RX_ISR.c **** *   from over writting your code.
 131:.\Generated_Source\PSoC4/UART_RX_ISR.c **** *
 132:.\Generated_Source\PSoC4/UART_RX_ISR.c **** * Parameters:  
 133:.\Generated_Source\PSoC4/UART_RX_ISR.c **** *   None
 134:.\Generated_Source\PSoC4/UART_RX_ISR.c **** *
 135:.\Generated_Source\PSoC4/UART_RX_ISR.c **** * Return:
 136:.\Generated_Source\PSoC4/UART_RX_ISR.c **** *   None
 137:.\Generated_Source\PSoC4/UART_RX_ISR.c **** *
 138:.\Generated_Source\PSoC4/UART_RX_ISR.c **** *******************************************************************************/
 139:.\Generated_Source\PSoC4/UART_RX_ISR.c **** CY_ISR(UART_RX_ISR_Interrupt)
 140:.\Generated_Source\PSoC4/UART_RX_ISR.c **** {
 142              		.loc 1 140 0
 143              		.cfi_startproc
 144 0000 80B5     		push	{r7, lr}
 145              	.LCFI7:
ARM GAS  C:\Users\Sam\AppData\Local\Temp\ccGxIM3P.s 			page 6


 146              		.cfi_def_cfa_offset 8
 147              		.cfi_offset 7, -8
 148              		.cfi_offset 14, -4
 149 0002 82B0     		sub	sp, sp, #8
 150              	.LCFI8:
 151              		.cfi_def_cfa_offset 16
 152 0004 00AF     		add	r7, sp, #0
 153              	.LCFI9:
 154              		.cfi_def_cfa_register 7
 141:.\Generated_Source\PSoC4/UART_RX_ISR.c ****     /*  Place your Interrupt code here. */
 142:.\Generated_Source\PSoC4/UART_RX_ISR.c ****     
 143:.\Generated_Source\PSoC4/UART_RX_ISR.c ****     uint32 source = 0;
 155              		.loc 1 143 0
 156 0006 0023     		mov	r3, #0
 157 0008 7B60     		str	r3, [r7, #4]
 144:.\Generated_Source\PSoC4/UART_RX_ISR.c ****     
 145:.\Generated_Source\PSoC4/UART_RX_ISR.c ****     /* `#START UART_RX_ISR_Interrupt` */
 146:.\Generated_Source\PSoC4/UART_RX_ISR.c ****     
 147:.\Generated_Source\PSoC4/UART_RX_ISR.c ****     flag = 1; 
 158              		.loc 1 147 0
 159 000a 064B     		ldr	r3, .L9
 160 000c 0122     		mov	r2, #1
 161 000e 1A70     		strb	r2, [r3]
 148:.\Generated_Source\PSoC4/UART_RX_ISR.c ****     
 149:.\Generated_Source\PSoC4/UART_RX_ISR.c ****     source = UART_GetRxInterruptSourceMasked();
 162              		.loc 1 149 0
 163 0010 054B     		ldr	r3, .L9+4
 164 0012 1B68     		ldr	r3, [r3]
 165 0014 7B60     		str	r3, [r7, #4]
 150:.\Generated_Source\PSoC4/UART_RX_ISR.c ****     UART_ClearRxInterruptSource(source);
 166              		.loc 1 150 0
 167 0016 054B     		ldr	r3, .L9+8
 168 0018 7A68     		ldr	r2, [r7, #4]
 169 001a 1A60     		str	r2, [r3]
 151:.\Generated_Source\PSoC4/UART_RX_ISR.c **** 
 152:.\Generated_Source\PSoC4/UART_RX_ISR.c ****     /* `#END` */
 153:.\Generated_Source\PSoC4/UART_RX_ISR.c **** }
 170              		.loc 1 153 0
 171 001c BD46     		mov	sp, r7
 172 001e 02B0     		add	sp, sp, #8
 173              		@ sp needed for prologue
 174 0020 80BD     		pop	{r7, pc}
 175              	.L10:
 176 0022 C046     		.align	2
 177              	.L9:
 178 0024 00000000 		.word	flag
 179 0028 CC0F0740 		.word	1074204620
 180 002c C00F0740 		.word	1074204608
 181              		.cfi_endproc
 182              	.LFE3:
 183              		.size	UART_RX_ISR_Interrupt, .-UART_RX_ISR_Interrupt
 184              		.section	.text.UART_RX_ISR_SetVector,"ax",%progbits
 185              		.align	2
 186              		.global	UART_RX_ISR_SetVector
 187              		.code	16
 188              		.thumb_func
 189              		.type	UART_RX_ISR_SetVector, %function
ARM GAS  C:\Users\Sam\AppData\Local\Temp\ccGxIM3P.s 			page 7


 190              	UART_RX_ISR_SetVector:
 191              	.LFB4:
 154:.\Generated_Source\PSoC4/UART_RX_ISR.c **** 
 155:.\Generated_Source\PSoC4/UART_RX_ISR.c **** 
 156:.\Generated_Source\PSoC4/UART_RX_ISR.c **** /*******************************************************************************
 157:.\Generated_Source\PSoC4/UART_RX_ISR.c **** * Function Name: UART_RX_ISR_SetVector
 158:.\Generated_Source\PSoC4/UART_RX_ISR.c **** ********************************************************************************
 159:.\Generated_Source\PSoC4/UART_RX_ISR.c **** *
 160:.\Generated_Source\PSoC4/UART_RX_ISR.c **** * Summary:
 161:.\Generated_Source\PSoC4/UART_RX_ISR.c **** *   Change the ISR vector for the Interrupt. Note calling UART_RX_ISR_Start
 162:.\Generated_Source\PSoC4/UART_RX_ISR.c **** *   will override any effect this method would have had. To set the vector 
 163:.\Generated_Source\PSoC4/UART_RX_ISR.c **** *   before the component has been started use UART_RX_ISR_StartEx instead.
 164:.\Generated_Source\PSoC4/UART_RX_ISR.c **** *
 165:.\Generated_Source\PSoC4/UART_RX_ISR.c **** * Parameters:
 166:.\Generated_Source\PSoC4/UART_RX_ISR.c **** *   address: Address of the ISR to set in the interrupt vector table.
 167:.\Generated_Source\PSoC4/UART_RX_ISR.c **** *
 168:.\Generated_Source\PSoC4/UART_RX_ISR.c **** * Return:
 169:.\Generated_Source\PSoC4/UART_RX_ISR.c **** *   None
 170:.\Generated_Source\PSoC4/UART_RX_ISR.c **** *
 171:.\Generated_Source\PSoC4/UART_RX_ISR.c **** *******************************************************************************/
 172:.\Generated_Source\PSoC4/UART_RX_ISR.c **** void UART_RX_ISR_SetVector(cyisraddress address)
 173:.\Generated_Source\PSoC4/UART_RX_ISR.c **** {
 192              		.loc 1 173 0
 193              		.cfi_startproc
 194 0000 80B5     		push	{r7, lr}
 195              	.LCFI10:
 196              		.cfi_def_cfa_offset 8
 197              		.cfi_offset 7, -8
 198              		.cfi_offset 14, -4
 199 0002 82B0     		sub	sp, sp, #8
 200              	.LCFI11:
 201              		.cfi_def_cfa_offset 16
 202 0004 00AF     		add	r7, sp, #0
 203              	.LCFI12:
 204              		.cfi_def_cfa_register 7
 205 0006 7860     		str	r0, [r7, #4]
 174:.\Generated_Source\PSoC4/UART_RX_ISR.c ****     CyRamVectors[CYINT_IRQ_BASE + UART_RX_ISR__INTC_NUMBER] = address;
 206              		.loc 1 174 0
 207 0008 024B     		ldr	r3, .L12
 208 000a 7A68     		ldr	r2, [r7, #4]
 209 000c DA66     		str	r2, [r3, #108]
 175:.\Generated_Source\PSoC4/UART_RX_ISR.c **** }
 210              		.loc 1 175 0
 211 000e BD46     		mov	sp, r7
 212 0010 02B0     		add	sp, sp, #8
 213              		@ sp needed for prologue
 214 0012 80BD     		pop	{r7, pc}
 215              	.L13:
 216              		.align	2
 217              	.L12:
 218 0014 00000000 		.word	CyRamVectors
 219              		.cfi_endproc
 220              	.LFE4:
 221              		.size	UART_RX_ISR_SetVector, .-UART_RX_ISR_SetVector
 222              		.section	.text.UART_RX_ISR_GetVector,"ax",%progbits
 223              		.align	2
 224              		.global	UART_RX_ISR_GetVector
ARM GAS  C:\Users\Sam\AppData\Local\Temp\ccGxIM3P.s 			page 8


 225              		.code	16
 226              		.thumb_func
 227              		.type	UART_RX_ISR_GetVector, %function
 228              	UART_RX_ISR_GetVector:
 229              	.LFB5:
 176:.\Generated_Source\PSoC4/UART_RX_ISR.c **** 
 177:.\Generated_Source\PSoC4/UART_RX_ISR.c **** 
 178:.\Generated_Source\PSoC4/UART_RX_ISR.c **** /*******************************************************************************
 179:.\Generated_Source\PSoC4/UART_RX_ISR.c **** * Function Name: UART_RX_ISR_GetVector
 180:.\Generated_Source\PSoC4/UART_RX_ISR.c **** ********************************************************************************
 181:.\Generated_Source\PSoC4/UART_RX_ISR.c **** *
 182:.\Generated_Source\PSoC4/UART_RX_ISR.c **** * Summary:
 183:.\Generated_Source\PSoC4/UART_RX_ISR.c **** *   Gets the "address" of the current ISR vector for the Interrupt.
 184:.\Generated_Source\PSoC4/UART_RX_ISR.c **** *
 185:.\Generated_Source\PSoC4/UART_RX_ISR.c **** * Parameters:
 186:.\Generated_Source\PSoC4/UART_RX_ISR.c **** *   None
 187:.\Generated_Source\PSoC4/UART_RX_ISR.c **** *
 188:.\Generated_Source\PSoC4/UART_RX_ISR.c **** * Return:
 189:.\Generated_Source\PSoC4/UART_RX_ISR.c **** *   Address of the ISR in the interrupt vector table.
 190:.\Generated_Source\PSoC4/UART_RX_ISR.c **** *
 191:.\Generated_Source\PSoC4/UART_RX_ISR.c **** *******************************************************************************/
 192:.\Generated_Source\PSoC4/UART_RX_ISR.c **** cyisraddress UART_RX_ISR_GetVector(void)
 193:.\Generated_Source\PSoC4/UART_RX_ISR.c **** {
 230              		.loc 1 193 0
 231              		.cfi_startproc
 232 0000 80B5     		push	{r7, lr}
 233              	.LCFI13:
 234              		.cfi_def_cfa_offset 8
 235              		.cfi_offset 7, -8
 236              		.cfi_offset 14, -4
 237 0002 00AF     		add	r7, sp, #0
 238              	.LCFI14:
 239              		.cfi_def_cfa_register 7
 194:.\Generated_Source\PSoC4/UART_RX_ISR.c ****     return CyRamVectors[CYINT_IRQ_BASE + UART_RX_ISR__INTC_NUMBER];
 240              		.loc 1 194 0
 241 0004 024B     		ldr	r3, .L16
 242 0006 DB6E     		ldr	r3, [r3, #108]
 195:.\Generated_Source\PSoC4/UART_RX_ISR.c **** }
 243              		.loc 1 195 0
 244 0008 181C     		mov	r0, r3
 245 000a BD46     		mov	sp, r7
 246              		@ sp needed for prologue
 247 000c 80BD     		pop	{r7, pc}
 248              	.L17:
 249 000e C046     		.align	2
 250              	.L16:
 251 0010 00000000 		.word	CyRamVectors
 252              		.cfi_endproc
 253              	.LFE5:
 254              		.size	UART_RX_ISR_GetVector, .-UART_RX_ISR_GetVector
 255              		.section	.text.UART_RX_ISR_SetPriority,"ax",%progbits
 256              		.align	2
 257              		.global	UART_RX_ISR_SetPriority
 258              		.code	16
 259              		.thumb_func
 260              		.type	UART_RX_ISR_SetPriority, %function
 261              	UART_RX_ISR_SetPriority:
ARM GAS  C:\Users\Sam\AppData\Local\Temp\ccGxIM3P.s 			page 9


 262              	.LFB6:
 196:.\Generated_Source\PSoC4/UART_RX_ISR.c **** 
 197:.\Generated_Source\PSoC4/UART_RX_ISR.c **** 
 198:.\Generated_Source\PSoC4/UART_RX_ISR.c **** /*******************************************************************************
 199:.\Generated_Source\PSoC4/UART_RX_ISR.c **** * Function Name: UART_RX_ISR_SetPriority
 200:.\Generated_Source\PSoC4/UART_RX_ISR.c **** ********************************************************************************
 201:.\Generated_Source\PSoC4/UART_RX_ISR.c **** *
 202:.\Generated_Source\PSoC4/UART_RX_ISR.c **** * Summary:
 203:.\Generated_Source\PSoC4/UART_RX_ISR.c **** *   Sets the Priority of the Interrupt. Note calling UART_RX_ISR_Start
 204:.\Generated_Source\PSoC4/UART_RX_ISR.c **** *   or UART_RX_ISR_StartEx will override any effect this method would 
 205:.\Generated_Source\PSoC4/UART_RX_ISR.c **** *   have had. This method should only be called after UART_RX_ISR_Start or 
 206:.\Generated_Source\PSoC4/UART_RX_ISR.c **** *   UART_RX_ISR_StartEx has been called. To set the initial
 207:.\Generated_Source\PSoC4/UART_RX_ISR.c **** *   priority for the component use the cydwr file in the tool.
 208:.\Generated_Source\PSoC4/UART_RX_ISR.c **** *
 209:.\Generated_Source\PSoC4/UART_RX_ISR.c **** * Parameters:
 210:.\Generated_Source\PSoC4/UART_RX_ISR.c **** *   priority: Priority of the interrupt. 0 - 3, 0 being the highest.
 211:.\Generated_Source\PSoC4/UART_RX_ISR.c **** *
 212:.\Generated_Source\PSoC4/UART_RX_ISR.c **** * Return:
 213:.\Generated_Source\PSoC4/UART_RX_ISR.c **** *   None
 214:.\Generated_Source\PSoC4/UART_RX_ISR.c **** *
 215:.\Generated_Source\PSoC4/UART_RX_ISR.c **** *******************************************************************************/
 216:.\Generated_Source\PSoC4/UART_RX_ISR.c **** void UART_RX_ISR_SetPriority(uint8 priority)
 217:.\Generated_Source\PSoC4/UART_RX_ISR.c **** {
 263              		.loc 1 217 0
 264              		.cfi_startproc
 265 0000 90B5     		push	{r4, r7, lr}
 266              	.LCFI15:
 267              		.cfi_def_cfa_offset 12
 268              		.cfi_offset 4, -12
 269              		.cfi_offset 7, -8
 270              		.cfi_offset 14, -4
 271 0002 85B0     		sub	sp, sp, #20
 272              	.LCFI16:
 273              		.cfi_def_cfa_offset 32
 274 0004 00AF     		add	r7, sp, #0
 275              	.LCFI17:
 276              		.cfi_def_cfa_register 7
 277 0006 021C     		mov	r2, r0
 278 0008 FB1D     		add	r3, r7, #7
 279 000a 1A70     		strb	r2, [r3]
 218:.\Generated_Source\PSoC4/UART_RX_ISR.c **** 	uint8 interruptState;
 219:.\Generated_Source\PSoC4/UART_RX_ISR.c ****     uint32 priorityOffset = ((UART_RX_ISR__INTC_NUMBER % 4u) * 8u) + 6u;
 280              		.loc 1 219 0
 281 000c 1E23     		mov	r3, #30
 282 000e FB60     		str	r3, [r7, #12]
 220:.\Generated_Source\PSoC4/UART_RX_ISR.c ****     
 221:.\Generated_Source\PSoC4/UART_RX_ISR.c **** 	interruptState = CyEnterCriticalSection();
 283              		.loc 1 221 0
 284 0010 3C1C     		mov	r4, r7
 285 0012 0B34     		add	r4, r4, #11
 286 0014 FFF7FEFF 		bl	CyEnterCriticalSection
 287 0018 031C     		mov	r3, r0
 288 001a 2370     		strb	r3, [r4]
 222:.\Generated_Source\PSoC4/UART_RX_ISR.c ****     *UART_RX_ISR_INTC_PRIOR = (*UART_RX_ISR_INTC_PRIOR & (uint32)(~UART_RX_ISR__INTC_PRIOR_MASK)) |
 289              		.loc 1 222 0
 290 001c 0A4B     		ldr	r3, .L19
 291 001e 0A4A     		ldr	r2, .L19
ARM GAS  C:\Users\Sam\AppData\Local\Temp\ccGxIM3P.s 			page 10


 292 0020 1268     		ldr	r2, [r2]
 293 0022 9200     		lsl	r2, r2, #2
 294 0024 9108     		lsr	r1, r2, #2
 223:.\Generated_Source\PSoC4/UART_RX_ISR.c ****                                     ((uint32)priority << priorityOffset);
 295              		.loc 1 223 0
 296 0026 FA1D     		add	r2, r7, #7
 297 0028 1078     		ldrb	r0, [r2]
 298 002a FA68     		ldr	r2, [r7, #12]
 299 002c 041C     		mov	r4, r0
 300 002e 9440     		lsl	r4, r4, r2
 301 0030 221C     		mov	r2, r4
 222:.\Generated_Source\PSoC4/UART_RX_ISR.c ****     *UART_RX_ISR_INTC_PRIOR = (*UART_RX_ISR_INTC_PRIOR & (uint32)(~UART_RX_ISR__INTC_PRIOR_MASK)) |
 302              		.loc 1 222 0
 303 0032 0A43     		orr	r2, r1
 304 0034 1A60     		str	r2, [r3]
 224:.\Generated_Source\PSoC4/UART_RX_ISR.c **** 	CyExitCriticalSection(interruptState);
 305              		.loc 1 224 0
 306 0036 3B1C     		mov	r3, r7
 307 0038 0B33     		add	r3, r3, #11
 308 003a 1B78     		ldrb	r3, [r3]
 309 003c 181C     		mov	r0, r3
 310 003e FFF7FEFF 		bl	CyExitCriticalSection
 225:.\Generated_Source\PSoC4/UART_RX_ISR.c **** }
 311              		.loc 1 225 0
 312 0042 BD46     		mov	sp, r7
 313 0044 05B0     		add	sp, sp, #20
 314              		@ sp needed for prologue
 315 0046 90BD     		pop	{r4, r7, pc}
 316              	.L20:
 317              		.align	2
 318              	.L19:
 319 0048 08E400E0 		.word	-536812536
 320              		.cfi_endproc
 321              	.LFE6:
 322              		.size	UART_RX_ISR_SetPriority, .-UART_RX_ISR_SetPriority
 323              		.section	.text.UART_RX_ISR_GetPriority,"ax",%progbits
 324              		.align	2
 325              		.global	UART_RX_ISR_GetPriority
 326              		.code	16
 327              		.thumb_func
 328              		.type	UART_RX_ISR_GetPriority, %function
 329              	UART_RX_ISR_GetPriority:
 330              	.LFB7:
 226:.\Generated_Source\PSoC4/UART_RX_ISR.c **** 
 227:.\Generated_Source\PSoC4/UART_RX_ISR.c **** 
 228:.\Generated_Source\PSoC4/UART_RX_ISR.c **** /*******************************************************************************
 229:.\Generated_Source\PSoC4/UART_RX_ISR.c **** * Function Name: UART_RX_ISR_GetPriority
 230:.\Generated_Source\PSoC4/UART_RX_ISR.c **** ********************************************************************************
 231:.\Generated_Source\PSoC4/UART_RX_ISR.c **** *
 232:.\Generated_Source\PSoC4/UART_RX_ISR.c **** * Summary:
 233:.\Generated_Source\PSoC4/UART_RX_ISR.c **** *   Gets the Priority of the Interrupt.
 234:.\Generated_Source\PSoC4/UART_RX_ISR.c **** *
 235:.\Generated_Source\PSoC4/UART_RX_ISR.c **** * Parameters:
 236:.\Generated_Source\PSoC4/UART_RX_ISR.c **** *   None
 237:.\Generated_Source\PSoC4/UART_RX_ISR.c **** *
 238:.\Generated_Source\PSoC4/UART_RX_ISR.c **** * Return:
 239:.\Generated_Source\PSoC4/UART_RX_ISR.c **** *   Priority of the interrupt. 0 - 3, 0 being the highest.
ARM GAS  C:\Users\Sam\AppData\Local\Temp\ccGxIM3P.s 			page 11


 240:.\Generated_Source\PSoC4/UART_RX_ISR.c **** *
 241:.\Generated_Source\PSoC4/UART_RX_ISR.c **** *******************************************************************************/
 242:.\Generated_Source\PSoC4/UART_RX_ISR.c **** uint8 UART_RX_ISR_GetPriority(void)
 243:.\Generated_Source\PSoC4/UART_RX_ISR.c **** {
 331              		.loc 1 243 0
 332              		.cfi_startproc
 333 0000 80B5     		push	{r7, lr}
 334              	.LCFI18:
 335              		.cfi_def_cfa_offset 8
 336              		.cfi_offset 7, -8
 337              		.cfi_offset 14, -4
 338 0002 82B0     		sub	sp, sp, #8
 339              	.LCFI19:
 340              		.cfi_def_cfa_offset 16
 341 0004 00AF     		add	r7, sp, #0
 342              	.LCFI20:
 343              		.cfi_def_cfa_register 7
 244:.\Generated_Source\PSoC4/UART_RX_ISR.c ****     uint32 priority;
 245:.\Generated_Source\PSoC4/UART_RX_ISR.c **** 	uint32 priorityOffset = ((UART_RX_ISR__INTC_NUMBER % 4u) * 8u) + 6u;
 344              		.loc 1 245 0
 345 0006 1E23     		mov	r3, #30
 346 0008 7B60     		str	r3, [r7, #4]
 246:.\Generated_Source\PSoC4/UART_RX_ISR.c **** 
 247:.\Generated_Source\PSoC4/UART_RX_ISR.c ****     priority = (*UART_RX_ISR_INTC_PRIOR & UART_RX_ISR__INTC_PRIOR_MASK) >> priorityOffset;
 347              		.loc 1 247 0
 348 000a 074B     		ldr	r3, .L23
 349 000c 1B68     		ldr	r3, [r3]
 350 000e 9B0F     		lsr	r3, r3, #30
 351 0010 9A07     		lsl	r2, r3, #30
 352 0012 7B68     		ldr	r3, [r7, #4]
 353 0014 111C     		mov	r1, r2
 354 0016 D940     		lsr	r1, r1, r3
 355 0018 0B1C     		mov	r3, r1
 356 001a 3B60     		str	r3, [r7]
 248:.\Generated_Source\PSoC4/UART_RX_ISR.c **** 
 249:.\Generated_Source\PSoC4/UART_RX_ISR.c ****     return (uint8)priority;
 357              		.loc 1 249 0
 358 001c 3B68     		ldr	r3, [r7]
 359 001e DBB2     		uxtb	r3, r3
 250:.\Generated_Source\PSoC4/UART_RX_ISR.c **** }
 360              		.loc 1 250 0
 361 0020 181C     		mov	r0, r3
 362 0022 BD46     		mov	sp, r7
 363 0024 02B0     		add	sp, sp, #8
 364              		@ sp needed for prologue
 365 0026 80BD     		pop	{r7, pc}
 366              	.L24:
 367              		.align	2
 368              	.L23:
 369 0028 08E400E0 		.word	-536812536
 370              		.cfi_endproc
 371              	.LFE7:
 372              		.size	UART_RX_ISR_GetPriority, .-UART_RX_ISR_GetPriority
 373              		.section	.text.UART_RX_ISR_Enable,"ax",%progbits
 374              		.align	2
 375              		.global	UART_RX_ISR_Enable
 376              		.code	16
ARM GAS  C:\Users\Sam\AppData\Local\Temp\ccGxIM3P.s 			page 12


 377              		.thumb_func
 378              		.type	UART_RX_ISR_Enable, %function
 379              	UART_RX_ISR_Enable:
 380              	.LFB8:
 251:.\Generated_Source\PSoC4/UART_RX_ISR.c **** 
 252:.\Generated_Source\PSoC4/UART_RX_ISR.c **** 
 253:.\Generated_Source\PSoC4/UART_RX_ISR.c **** /*******************************************************************************
 254:.\Generated_Source\PSoC4/UART_RX_ISR.c **** * Function Name: UART_RX_ISR_Enable
 255:.\Generated_Source\PSoC4/UART_RX_ISR.c **** ********************************************************************************
 256:.\Generated_Source\PSoC4/UART_RX_ISR.c **** *
 257:.\Generated_Source\PSoC4/UART_RX_ISR.c **** * Summary:
 258:.\Generated_Source\PSoC4/UART_RX_ISR.c **** *   Enables the interrupt.
 259:.\Generated_Source\PSoC4/UART_RX_ISR.c **** *
 260:.\Generated_Source\PSoC4/UART_RX_ISR.c **** * Parameters:
 261:.\Generated_Source\PSoC4/UART_RX_ISR.c **** *   None
 262:.\Generated_Source\PSoC4/UART_RX_ISR.c **** *
 263:.\Generated_Source\PSoC4/UART_RX_ISR.c **** * Return:
 264:.\Generated_Source\PSoC4/UART_RX_ISR.c **** *   None
 265:.\Generated_Source\PSoC4/UART_RX_ISR.c **** *
 266:.\Generated_Source\PSoC4/UART_RX_ISR.c **** *******************************************************************************/
 267:.\Generated_Source\PSoC4/UART_RX_ISR.c **** void UART_RX_ISR_Enable(void)
 268:.\Generated_Source\PSoC4/UART_RX_ISR.c **** {
 381              		.loc 1 268 0
 382              		.cfi_startproc
 383 0000 80B5     		push	{r7, lr}
 384              	.LCFI21:
 385              		.cfi_def_cfa_offset 8
 386              		.cfi_offset 7, -8
 387              		.cfi_offset 14, -4
 388 0002 00AF     		add	r7, sp, #0
 389              	.LCFI22:
 390              		.cfi_def_cfa_register 7
 269:.\Generated_Source\PSoC4/UART_RX_ISR.c ****     /* Enable the general interrupt. */
 270:.\Generated_Source\PSoC4/UART_RX_ISR.c ****     *UART_RX_ISR_INTC_SET_EN = UART_RX_ISR__INTC_MASK;
 391              		.loc 1 270 0
 392 0004 024B     		ldr	r3, .L26
 393 0006 8022     		mov	r2, #128
 394 0008 1201     		lsl	r2, r2, #4
 395 000a 1A60     		str	r2, [r3]
 271:.\Generated_Source\PSoC4/UART_RX_ISR.c **** }
 396              		.loc 1 271 0
 397 000c BD46     		mov	sp, r7
 398              		@ sp needed for prologue
 399 000e 80BD     		pop	{r7, pc}
 400              	.L27:
 401              		.align	2
 402              	.L26:
 403 0010 00E100E0 		.word	-536813312
 404              		.cfi_endproc
 405              	.LFE8:
 406              		.size	UART_RX_ISR_Enable, .-UART_RX_ISR_Enable
 407              		.section	.text.UART_RX_ISR_GetState,"ax",%progbits
 408              		.align	2
 409              		.global	UART_RX_ISR_GetState
 410              		.code	16
 411              		.thumb_func
 412              		.type	UART_RX_ISR_GetState, %function
ARM GAS  C:\Users\Sam\AppData\Local\Temp\ccGxIM3P.s 			page 13


 413              	UART_RX_ISR_GetState:
 414              	.LFB9:
 272:.\Generated_Source\PSoC4/UART_RX_ISR.c **** 
 273:.\Generated_Source\PSoC4/UART_RX_ISR.c **** 
 274:.\Generated_Source\PSoC4/UART_RX_ISR.c **** /*******************************************************************************
 275:.\Generated_Source\PSoC4/UART_RX_ISR.c **** * Function Name: UART_RX_ISR_GetState
 276:.\Generated_Source\PSoC4/UART_RX_ISR.c **** ********************************************************************************
 277:.\Generated_Source\PSoC4/UART_RX_ISR.c **** *
 278:.\Generated_Source\PSoC4/UART_RX_ISR.c **** * Summary:
 279:.\Generated_Source\PSoC4/UART_RX_ISR.c **** *   Gets the state (enabled, disabled) of the Interrupt.
 280:.\Generated_Source\PSoC4/UART_RX_ISR.c **** *
 281:.\Generated_Source\PSoC4/UART_RX_ISR.c **** * Parameters:
 282:.\Generated_Source\PSoC4/UART_RX_ISR.c **** *   None
 283:.\Generated_Source\PSoC4/UART_RX_ISR.c **** *
 284:.\Generated_Source\PSoC4/UART_RX_ISR.c **** * Return:
 285:.\Generated_Source\PSoC4/UART_RX_ISR.c **** *   1 if enabled, 0 if disabled.
 286:.\Generated_Source\PSoC4/UART_RX_ISR.c **** *
 287:.\Generated_Source\PSoC4/UART_RX_ISR.c **** *******************************************************************************/
 288:.\Generated_Source\PSoC4/UART_RX_ISR.c **** uint8 UART_RX_ISR_GetState(void)
 289:.\Generated_Source\PSoC4/UART_RX_ISR.c **** {
 415              		.loc 1 289 0
 416              		.cfi_startproc
 417 0000 80B5     		push	{r7, lr}
 418              	.LCFI23:
 419              		.cfi_def_cfa_offset 8
 420              		.cfi_offset 7, -8
 421              		.cfi_offset 14, -4
 422 0002 00AF     		add	r7, sp, #0
 423              	.LCFI24:
 424              		.cfi_def_cfa_register 7
 290:.\Generated_Source\PSoC4/UART_RX_ISR.c ****     /* Get the state of the general interrupt. */
 291:.\Generated_Source\PSoC4/UART_RX_ISR.c ****     return ((*UART_RX_ISR_INTC_SET_EN & (uint32)UART_RX_ISR__INTC_MASK) != 0u) ? 1u:0u;
 425              		.loc 1 291 0
 426 0004 054B     		ldr	r3, .L32
 427 0006 1A68     		ldr	r2, [r3]
 428 0008 8023     		mov	r3, #128
 429 000a 1B01     		lsl	r3, r3, #4
 430 000c 1340     		and	r3, r2
 431 000e 01D0     		beq	.L29
 432              		.loc 1 291 0 is_stmt 0 discriminator 1
 433 0010 0123     		mov	r3, #1
 434 0012 00E0     		b	.L30
 435              	.L29:
 436              		.loc 1 291 0 discriminator 2
 437 0014 0023     		mov	r3, #0
 438              	.L30:
 292:.\Generated_Source\PSoC4/UART_RX_ISR.c **** }
 439              		.loc 1 292 0 is_stmt 1 discriminator 3
 440 0016 181C     		mov	r0, r3
 441 0018 BD46     		mov	sp, r7
 442              		@ sp needed for prologue
 443 001a 80BD     		pop	{r7, pc}
 444              	.L33:
 445              		.align	2
 446              	.L32:
 447 001c 00E100E0 		.word	-536813312
 448              		.cfi_endproc
ARM GAS  C:\Users\Sam\AppData\Local\Temp\ccGxIM3P.s 			page 14


 449              	.LFE9:
 450              		.size	UART_RX_ISR_GetState, .-UART_RX_ISR_GetState
 451              		.section	.text.UART_RX_ISR_Disable,"ax",%progbits
 452              		.align	2
 453              		.global	UART_RX_ISR_Disable
 454              		.code	16
 455              		.thumb_func
 456              		.type	UART_RX_ISR_Disable, %function
 457              	UART_RX_ISR_Disable:
 458              	.LFB10:
 293:.\Generated_Source\PSoC4/UART_RX_ISR.c **** 
 294:.\Generated_Source\PSoC4/UART_RX_ISR.c **** 
 295:.\Generated_Source\PSoC4/UART_RX_ISR.c **** /*******************************************************************************
 296:.\Generated_Source\PSoC4/UART_RX_ISR.c **** * Function Name: UART_RX_ISR_Disable
 297:.\Generated_Source\PSoC4/UART_RX_ISR.c **** ********************************************************************************
 298:.\Generated_Source\PSoC4/UART_RX_ISR.c **** *
 299:.\Generated_Source\PSoC4/UART_RX_ISR.c **** * Summary:
 300:.\Generated_Source\PSoC4/UART_RX_ISR.c **** *   Disables the Interrupt.
 301:.\Generated_Source\PSoC4/UART_RX_ISR.c **** *
 302:.\Generated_Source\PSoC4/UART_RX_ISR.c **** * Parameters:
 303:.\Generated_Source\PSoC4/UART_RX_ISR.c **** *   None
 304:.\Generated_Source\PSoC4/UART_RX_ISR.c **** *
 305:.\Generated_Source\PSoC4/UART_RX_ISR.c **** * Return:
 306:.\Generated_Source\PSoC4/UART_RX_ISR.c **** *   None
 307:.\Generated_Source\PSoC4/UART_RX_ISR.c **** *
 308:.\Generated_Source\PSoC4/UART_RX_ISR.c **** *******************************************************************************/
 309:.\Generated_Source\PSoC4/UART_RX_ISR.c **** void UART_RX_ISR_Disable(void)
 310:.\Generated_Source\PSoC4/UART_RX_ISR.c **** {
 459              		.loc 1 310 0
 460              		.cfi_startproc
 461 0000 80B5     		push	{r7, lr}
 462              	.LCFI25:
 463              		.cfi_def_cfa_offset 8
 464              		.cfi_offset 7, -8
 465              		.cfi_offset 14, -4
 466 0002 00AF     		add	r7, sp, #0
 467              	.LCFI26:
 468              		.cfi_def_cfa_register 7
 311:.\Generated_Source\PSoC4/UART_RX_ISR.c ****     /* Disable the general interrupt. */
 312:.\Generated_Source\PSoC4/UART_RX_ISR.c ****     *UART_RX_ISR_INTC_CLR_EN = UART_RX_ISR__INTC_MASK;
 469              		.loc 1 312 0
 470 0004 024B     		ldr	r3, .L35
 471 0006 8022     		mov	r2, #128
 472 0008 1201     		lsl	r2, r2, #4
 473 000a 1A60     		str	r2, [r3]
 313:.\Generated_Source\PSoC4/UART_RX_ISR.c **** }
 474              		.loc 1 313 0
 475 000c BD46     		mov	sp, r7
 476              		@ sp needed for prologue
 477 000e 80BD     		pop	{r7, pc}
 478              	.L36:
 479              		.align	2
 480              	.L35:
 481 0010 80E100E0 		.word	-536813184
 482              		.cfi_endproc
 483              	.LFE10:
 484              		.size	UART_RX_ISR_Disable, .-UART_RX_ISR_Disable
ARM GAS  C:\Users\Sam\AppData\Local\Temp\ccGxIM3P.s 			page 15


 485              		.section	.text.UART_RX_ISR_SetPending,"ax",%progbits
 486              		.align	2
 487              		.global	UART_RX_ISR_SetPending
 488              		.code	16
 489              		.thumb_func
 490              		.type	UART_RX_ISR_SetPending, %function
 491              	UART_RX_ISR_SetPending:
 492              	.LFB11:
 314:.\Generated_Source\PSoC4/UART_RX_ISR.c **** 
 315:.\Generated_Source\PSoC4/UART_RX_ISR.c **** 
 316:.\Generated_Source\PSoC4/UART_RX_ISR.c **** /*******************************************************************************
 317:.\Generated_Source\PSoC4/UART_RX_ISR.c **** * Function Name: UART_RX_ISR_SetPending
 318:.\Generated_Source\PSoC4/UART_RX_ISR.c **** ********************************************************************************
 319:.\Generated_Source\PSoC4/UART_RX_ISR.c **** *
 320:.\Generated_Source\PSoC4/UART_RX_ISR.c **** * Summary:
 321:.\Generated_Source\PSoC4/UART_RX_ISR.c **** *   Causes the Interrupt to enter the pending state, a software method of
 322:.\Generated_Source\PSoC4/UART_RX_ISR.c **** *   generating the interrupt.
 323:.\Generated_Source\PSoC4/UART_RX_ISR.c **** *
 324:.\Generated_Source\PSoC4/UART_RX_ISR.c **** * Parameters:
 325:.\Generated_Source\PSoC4/UART_RX_ISR.c **** *   None
 326:.\Generated_Source\PSoC4/UART_RX_ISR.c **** *
 327:.\Generated_Source\PSoC4/UART_RX_ISR.c **** * Return:
 328:.\Generated_Source\PSoC4/UART_RX_ISR.c **** *   None
 329:.\Generated_Source\PSoC4/UART_RX_ISR.c **** *
 330:.\Generated_Source\PSoC4/UART_RX_ISR.c **** *******************************************************************************/
 331:.\Generated_Source\PSoC4/UART_RX_ISR.c **** void UART_RX_ISR_SetPending(void)
 332:.\Generated_Source\PSoC4/UART_RX_ISR.c **** {
 493              		.loc 1 332 0
 494              		.cfi_startproc
 495 0000 80B5     		push	{r7, lr}
 496              	.LCFI27:
 497              		.cfi_def_cfa_offset 8
 498              		.cfi_offset 7, -8
 499              		.cfi_offset 14, -4
 500 0002 00AF     		add	r7, sp, #0
 501              	.LCFI28:
 502              		.cfi_def_cfa_register 7
 333:.\Generated_Source\PSoC4/UART_RX_ISR.c ****     *UART_RX_ISR_INTC_SET_PD = UART_RX_ISR__INTC_MASK;
 503              		.loc 1 333 0
 504 0004 024B     		ldr	r3, .L38
 505 0006 8022     		mov	r2, #128
 506 0008 1201     		lsl	r2, r2, #4
 507 000a 1A60     		str	r2, [r3]
 334:.\Generated_Source\PSoC4/UART_RX_ISR.c **** }
 508              		.loc 1 334 0
 509 000c BD46     		mov	sp, r7
 510              		@ sp needed for prologue
 511 000e 80BD     		pop	{r7, pc}
 512              	.L39:
 513              		.align	2
 514              	.L38:
 515 0010 00E200E0 		.word	-536813056
 516              		.cfi_endproc
 517              	.LFE11:
 518              		.size	UART_RX_ISR_SetPending, .-UART_RX_ISR_SetPending
 519              		.section	.text.UART_RX_ISR_ClearPending,"ax",%progbits
 520              		.align	2
ARM GAS  C:\Users\Sam\AppData\Local\Temp\ccGxIM3P.s 			page 16


 521              		.global	UART_RX_ISR_ClearPending
 522              		.code	16
 523              		.thumb_func
 524              		.type	UART_RX_ISR_ClearPending, %function
 525              	UART_RX_ISR_ClearPending:
 526              	.LFB12:
 335:.\Generated_Source\PSoC4/UART_RX_ISR.c **** 
 336:.\Generated_Source\PSoC4/UART_RX_ISR.c **** 
 337:.\Generated_Source\PSoC4/UART_RX_ISR.c **** /*******************************************************************************
 338:.\Generated_Source\PSoC4/UART_RX_ISR.c **** * Function Name: UART_RX_ISR_ClearPending
 339:.\Generated_Source\PSoC4/UART_RX_ISR.c **** ********************************************************************************
 340:.\Generated_Source\PSoC4/UART_RX_ISR.c **** *
 341:.\Generated_Source\PSoC4/UART_RX_ISR.c **** * Summary:
 342:.\Generated_Source\PSoC4/UART_RX_ISR.c **** *   Clears a pending interrupt.
 343:.\Generated_Source\PSoC4/UART_RX_ISR.c **** *
 344:.\Generated_Source\PSoC4/UART_RX_ISR.c **** * Parameters:
 345:.\Generated_Source\PSoC4/UART_RX_ISR.c **** *   None
 346:.\Generated_Source\PSoC4/UART_RX_ISR.c **** *
 347:.\Generated_Source\PSoC4/UART_RX_ISR.c **** * Return:
 348:.\Generated_Source\PSoC4/UART_RX_ISR.c **** *   None
 349:.\Generated_Source\PSoC4/UART_RX_ISR.c **** *
 350:.\Generated_Source\PSoC4/UART_RX_ISR.c **** *******************************************************************************/
 351:.\Generated_Source\PSoC4/UART_RX_ISR.c **** void UART_RX_ISR_ClearPending(void)
 352:.\Generated_Source\PSoC4/UART_RX_ISR.c **** {
 527              		.loc 1 352 0
 528              		.cfi_startproc
 529 0000 80B5     		push	{r7, lr}
 530              	.LCFI29:
 531              		.cfi_def_cfa_offset 8
 532              		.cfi_offset 7, -8
 533              		.cfi_offset 14, -4
 534 0002 00AF     		add	r7, sp, #0
 535              	.LCFI30:
 536              		.cfi_def_cfa_register 7
 353:.\Generated_Source\PSoC4/UART_RX_ISR.c ****     *UART_RX_ISR_INTC_CLR_PD = UART_RX_ISR__INTC_MASK;
 537              		.loc 1 353 0
 538 0004 024B     		ldr	r3, .L41
 539 0006 8022     		mov	r2, #128
 540 0008 1201     		lsl	r2, r2, #4
 541 000a 1A60     		str	r2, [r3]
 354:.\Generated_Source\PSoC4/UART_RX_ISR.c **** }
 542              		.loc 1 354 0
 543 000c BD46     		mov	sp, r7
 544              		@ sp needed for prologue
 545 000e 80BD     		pop	{r7, pc}
 546              	.L42:
 547              		.align	2
 548              	.L41:
 549 0010 80E200E0 		.word	-536812928
 550              		.cfi_endproc
 551              	.LFE12:
 552              		.size	UART_RX_ISR_ClearPending, .-UART_RX_ISR_ClearPending
 553              		.text
 554              	.Letext0:
 555              		.file 2 "./Generated_Source/PSoC4/cytypes.h"